
demoprog_stm32h743.elf:     file format elf32-littlearm

Sections:
Idx Name          Size      VMA       LMA       File off  Algn
  0 .shared       00000040  24000000  24000000  00009000  2**2
                  ALLOC
  1 .uip_sec      00044e00  30000000  08020000  00002000  2**5
                  ALLOC
  2 .isr_vector   0000029c  08020000  08020000  00001000  2**0
                  CONTENTS, ALLOC, LOAD, READONLY, DATA
  3 .text         00006b78  0802029c  0802029c  0000129c  2**2
                  CONTENTS, ALLOC, LOAD, READONLY, CODE
  4 .rodata       00000088  08026e14  08026e14  00007e14  2**2
                  CONTENTS, ALLOC, LOAD, READONLY, DATA
  5 .init_array   00000004  08026e9c  08026e9c  00007e9c  2**2
                  CONTENTS, ALLOC, LOAD, READONLY, DATA
  6 .fini_array   00000004  08026ea0  08026ea0  00007ea0  2**2
                  CONTENTS, ALLOC, LOAD, READONLY, DATA
  7 .data         00000024  24000040  08026ea4  00008040  2**2
                  CONTENTS, ALLOC, LOAD, DATA
  8 .bss          000008ec  24000064  08026ec8  00008064  2**2
                  ALLOC
  9 ._user_heap_stack 00000600  24000950  08026ec8  00008950  2**0
                  ALLOC
 10 .ARM.attributes 0000002e  00000000  00000000  00008064  2**0
                  CONTENTS, READONLY
 11 .debug_info   0001b0c1  00000000  00000000  00008092  2**0
                  CONTENTS, READONLY, DEBUGGING, OCTETS
 12 .debug_abbrev 0000380d  00000000  00000000  00023153  2**0
                  CONTENTS, READONLY, DEBUGGING, OCTETS
 13 .debug_aranges 00001068  00000000  00000000  00026960  2**3
                  CONTENTS, READONLY, DEBUGGING, OCTETS
 14 .debug_rnglists 00000cb5  00000000  00000000  000279c8  2**0
                  CONTENTS, READONLY, DEBUGGING, OCTETS
 15 .debug_macro  0003a203  00000000  00000000  0002867d  2**0
                  CONTENTS, READONLY, DEBUGGING, OCTETS
 16 .debug_line   0001a765  00000000  00000000  00062880  2**0
                  CONTENTS, READONLY, DEBUGGING, OCTETS
 17 .debug_str    0016c256  00000000  00000000  0007cfe5  2**0
                  CONTENTS, READONLY, DEBUGGING, OCTETS
 18 .comment      00000043  00000000  00000000  001e923b  2**0
                  CONTENTS, READONLY
 19 .debug_frame  00002704  00000000  00000000  001e9280  2**2
                  CONTENTS, READONLY, DEBUGGING, OCTETS
 20 .debug_loclists 00007b8d  00000000  00000000  001eb984  2**0
                  CONTENTS, READONLY, DEBUGGING, OCTETS
 21 .debug_line_str 0000009d  00000000  00000000  001f3511  2**0
                  CONTENTS, READONLY, DEBUGGING, OCTETS

Disassembly of section .text:

0802029c <__do_global_dtors_aux>:
 802029c:	b510      	push	{r4, lr}
 802029e:	4c05      	ldr	r4, [pc, #20]	@ (80202b4 <__do_global_dtors_aux+0x18>)
 80202a0:	7823      	ldrb	r3, [r4, #0]
 80202a2:	b933      	cbnz	r3, 80202b2 <__do_global_dtors_aux+0x16>
 80202a4:	4b04      	ldr	r3, [pc, #16]	@ (80202b8 <__do_global_dtors_aux+0x1c>)
 80202a6:	b113      	cbz	r3, 80202ae <__do_global_dtors_aux+0x12>
 80202a8:	4804      	ldr	r0, [pc, #16]	@ (80202bc <__do_global_dtors_aux+0x20>)
 80202aa:	f3af 8000 	nop.w
 80202ae:	2301      	movs	r3, #1
 80202b0:	7023      	strb	r3, [r4, #0]
 80202b2:	bd10      	pop	{r4, pc}
 80202b4:	24000064 	.word	0x24000064
 80202b8:	00000000 	.word	0x00000000
 80202bc:	08026dfc 	.word	0x08026dfc

080202c0 <frame_dummy>:
 80202c0:	b508      	push	{r3, lr}
 80202c2:	4b03      	ldr	r3, [pc, #12]	@ (80202d0 <frame_dummy+0x10>)
 80202c4:	b11b      	cbz	r3, 80202ce <frame_dummy+0xe>
 80202c6:	4903      	ldr	r1, [pc, #12]	@ (80202d4 <frame_dummy+0x14>)
 80202c8:	4803      	ldr	r0, [pc, #12]	@ (80202d8 <frame_dummy+0x18>)
 80202ca:	f3af 8000 	nop.w
 80202ce:	bd08      	pop	{r3, pc}
 80202d0:	00000000 	.word	0x00000000
 80202d4:	24000068 	.word	0x24000068
 80202d8:	08026dfc 	.word	0x08026dfc

080202dc <AppInit>:
**            software program initialization.
** \return    none.
**
****************************************************************************************/
void AppInit(void)
{
 80202dc:	b508      	push	{r3, lr}
  /* Initialize the timer driver. */
  TimerInit();
 80202de:	f000 fb15 	bl	802090c <TimerInit>
  /* Initialize the led driver. */
  LedInit();
 80202e2:	f000 f95d 	bl	80205a0 <LedInit>
  /* Initialize the shared parameters module */
  SharedParamsInit();
 80202e6:	f000 fae3 	bl	80208b0 <SharedParamsInit>
  /* initialize the network application */
  NetInit();
 80202ea:	f000 f989 	bl	8020600 <NetInit>
  /* initialize the bootloader interface */
  BootComInit();
 80202ee:	f000 f925 	bl	802053c <BootComInit>
  /* the shared parameter at index 0 is used as a boolean flag to indicate if the
   * bootloader should initialize the TCP/IP network stack. by default this flag
   * should be reset.
   */
  SharedParamsWriteByIndex(0, 0);
 80202f2:	2100      	movs	r1, #0
 80202f4:	4608      	mov	r0, r1
 80202f6:	f000 faf3 	bl	80208e0 <SharedParamsWriteByIndex>
} /*** end of AppInit ***/
 80202fa:	bd08      	pop	{r3, pc}

080202fc <AppTask>:
**            continuously in the program loop.
** \return    none.
**
****************************************************************************************/
void AppTask(void)
{
 80202fc:	b508      	push	{r3, lr}
  /* Toggle LED with a fixed frequency. */
  LedToggle();
 80202fe:	f000 f959 	bl	80205b4 <LedToggle>
  /* run the network task */
  NetTask();
 8020302:	f000 f9dd 	bl	80206c0 <NetTask>
  /* check for bootloader activation request */
  BootComCheckActivationRequest();
 8020306:	f000 f947 	bl	8020598 <BootComCheckActivationRequest>
} /*** end of AppTask ***/
 802030a:	bd08      	pop	{r3, pc}

0802030c <__NVIC_SystemReset>:
  \details Acts as a special kind of Data Memory Barrier.
           It completes when all explicit memory accesses before this instruction complete.
 */
__STATIC_FORCEINLINE void __DSB(void)
{
  __ASM volatile ("dsb 0xF":::"memory");
 802030c:	f3bf 8f4f 	dsb	sy
__NO_RETURN __STATIC_INLINE void __NVIC_SystemReset(void)
{
  __DSB();                                                          /* Ensure all outstanding memory accesses included
                                                                       buffered write are completed before reset */
  SCB->AIRCR  = (uint32_t)((0x5FAUL << SCB_AIRCR_VECTKEY_Pos)    |
                           (SCB->AIRCR & SCB_AIRCR_PRIGROUP_Msk) |
 8020310:	4905      	ldr	r1, [pc, #20]	@ (8020328 <__NVIC_SystemReset+0x1c>)
 8020312:	68ca      	ldr	r2, [r1, #12]
 8020314:	f402 62e0 	and.w	r2, r2, #1792	@ 0x700
  SCB->AIRCR  = (uint32_t)((0x5FAUL << SCB_AIRCR_VECTKEY_Pos)    |
 8020318:	4b04      	ldr	r3, [pc, #16]	@ (802032c <__NVIC_SystemReset+0x20>)
 802031a:	4313      	orrs	r3, r2
 802031c:	60cb      	str	r3, [r1, #12]
 802031e:	f3bf 8f4f 	dsb	sy
                            SCB_AIRCR_SYSRESETREQ_Msk    );         /* Keep priority group unchanged */
  __DSB();                                                          /* Ensure completion of memory access */

  for(;;)                                                           /* wait until reset */
  {
    __NOP();
 8020322:	bf00      	nop
  for(;;)                                                           /* wait until reset */
 8020324:	e7fd      	b.n	8020322 <__NVIC_SystemReset+0x16>
 8020326:	bf00      	nop
 8020328:	e000ed00 	.word	0xe000ed00
 802032c:	05fa0004 	.word	0x05fa0004

08020330 <CanCalculateBitTimingConfig>:
**
****************************************************************************************/
static unsigned char CanCalculateBitTimingConfig(unsigned long const baud,
                                                 tCanPeriphParams const * periph_params,
                                                 tCanBitTimingConfig * bittiming_config)
{
 8020330:	e92d 4ff0 	stmdb	sp!, {r4, r5, r6, r7, r8, r9, sl, fp, lr}
  unsigned short tseg1, tseg2;
  unsigned short prescaler;
  unsigned char  samplePoint;

  /* only continue with valid parameters. */
  if ( (baud >= 10000UL) && (baud <= 8000000UL) && (periph_params != NULL) &&
 8020334:	4b46      	ldr	r3, [pc, #280]	@ (8020450 <CanCalculateBitTimingConfig+0x120>)
 8020336:	4403      	add	r3, r0
 8020338:	4c46      	ldr	r4, [pc, #280]	@ (8020454 <CanCalculateBitTimingConfig+0x124>)
 802033a:	42a3      	cmp	r3, r4
 802033c:	f200 8081 	bhi.w	8020442 <CanCalculateBitTimingConfig+0x112>
       (bittiming_config != NULL) )
 8020340:	1e13      	subs	r3, r2, #0
 8020342:	bf18      	it	ne
 8020344:	2301      	movne	r3, #1
  if ( (baud >= 10000UL) && (baud <= 8000000UL) && (periph_params != NULL) &&
 8020346:	2900      	cmp	r1, #0
 8020348:	d07e      	beq.n	8020448 <CanCalculateBitTimingConfig+0x118>
 802034a:	2b00      	cmp	r3, #0
 802034c:	d07c      	beq.n	8020448 <CanCalculateBitTimingConfig+0x118>
  {
    /* calculate minimum and maximum possible time quanta per bit. remember that the
     * bittime in time quanta is 1 (sync) + tseg1 + tseg2.
     */
    bitTqMin = 1U + periph_params->tseg1_min + periph_params->tseg2_min;
 802034e:	890d      	ldrh	r5, [r1, #8]
 8020350:	898f      	ldrh	r7, [r1, #12]
 8020352:	eb05 0c07 	add.w	ip, r5, r7
 8020356:	fa1f fc8c 	uxth.w	ip, ip
 802035a:	f10c 0c01 	add.w	ip, ip, #1
 802035e:	fa1f fc8c 	uxth.w	ip, ip
    bitTqMax = 1U + periph_params->tseg1_max + periph_params->tseg2_max;
 8020362:	894e      	ldrh	r6, [r1, #10]
 8020364:	f8b1 800e 	ldrh.w	r8, [r1, #14]
 8020368:	eb06 0e08 	add.w	lr, r6, r8
 802036c:	fa1f fe8e 	uxth.w	lr, lr
 8020370:	f10e 0e01 	add.w	lr, lr, #1
 8020374:	fa1f fe8e 	uxth.w	lr, lr
     * in a time quanta per bit that is in the range bitTqMin .. bitTqMax. note that
     * looping through the prescalers low to high is important, because a lower prescaler
     * would result in a large number of time quanta per bit. This in turns gives you
     * more flexibility for setting the a bit's sample point.
     */
    for (prescaler = periph_params->prescaler_min;
 8020378:	888b      	ldrh	r3, [r1, #4]
 802037a:	e004      	b.n	8020386 <CanCalculateBitTimingConfig+0x56>
               * make sure SJW is > 0.
               */
              bittiming_config->sjw = bittiming_config->tseg2 / 2U;
              if (bittiming_config->sjw == 0U)
              {
                bittiming_config->sjw = 1U;
 802037c:	2001      	movs	r0, #1
 802037e:	80d0      	strh	r0, [r2, #6]
 8020380:	e060      	b.n	8020444 <CanCalculateBitTimingConfig+0x114>
         prescaler <= periph_params->prescaler_max; prescaler++)
 8020382:	3301      	adds	r3, #1
 8020384:	b29b      	uxth	r3, r3
 8020386:	88cc      	ldrh	r4, [r1, #6]
 8020388:	429c      	cmp	r4, r3
 802038a:	d358      	bcc.n	802043e <CanCalculateBitTimingConfig+0x10e>
      if (periph_params->base_freq < (baud * bitTqMin))
 802038c:	680c      	ldr	r4, [r1, #0]
 802038e:	fb00 f90c 	mul.w	r9, r0, ip
 8020392:	454c      	cmp	r4, r9
 8020394:	d35a      	bcc.n	802044c <CanCalculateBitTimingConfig+0x11c>
      if ( ((periph_params->base_freq % prescaler) == 0U) &&
 8020396:	fbb4 f9f3 	udiv	r9, r4, r3
 802039a:	fb03 4919 	mls	r9, r3, r9, r4
 802039e:	f1b9 0f00 	cmp.w	r9, #0
 80203a2:	d1ee      	bne.n	8020382 <CanCalculateBitTimingConfig+0x52>
           (((periph_params->base_freq / prescaler) % baud) == 0U) )
 80203a4:	fbb4 f4f3 	udiv	r4, r4, r3
 80203a8:	fbb4 f9f0 	udiv	r9, r4, r0
 80203ac:	fb00 4919 	mls	r9, r0, r9, r4
      if ( ((periph_params->base_freq % prescaler) == 0U) &&
 80203b0:	f1b9 0f00 	cmp.w	r9, #0
 80203b4:	d1e5      	bne.n	8020382 <CanCalculateBitTimingConfig+0x52>
        bitTq = (periph_params->base_freq / prescaler) / baud;
 80203b6:	fbb4 f4f0 	udiv	r4, r4, r0
 80203ba:	fa1f f984 	uxth.w	r9, r4
        if ( (bitTq >= bitTqMin) && (bitTq <= bitTqMax) )
 80203be:	45cc      	cmp	ip, r9
 80203c0:	bf8c      	ite	hi
 80203c2:	f04f 0a00 	movhi.w	sl, #0
 80203c6:	f04f 0a01 	movls.w	sl, #1
 80203ca:	45ce      	cmp	lr, r9
 80203cc:	bf38      	it	cc
 80203ce:	f04f 0a00 	movcc.w	sl, #0
 80203d2:	f1ba 0f00 	cmp.w	sl, #0
 80203d6:	d0d4      	beq.n	8020382 <CanCalculateBitTimingConfig+0x52>
          tseg2 = ((bitTq * 2U) + 9U) / 10U;
 80203d8:	464c      	mov	r4, r9
 80203da:	ea4f 0a49 	mov.w	sl, r9, lsl #1
 80203de:	f10a 0a09 	add.w	sl, sl, #9
 80203e2:	f8df b074 	ldr.w	fp, [pc, #116]	@ 8020458 <CanCalculateBitTimingConfig+0x128>
 80203e6:	fbab ab0a 	umull	sl, fp, fp, sl
 80203ea:	ea4f 0adb 	mov.w	sl, fp, lsr #3
          tseg1 = bitTq - tseg2 - 1;
 80203ee:	eba9 09db 	sub.w	r9, r9, fp, lsr #3
 80203f2:	fa1f f989 	uxth.w	r9, r9
 80203f6:	f109 39ff 	add.w	r9, r9, #4294967295
 80203fa:	fa1f f989 	uxth.w	r9, r9
          if ( (tseg1 >= periph_params->tseg1_min) &&
 80203fe:	454d      	cmp	r5, r9
 8020400:	d8bf      	bhi.n	8020382 <CanCalculateBitTimingConfig+0x52>
 8020402:	454e      	cmp	r6, r9
 8020404:	d3bd      	bcc.n	8020382 <CanCalculateBitTimingConfig+0x52>
               (tseg1 <= periph_params->tseg1_max) &&
 8020406:	4557      	cmp	r7, sl
 8020408:	d8bb      	bhi.n	8020382 <CanCalculateBitTimingConfig+0x52>
               (tseg2 >= periph_params->tseg2_min) &&
 802040a:	45d0      	cmp	r8, sl
 802040c:	d3b9      	bcc.n	8020382 <CanCalculateBitTimingConfig+0x52>
            samplePoint = (unsigned char)(((1U + tseg1) * 100UL) / bitTq);
 802040e:	f04f 0b64 	mov.w	fp, #100	@ 0x64
 8020412:	fb09 bb0b 	mla	fp, r9, fp, fp
 8020416:	fbbb f4f4 	udiv	r4, fp, r4
 802041a:	b2e4      	uxtb	r4, r4
            if ( (samplePoint >= 65U) && (samplePoint <= 80U) )
 802041c:	3c41      	subs	r4, #65	@ 0x41
 802041e:	b2e4      	uxtb	r4, r4
 8020420:	2c0f      	cmp	r4, #15
 8020422:	d8ae      	bhi.n	8020382 <CanCalculateBitTimingConfig+0x52>
              bittiming_config->prescaler = prescaler;
 8020424:	8013      	strh	r3, [r2, #0]
              bittiming_config->tseg1 = tseg1;
 8020426:	f8a2 9002 	strh.w	r9, [r2, #2]
              bittiming_config->tseg2 = tseg2;
 802042a:	f8a2 a004 	strh.w	sl, [r2, #4]
              bittiming_config->sjw = bittiming_config->tseg2 / 2U;
 802042e:	ea4f 035a 	mov.w	r3, sl, lsr #1
 8020432:	80d3      	strh	r3, [r2, #6]
              if (bittiming_config->sjw == 0U)
 8020434:	f1ba 0f01 	cmp.w	sl, #1
 8020438:	d9a0      	bls.n	802037c <CanCalculateBitTimingConfig+0x4c>
              }
              /* set the result to success. */
              result = 1U;
 802043a:	2001      	movs	r0, #1
 802043c:	e002      	b.n	8020444 <CanCalculateBitTimingConfig+0x114>
  unsigned char  result = 0U;
 802043e:	2000      	movs	r0, #0
 8020440:	e000      	b.n	8020444 <CanCalculateBitTimingConfig+0x114>
 8020442:	2000      	movs	r0, #0
    }
  }

  /* give the result back to the caller. */
  return result;
} /*** end of CanCalculateBitTimingConfig ***/
 8020444:	e8bd 8ff0 	ldmia.w	sp!, {r4, r5, r6, r7, r8, r9, sl, fp, pc}
  unsigned char  result = 0U;
 8020448:	2000      	movs	r0, #0
 802044a:	e7fb      	b.n	8020444 <CanCalculateBitTimingConfig+0x114>
 802044c:	2000      	movs	r0, #0
 802044e:	e7f9      	b.n	8020444 <CanCalculateBitTimingConfig+0x114>
 8020450:	ffffd8f0 	.word	0xffffd8f0
 8020454:	0079eaf0 	.word	0x0079eaf0
 8020458:	cccccccd 	.word	0xcccccccd

0802045c <BootComCanInit>:
**            recommended.
** \return    none.
**
****************************************************************************************/
static void BootComCanInit(void)
{
 802045c:	b5f0      	push	{r4, r5, r6, r7, lr}
 802045e:	b091      	sub	sp, #68	@ 0x44
  unsigned long       rxMsgId = BOOT_COM_CAN_RX_MSG_ID;
  FDCAN_FilterTypeDef filterConfig;
  tCanPeriphParams    periphParams;
  tCanBitTimingConfig bittimingConfig = { 0 };
 8020460:	af02      	add	r7, sp, #8
 8020462:	2500      	movs	r5, #0
 8020464:	9502      	str	r5, [sp, #8]
 8020466:	9503      	str	r5, [sp, #12]
  tCanBitTimingConfig bittimingConfigBRS = { 0 };
#endif
  unsigned long       fifoElementDataSize = FDCAN_DATA_BYTES_8;

  /* set the CAN controller channel, which is needed by HAL_FDCAN_MspInit(). */
  canHandle.Instance = FDCAN1;
 8020468:	4c31      	ldr	r4, [pc, #196]	@ (8020530 <BootComCanInit+0xd4>)
 802046a:	4b32      	ldr	r3, [pc, #200]	@ (8020534 <BootComCanInit+0xd8>)
 802046c:	6023      	str	r3, [r4, #0]
   * done before calling HAL_FDCAN_Init(). explicitly calling HAL_FDCAN_MspInit() here
   * one extra time works around this chicken and egg type problem. when CubeMX is not
   * used in a project and therefore HAL_FDCAN_MspInit() is not generated, it still works
   * because the weak HAL_FDCAN_MspInit() is then called.
   */
  HAL_FDCAN_MspInit(&canHandle);
 802046e:	4620      	mov	r0, r4
 8020470:	f000 fc7e 	bl	8020d70 <HAL_FDCAN_MspInit>
                                      &bittimingConfigBRS);
  }
#endif

  /* store CAN peripheral parameters related to the nominal bittiming configuration. */
  periphParams.base_freq = HAL_RCCEx_GetPeriphCLKFreq(RCC_PERIPHCLK_FDCAN);
 8020474:	f44f 4000 	mov.w	r0, #32768	@ 0x8000
 8020478:	2100      	movs	r1, #0
 802047a:	f004 fa5f 	bl	802493c <HAL_RCCEx_GetPeriphCLKFreq>
 802047e:	9004      	str	r0, [sp, #16]
  periphParams.prescaler_min = 1U;
 8020480:	2601      	movs	r6, #1
 8020482:	f8ad 6014 	strh.w	r6, [sp, #20]
  periphParams.prescaler_max = 512U;
 8020486:	f44f 7300 	mov.w	r3, #512	@ 0x200
 802048a:	f8ad 3016 	strh.w	r3, [sp, #22]
  periphParams.tseg1_min = 1U;
 802048e:	f8ad 6018 	strh.w	r6, [sp, #24]
  periphParams.tseg1_max = 256U;
 8020492:	f44f 7380 	mov.w	r3, #256	@ 0x100
 8020496:	f8ad 301a 	strh.w	r3, [sp, #26]
  periphParams.tseg2_min = 1U;
 802049a:	f8ad 601c 	strh.w	r6, [sp, #28]
  periphParams.tseg2_max = 128U;
 802049e:	2380      	movs	r3, #128	@ 0x80
 80204a0:	f8ad 301e 	strh.w	r3, [sp, #30]
  /* attempt to find a matching nominal bittiming configuration. */
  (void)CanCalculateBitTimingConfig(BOOT_COM_CAN_BAUDRATE, &periphParams,
 80204a4:	463a      	mov	r2, r7
 80204a6:	a904      	add	r1, sp, #16
 80204a8:	4823      	ldr	r0, [pc, #140]	@ (8020538 <BootComCanInit+0xdc>)
 80204aa:	f7ff ff41 	bl	8020330 <CanCalculateBitTimingConfig>
                                    &bittimingConfig);

  /* set the CAN controller configuration. */
  canHandle.Init.MessageRAMOffset = 0;
 80204ae:	6365      	str	r5, [r4, #52]	@ 0x34
  canHandle.Init.FrameFormat = FDCAN_FRAME_CLASSIC;
 80204b0:	60a5      	str	r5, [r4, #8]
  canHandle.Init.Mode = FDCAN_MODE_NORMAL;
 80204b2:	60e5      	str	r5, [r4, #12]
  canHandle.Init.AutoRetransmission = ENABLE;
 80204b4:	7426      	strb	r6, [r4, #16]
  canHandle.Init.TransmitPause = ENABLE;
 80204b6:	7466      	strb	r6, [r4, #17]
  canHandle.Init.ProtocolException = DISABLE;
 80204b8:	74a5      	strb	r5, [r4, #18]
  canHandle.Init.NominalPrescaler = bittimingConfig.prescaler;
 80204ba:	f8bd 3008 	ldrh.w	r3, [sp, #8]
 80204be:	6163      	str	r3, [r4, #20]
  canHandle.Init.NominalTimeSeg1 = bittimingConfig.tseg1;
 80204c0:	f8bd 300a 	ldrh.w	r3, [sp, #10]
 80204c4:	61e3      	str	r3, [r4, #28]
  canHandle.Init.NominalTimeSeg2 = bittimingConfig.tseg2;
 80204c6:	f8bd 300c 	ldrh.w	r3, [sp, #12]
 80204ca:	6223      	str	r3, [r4, #32]
  canHandle.Init.NominalSyncJumpWidth = bittimingConfig.sjw;
 80204cc:	f8bd 300e 	ldrh.w	r3, [sp, #14]
 80204d0:	61a3      	str	r3, [r4, #24]
  canHandle.Init.DataPrescaler = 1;
 80204d2:	6266      	str	r6, [r4, #36]	@ 0x24
  canHandle.Init.DataSyncJumpWidth = 1;
 80204d4:	62a6      	str	r6, [r4, #40]	@ 0x28
  canHandle.Init.DataTimeSeg1 = 1;
 80204d6:	62e6      	str	r6, [r4, #44]	@ 0x2c
  canHandle.Init.DataTimeSeg2 = 1;
 80204d8:	6326      	str	r6, [r4, #48]	@ 0x30
  }
#endif
  /* does the message to be received have a standard 11-bit CAN identifier? */
  if ((rxMsgId & 0x80000000) == 0)
  {
    canHandle.Init.StdFiltersNbr = 1;
 80204da:	63a6      	str	r6, [r4, #56]	@ 0x38
    canHandle.Init.ExtFiltersNbr = 0;
 80204dc:	63e5      	str	r5, [r4, #60]	@ 0x3c
  {
    canHandle.Init.StdFiltersNbr = 0;
    canHandle.Init.ExtFiltersNbr = 1;
  }
  /* only reception FIFO 0 is used. */
  canHandle.Init.RxFifo0ElmtsNbr = 1;
 80204de:	6426      	str	r6, [r4, #64]	@ 0x40
  canHandle.Init.RxFifo0ElmtSize = fifoElementDataSize;
 80204e0:	2304      	movs	r3, #4
 80204e2:	6463      	str	r3, [r4, #68]	@ 0x44
  canHandle.Init.RxFifo1ElmtsNbr = 0;
 80204e4:	64a5      	str	r5, [r4, #72]	@ 0x48
  canHandle.Init.RxFifo1ElmtSize = fifoElementDataSize;
 80204e6:	64e3      	str	r3, [r4, #76]	@ 0x4c
  canHandle.Init.RxBuffersNbr = 0;
 80204e8:	6525      	str	r5, [r4, #80]	@ 0x50
  canHandle.Init.RxBufferSize = fifoElementDataSize;
 80204ea:	6563      	str	r3, [r4, #84]	@ 0x54
  /* no transmit buffer is needed. transmit FIFO is not used. */
  canHandle.Init.TxEventsNbr = 0;
 80204ec:	65a5      	str	r5, [r4, #88]	@ 0x58
  canHandle.Init.TxBuffersNbr = 0;
 80204ee:	65e5      	str	r5, [r4, #92]	@ 0x5c
  canHandle.Init.TxFifoQueueElmtsNbr = 0;
 80204f0:	6625      	str	r5, [r4, #96]	@ 0x60
  canHandle.Init.TxFifoQueueMode = FDCAN_TX_FIFO_OPERATION;
 80204f2:	6665      	str	r5, [r4, #100]	@ 0x64
  canHandle.Init.TxElmtSize = fifoElementDataSize;
 80204f4:	66a3      	str	r3, [r4, #104]	@ 0x68
  /* initialize the CAN controller. this only fails if the CAN controller hardware is
   * faulty. no need to evaluate the return value as there is nothing we can do about
   * a faulty CAN controller.
   */
  (void)HAL_FDCAN_Init(&canHandle);
 80204f6:	4620      	mov	r0, r4
 80204f8:	f001 fecc 	bl	8022294 <HAL_FDCAN_Init>
   * always returns HAL_OK as long as the CAN controller is initialized, so no need to
   * evaluate the return value.
   */
  if ((rxMsgId & 0x80000000) == 0)
  {
    filterConfig.IdType = FDCAN_STANDARD_ID;
 80204fc:	9508      	str	r5, [sp, #32]
  {
    filterConfig.IdType = FDCAN_EXTENDED_ID;
    /* negate the ID-type bit */
    rxMsgId &= ~0x80000000;
  }
  filterConfig.FilterIndex = 0;
 80204fe:	9509      	str	r5, [sp, #36]	@ 0x24
  filterConfig.FilterType = FDCAN_FILTER_DUAL;
 8020500:	960a      	str	r6, [sp, #40]	@ 0x28
  filterConfig.FilterConfig = FDCAN_FILTER_TO_RXFIFO0;
 8020502:	960b      	str	r6, [sp, #44]	@ 0x2c
  filterConfig.FilterID1 = rxMsgId;
 8020504:	f240 6367 	movw	r3, #1639	@ 0x667
 8020508:	930c      	str	r3, [sp, #48]	@ 0x30
  filterConfig.FilterID2 = rxMsgId;
 802050a:	930d      	str	r3, [sp, #52]	@ 0x34
  filterConfig.RxBufferIndex = 0;
 802050c:	950e      	str	r5, [sp, #56]	@ 0x38
  (void)HAL_FDCAN_ConfigFilter(&canHandle, &filterConfig);
 802050e:	a908      	add	r1, sp, #32
 8020510:	4620      	mov	r0, r4
 8020512:	f002 f809 	bl	8022528 <HAL_FDCAN_ConfigFilter>

  /* configure global filter to reject all non-matching frames. */
  HAL_FDCAN_ConfigGlobalFilter(&canHandle, FDCAN_REJECT, FDCAN_REJECT, 
 8020516:	9600      	str	r6, [sp, #0]
 8020518:	4633      	mov	r3, r6
 802051a:	2202      	movs	r2, #2
 802051c:	4611      	mov	r1, r2
 802051e:	4620      	mov	r0, r4
 8020520:	f002 f847 	bl	80225b2 <HAL_FDCAN_ConfigGlobalFilter>
  }
#endif

  /* start the CAN peripheral. no need to evaluate the return value as there is nothing
   * we can do about a faulty CAN controller. */
  (void)HAL_FDCAN_Start(&canHandle);
 8020524:	4620      	mov	r0, r4
 8020526:	f002 f85d 	bl	80225e4 <HAL_FDCAN_Start>
} /*** end of BootComCanInit ***/
 802052a:	b011      	add	sp, #68	@ 0x44
 802052c:	bdf0      	pop	{r4, r5, r6, r7, pc}
 802052e:	bf00      	nop
 8020530:	24000080 	.word	0x24000080
 8020534:	4000a000 	.word	0x4000a000
 8020538:	0007a120 	.word	0x0007a120

0802053c <BootComInit>:
{
 802053c:	b508      	push	{r3, lr}
  BootComCanInit();
 802053e:	f7ff ff8d 	bl	802045c <BootComCanInit>
} /*** end of BootComInit ***/
 8020542:	bd08      	pop	{r3, pc}

08020544 <BootActivate>:
{
 8020544:	b508      	push	{r3, lr}
  NVIC_SystemReset();
 8020546:	f7ff fee1 	bl	802030c <__NVIC_SystemReset>
	...

0802054c <BootComCanCheckActivationRequest>:
**            bootloader should be activated and, if so, activates it.
** \return    none.
**
****************************************************************************************/
static void BootComCanCheckActivationRequest(void)
{
 802054c:	b500      	push	{lr}
 802054e:	b08d      	sub	sp, #52	@ 0x34
#endif
  unsigned char rxMsgLen;
  HAL_StatusTypeDef rxStatus = HAL_ERROR;

  /* poll for received CAN messages that await processing. */
  if (HAL_FDCAN_GetRxFifoFillLevel(&canHandle, FDCAN_RX_FIFO0) > 0)
 8020550:	2140      	movs	r1, #64	@ 0x40
 8020552:	4810      	ldr	r0, [pc, #64]	@ (8020594 <BootComCanCheckActivationRequest+0x48>)
 8020554:	f002 f956 	bl	8022804 <HAL_FDCAN_GetRxFifoFillLevel>
 8020558:	b908      	cbnz	r0, 802055e <BootComCanCheckActivationRequest+0x12>
        /* connection request received so start the bootloader */
        BootActivate();
      }
    }
  }
} /*** end of BootComCanCheckActivationRequest ***/
 802055a:	b00d      	add	sp, #52	@ 0x34
 802055c:	bd00      	pop	{pc}
    rxStatus = HAL_FDCAN_GetRxMessage(&canHandle, FDCAN_RX_FIFO0, &rxMsgHeader,
 802055e:	466b      	mov	r3, sp
 8020560:	aa02      	add	r2, sp, #8
 8020562:	2140      	movs	r1, #64	@ 0x40
 8020564:	480b      	ldr	r0, [pc, #44]	@ (8020594 <BootComCanCheckActivationRequest+0x48>)
 8020566:	f002 f857 	bl	8022618 <HAL_FDCAN_GetRxMessage>
  if (rxStatus == HAL_OK)
 802056a:	2800      	cmp	r0, #0
 802056c:	d1f5      	bne.n	802055a <BootComCanCheckActivationRequest+0xe>
      if ( (rxMsgHeader.Identifier == rxMsgId) &&
 802056e:	9a02      	ldr	r2, [sp, #8]
 8020570:	f240 6367 	movw	r3, #1639	@ 0x667
 8020574:	429a      	cmp	r2, r3
 8020576:	d1f0      	bne.n	802055a <BootComCanCheckActivationRequest+0xe>
           (rxMsgHeader.IdType == FDCAN_STANDARD_ID) )
 8020578:	9b03      	ldr	r3, [sp, #12]
      if ( (rxMsgHeader.Identifier == rxMsgId) &&
 802057a:	2b00      	cmp	r3, #0
 802057c:	d1ed      	bne.n	802055a <BootComCanCheckActivationRequest+0xe>
      rxMsgLen = (unsigned char)(rxMsgHeader.DataLength);
 802057e:	f89d 2014 	ldrb.w	r2, [sp, #20]
      if ((rxMsgData[0] == 0xff) && (rxMsgLen == 2))
 8020582:	f89d 3000 	ldrb.w	r3, [sp]
 8020586:	2bff      	cmp	r3, #255	@ 0xff
 8020588:	d1e7      	bne.n	802055a <BootComCanCheckActivationRequest+0xe>
 802058a:	2a02      	cmp	r2, #2
 802058c:	d1e5      	bne.n	802055a <BootComCanCheckActivationRequest+0xe>
        BootActivate();
 802058e:	f7ff ffd9 	bl	8020544 <BootActivate>
 8020592:	bf00      	nop
 8020594:	24000080 	.word	0x24000080

08020598 <BootComCheckActivationRequest>:
{
 8020598:	b508      	push	{r3, lr}
  BootComCanCheckActivationRequest();
 802059a:	f7ff ffd7 	bl	802054c <BootComCanCheckActivationRequest>
} /*** end of BootComCheckActivationRequest ***/
 802059e:	bd08      	pop	{r3, pc}

080205a0 <LedInit>:
** \brief     Initializes the LED. 
** \return    none.
**
****************************************************************************************/
void LedInit(void)
{
 80205a0:	b508      	push	{r3, lr}
  /* Note that the initialization of the LED GPIO pin is done in HAL_MspInit(). All that
   * is left to do here is to make sure the LED is turned off after initialization.
   */
  HAL_GPIO_WritePin(GPIOB, GPIO_PIN_7, GPIO_PIN_RESET);
 80205a2:	2200      	movs	r2, #0
 80205a4:	2180      	movs	r1, #128	@ 0x80
 80205a6:	4802      	ldr	r0, [pc, #8]	@ (80205b0 <LedInit+0x10>)
 80205a8:	f002 fa50 	bl	8022a4c <HAL_GPIO_WritePin>
} /*** end of LedInit ***/
 80205ac:	bd08      	pop	{r3, pc}
 80205ae:	bf00      	nop
 80205b0:	58020400 	.word	0x58020400

080205b4 <LedToggle>:
** \brief     Toggles the LED at a fixed time interval.
** \return    none.
**
****************************************************************************************/
void LedToggle(void)
{
 80205b4:	b510      	push	{r4, lr}
  static unsigned char led_toggle_state = 0;
  static unsigned long timer_counter_last = 0;
  unsigned long timer_counter_now;

  /* check if toggle interval time passed */
  timer_counter_now = TimerGet();
 80205b6:	f000 f9aa 	bl	802090e <TimerGet>
  if ( (timer_counter_now - timer_counter_last) < LED_TOGGLE_MS)
 80205ba:	4b0e      	ldr	r3, [pc, #56]	@ (80205f4 <LedToggle+0x40>)
 80205bc:	681b      	ldr	r3, [r3, #0]
 80205be:	1ac3      	subs	r3, r0, r3
 80205c0:	f5b3 7ffa 	cmp.w	r3, #500	@ 0x1f4
 80205c4:	d30c      	bcc.n	80205e0 <LedToggle+0x2c>
 80205c6:	4604      	mov	r4, r0
    /* not yet time to toggle */
    return;
  }

  /* determine toggle action */
  if (led_toggle_state == 0)
 80205c8:	4b0b      	ldr	r3, [pc, #44]	@ (80205f8 <LedToggle+0x44>)
 80205ca:	781b      	ldrb	r3, [r3, #0]
 80205cc:	b94b      	cbnz	r3, 80205e2 <LedToggle+0x2e>
  {
    led_toggle_state = 1;
 80205ce:	2201      	movs	r2, #1
 80205d0:	4b09      	ldr	r3, [pc, #36]	@ (80205f8 <LedToggle+0x44>)
 80205d2:	701a      	strb	r2, [r3, #0]
    /* turn the LED on */
    HAL_GPIO_WritePin(GPIOB, GPIO_PIN_7, GPIO_PIN_SET);
 80205d4:	2180      	movs	r1, #128	@ 0x80
 80205d6:	4809      	ldr	r0, [pc, #36]	@ (80205fc <LedToggle+0x48>)
 80205d8:	f002 fa38 	bl	8022a4c <HAL_GPIO_WritePin>
    /* turn the LED off */
    HAL_GPIO_WritePin(GPIOB, GPIO_PIN_7, GPIO_PIN_RESET);
  }

  /* store toggle time to determine next toggle interval */
  timer_counter_last = timer_counter_now;
 80205dc:	4b05      	ldr	r3, [pc, #20]	@ (80205f4 <LedToggle+0x40>)
 80205de:	601c      	str	r4, [r3, #0]
} /*** end of LedToggle ***/
 80205e0:	bd10      	pop	{r4, pc}
    led_toggle_state = 0;
 80205e2:	2200      	movs	r2, #0
 80205e4:	4b04      	ldr	r3, [pc, #16]	@ (80205f8 <LedToggle+0x44>)
 80205e6:	701a      	strb	r2, [r3, #0]
    HAL_GPIO_WritePin(GPIOB, GPIO_PIN_7, GPIO_PIN_RESET);
 80205e8:	2180      	movs	r1, #128	@ 0x80
 80205ea:	4804      	ldr	r0, [pc, #16]	@ (80205fc <LedToggle+0x48>)
 80205ec:	f002 fa2e 	bl	8022a4c <HAL_GPIO_WritePin>
 80205f0:	e7f4      	b.n	80205dc <LedToggle+0x28>
 80205f2:	bf00      	nop
 80205f4:	24000124 	.word	0x24000124
 80205f8:	24000120 	.word	0x24000120
 80205fc:	58020400 	.word	0x58020400

08020600 <NetInit>:
** \brief     Initializes the TCP/IP network communication interface.
** \return    none.
**
****************************************************************************************/
void NetInit(void)
{
 8020600:	b510      	push	{r4, lr}
 8020602:	b082      	sub	sp, #8
  uip_ipaddr_t ipaddr;

  /* initialize the network device */
  netdev_init();
 8020604:	f004 fe90 	bl	8025328 <netdev_init>
  /* initialize the timer variables */
  periodicTimerTimeOut = TimerGet() + NET_UIP_PERIODIC_TIMER_MS;
 8020608:	f000 f981 	bl	802090e <TimerGet>
 802060c:	f500 70fa 	add.w	r0, r0, #500	@ 0x1f4
 8020610:	4b15      	ldr	r3, [pc, #84]	@ (8020668 <NetInit+0x68>)
 8020612:	6018      	str	r0, [r3, #0]
  ARPTimerTimeOut = TimerGet() + NET_UIP_ARP_TIMER_MS;
 8020614:	f000 f97b 	bl	802090e <TimerGet>
 8020618:	f242 7310 	movw	r3, #10000	@ 0x2710
 802061c:	4403      	add	r3, r0
 802061e:	4a13      	ldr	r2, [pc, #76]	@ (802066c <NetInit+0x6c>)
 8020620:	6013      	str	r3, [r2, #0]
  /* initialize the uIP TCP/IP stack. */
  uip_init();
 8020622:	f005 faaf 	bl	8025b84 <uip_init>
  uip_ipaddr(ipaddr, BOOT_COM_NET_GATEWAY0, BOOT_COM_NET_GATEWAY1, BOOT_COM_NET_GATEWAY2,
             BOOT_COM_NET_GATEWAY3);
  uip_setdraddr(ipaddr);
#else
  /* set the IP address */
  uip_ipaddr(ipaddr, 0, 0, 0, 0);
 8020626:	2300      	movs	r3, #0
 8020628:	f8ad 3004 	strh.w	r3, [sp, #4]
 802062c:	f8ad 3006 	strh.w	r3, [sp, #6]
  uip_sethostaddr(ipaddr);
 8020630:	4a0f      	ldr	r2, [pc, #60]	@ (8020670 <NetInit+0x70>)
 8020632:	8013      	strh	r3, [r2, #0]
 8020634:	8053      	strh	r3, [r2, #2]
  /* set the network mask */
  uip_ipaddr(ipaddr, 0, 0, 0, 0);
  uip_setnetmask(ipaddr);
 8020636:	4a0f      	ldr	r2, [pc, #60]	@ (8020674 <NetInit+0x74>)
 8020638:	8013      	strh	r3, [r2, #0]
 802063a:	8053      	strh	r3, [r2, #2]
  /* set the gateway address */
  uip_ipaddr(ipaddr, 0, 0, 0, 0);
  uip_setdraddr(ipaddr);
 802063c:	4a0e      	ldr	r2, [pc, #56]	@ (8020678 <NetInit+0x78>)
 802063e:	8013      	strh	r3, [r2, #0]
 8020640:	8053      	strh	r3, [r2, #2]
#endif
  /* start listening on the configured port for XCP transfers on TCP/IP */
  uip_listen(HTONS(BOOT_COM_NET_PORT));
 8020642:	f64e 0003 	movw	r0, #59395	@ 0xe803
 8020646:	f005 fadd 	bl	8025c04 <uip_listen>
  /* initialize the MAC and set the MAC address */
  netdev_init_mac();  
 802064a:	f004 fecf 	bl	80253ec <netdev_init_mac>

#if (BOOT_COM_NET_DHCP_ENABLE > 0)
    /* initialize the DHCP client application and send the initial request. */
    netdev_get_mac(&macAddress.addr[0]);
 802064e:	4c0b      	ldr	r4, [pc, #44]	@ (802067c <NetInit+0x7c>)
 8020650:	4620      	mov	r0, r4
 8020652:	f004 fedf 	bl	8025414 <netdev_get_mac>
    dhcpc_init(&macAddress.addr[0], 6);
 8020656:	2106      	movs	r1, #6
 8020658:	4620      	mov	r0, r4
 802065a:	f005 f8ab 	bl	80257b4 <dhcpc_init>
    dhcpc_request();
 802065e:	f005 f8c7 	bl	80257f0 <dhcpc_request>
#endif
} /*** end of NetInit ***/
 8020662:	b002      	add	sp, #8
 8020664:	bd10      	pop	{r4, pc}
 8020666:	bf00      	nop
 8020668:	24000134 	.word	0x24000134
 802066c:	24000130 	.word	0x24000130
 8020670:	240008e4 	.word	0x240008e4
 8020674:	240008dc 	.word	0x240008dc
 8020678:	240008e0 	.word	0x240008e0
 802067c:	24000128 	.word	0x24000128

08020680 <NetApp>:
**            be activated.
** \return    none.
**
****************************************************************************************/
void NetApp(void)
{
 8020680:	b508      	push	{r3, lr}
  unsigned char *newDataPtr;
  unsigned short newDataLen;

  if (uip_connected()) 
 8020682:	4b0c      	ldr	r3, [pc, #48]	@ (80206b4 <NetApp+0x34>)
 8020684:	781b      	ldrb	r3, [r3, #0]
 8020686:	f013 0f40 	tst.w	r3, #64	@ 0x40
 802068a:	d109      	bne.n	80206a0 <NetApp+0x20>
  {
    return;
  }

  if (uip_newdata()) 
 802068c:	f013 0f02 	tst.w	r3, #2
 8020690:	d006      	beq.n	80206a0 <NetApp+0x20>
  {
    /* a new XCP command was received. check if this is the connect command and in this
     * case activate the bootloader. with XCP on TCP/IP the first 4 bytes contain a 
     * counter value in which we are not really interested.
     */
    newDataPtr = uip_appdata;
 8020692:	4b09      	ldr	r3, [pc, #36]	@ (80206b8 <NetApp+0x38>)
 8020694:	681b      	ldr	r3, [r3, #0]
    newDataPtr += 4;
    newDataLen = uip_datalen() - 4;
 8020696:	4a09      	ldr	r2, [pc, #36]	@ (80206bc <NetApp+0x3c>)
 8020698:	8812      	ldrh	r2, [r2, #0]
    /* check if this was an XCP CONNECT command */
    if ((newDataPtr[0] == 0xff) && (newDataLen == 2))
 802069a:	791b      	ldrb	r3, [r3, #4]
 802069c:	2bff      	cmp	r3, #255	@ 0xff
 802069e:	d000      	beq.n	80206a2 <NetApp+0x22>
      SharedParamsWriteByIndex(0, 1);
      /* connection request received so start the bootloader */
      BootActivate();
    }
  }
} /*** end of NetApp ***/
 80206a0:	bd08      	pop	{r3, pc}
    if ((newDataPtr[0] == 0xff) && (newDataLen == 2))
 80206a2:	2a06      	cmp	r2, #6
 80206a4:	d1fc      	bne.n	80206a0 <NetApp+0x20>
      SharedParamsWriteByIndex(0, 1);
 80206a6:	2101      	movs	r1, #1
 80206a8:	2000      	movs	r0, #0
 80206aa:	f000 f919 	bl	80208e0 <SharedParamsWriteByIndex>
      BootActivate();
 80206ae:	f7ff ff49 	bl	8020544 <BootActivate>
 80206b2:	e7f5      	b.n	80206a0 <NetApp+0x20>
 80206b4:	240002d0 	.word	0x240002d0
 80206b8:	240002dc 	.word	0x240002dc
 80206bc:	240002d4 	.word	0x240002d4

080206c0 <NetTask>:
** \brief     Runs the TCP/IP server task.
** \return    none.
**
****************************************************************************************/
void NetTask(void)
{
 80206c0:	b510      	push	{r4, lr}
  unsigned long connection;
  unsigned long packetLen;
  
  /* check for an RX packet and read it. */
  packetLen = netdev_read();
 80206c2:	f004 feb7 	bl	8025434 <netdev_read>
  if (packetLen > 0)
 80206c6:	b9b0      	cbnz	r0, 80206f6 <NetTask+0x36>
      }
    }
  }

  /* process TCP/IP Periodic Timer here. */
  if (TimerGet() >= periodicTimerTimeOut)
 80206c8:	f000 f921 	bl	802090e <TimerGet>
 80206cc:	4b3a      	ldr	r3, [pc, #232]	@ (80207b8 <NetTask+0xf8>)
 80206ce:	681b      	ldr	r3, [r3, #0]
 80206d0:	4298      	cmp	r0, r3
 80206d2:	d309      	bcc.n	80206e8 <NetTask+0x28>
  {
    periodicTimerTimeOut += NET_UIP_PERIODIC_TIMER_MS;
 80206d4:	f503 73fa 	add.w	r3, r3, #500	@ 0x1f4
 80206d8:	4a37      	ldr	r2, [pc, #220]	@ (80207b8 <NetTask+0xf8>)
 80206da:	6013      	str	r3, [r2, #0]
    for (connection = 0; connection < UIP_CONNS; connection++)
 80206dc:	2400      	movs	r4, #0
 80206de:	2c00      	cmp	r4, #0
 80206e0:	d036      	beq.n	8020750 <NetTask+0x90>
        uip_len = 0;
      }
    }

#if UIP_UDP
    for (connection = 0; connection < UIP_UDP_CONNS; connection++)
 80206e2:	2400      	movs	r4, #0
 80206e4:	2c00      	cmp	r4, #0
 80206e6:	d04a      	beq.n	802077e <NetTask+0xbe>
    }
#endif
  }

  /* process ARP Timer here. */
  if (TimerGet() >= ARPTimerTimeOut)
 80206e8:	f000 f911 	bl	802090e <TimerGet>
 80206ec:	4b33      	ldr	r3, [pc, #204]	@ (80207bc <NetTask+0xfc>)
 80206ee:	681b      	ldr	r3, [r3, #0]
 80206f0:	4298      	cmp	r0, r3
 80206f2:	d259      	bcs.n	80207a8 <NetTask+0xe8>
  {
    ARPTimerTimeOut += NET_UIP_ARP_TIMER_MS;
    uip_arp_timer();
  }
} /*** end of NetServerTask ***/
 80206f4:	bd10      	pop	{r4, pc}
    uip_len = (unsigned short)packetLen;
 80206f6:	4a32      	ldr	r2, [pc, #200]	@ (80207c0 <NetTask+0x100>)
 80206f8:	8010      	strh	r0, [r2, #0]
    if (NET_UIP_HEADER_BUF->type == htons(UIP_ETHTYPE_IP))
 80206fa:	4b32      	ldr	r3, [pc, #200]	@ (80207c4 <NetTask+0x104>)
 80206fc:	899c      	ldrh	r4, [r3, #12]
 80206fe:	f44f 6000 	mov.w	r0, #2048	@ 0x800
 8020702:	f005 fa97 	bl	8025c34 <htons>
 8020706:	4284      	cmp	r4, r0
 8020708:	d013      	beq.n	8020732 <NetTask+0x72>
    else if (NET_UIP_HEADER_BUF->type == htons(UIP_ETHTYPE_ARP))
 802070a:	4b2e      	ldr	r3, [pc, #184]	@ (80207c4 <NetTask+0x104>)
 802070c:	899c      	ldrh	r4, [r3, #12]
 802070e:	f640 0006 	movw	r0, #2054	@ 0x806
 8020712:	f005 fa8f 	bl	8025c34 <htons>
 8020716:	4284      	cmp	r4, r0
 8020718:	d1d6      	bne.n	80206c8 <NetTask+0x8>
      uip_arp_arpin();
 802071a:	f006 f9f5 	bl	8026b08 <uip_arp_arpin>
      if (uip_len > 0)
 802071e:	4b28      	ldr	r3, [pc, #160]	@ (80207c0 <NetTask+0x100>)
 8020720:	881b      	ldrh	r3, [r3, #0]
 8020722:	2b00      	cmp	r3, #0
 8020724:	d0d0      	beq.n	80206c8 <NetTask+0x8>
        netdev_send();
 8020726:	f004 feb7 	bl	8025498 <netdev_send>
        uip_len = 0;
 802072a:	4b25      	ldr	r3, [pc, #148]	@ (80207c0 <NetTask+0x100>)
 802072c:	2200      	movs	r2, #0
 802072e:	801a      	strh	r2, [r3, #0]
 8020730:	e7ca      	b.n	80206c8 <NetTask+0x8>
      uip_input();
 8020732:	2001      	movs	r0, #1
 8020734:	f005 fab8 	bl	8025ca8 <uip_process>
      if (uip_len > 0)
 8020738:	4b21      	ldr	r3, [pc, #132]	@ (80207c0 <NetTask+0x100>)
 802073a:	881b      	ldrh	r3, [r3, #0]
 802073c:	2b00      	cmp	r3, #0
 802073e:	d0c3      	beq.n	80206c8 <NetTask+0x8>
        uip_arp_out();
 8020740:	f006 fa52 	bl	8026be8 <uip_arp_out>
        netdev_send();
 8020744:	f004 fea8 	bl	8025498 <netdev_send>
        uip_len = 0;
 8020748:	4b1d      	ldr	r3, [pc, #116]	@ (80207c0 <NetTask+0x100>)
 802074a:	2200      	movs	r2, #0
 802074c:	801a      	strh	r2, [r3, #0]
 802074e:	e7bb      	b.n	80206c8 <NetTask+0x8>
      uip_periodic(connection);
 8020750:	ebc4 1204 	rsb	r2, r4, r4, lsl #4
 8020754:	4b1c      	ldr	r3, [pc, #112]	@ (80207c8 <NetTask+0x108>)
 8020756:	eb03 0342 	add.w	r3, r3, r2, lsl #1
 802075a:	4a1c      	ldr	r2, [pc, #112]	@ (80207cc <NetTask+0x10c>)
 802075c:	6013      	str	r3, [r2, #0]
 802075e:	2002      	movs	r0, #2
 8020760:	f005 faa2 	bl	8025ca8 <uip_process>
      if (uip_len > 0)
 8020764:	4b16      	ldr	r3, [pc, #88]	@ (80207c0 <NetTask+0x100>)
 8020766:	881b      	ldrh	r3, [r3, #0]
 8020768:	b90b      	cbnz	r3, 802076e <NetTask+0xae>
    for (connection = 0; connection < UIP_CONNS; connection++)
 802076a:	3401      	adds	r4, #1
 802076c:	e7b7      	b.n	80206de <NetTask+0x1e>
        uip_arp_out();
 802076e:	f006 fa3b 	bl	8026be8 <uip_arp_out>
        netdev_send();
 8020772:	f004 fe91 	bl	8025498 <netdev_send>
        uip_len = 0;
 8020776:	4b12      	ldr	r3, [pc, #72]	@ (80207c0 <NetTask+0x100>)
 8020778:	2200      	movs	r2, #0
 802077a:	801a      	strh	r2, [r3, #0]
 802077c:	e7f5      	b.n	802076a <NetTask+0xaa>
      uip_udp_periodic(connection);
 802077e:	4b14      	ldr	r3, [pc, #80]	@ (80207d0 <NetTask+0x110>)
 8020780:	eb03 1384 	add.w	r3, r3, r4, lsl #6
 8020784:	4a13      	ldr	r2, [pc, #76]	@ (80207d4 <NetTask+0x114>)
 8020786:	6013      	str	r3, [r2, #0]
 8020788:	2005      	movs	r0, #5
 802078a:	f005 fa8d 	bl	8025ca8 <uip_process>
      if(uip_len > 0)
 802078e:	4b0c      	ldr	r3, [pc, #48]	@ (80207c0 <NetTask+0x100>)
 8020790:	881b      	ldrh	r3, [r3, #0]
 8020792:	b90b      	cbnz	r3, 8020798 <NetTask+0xd8>
    for (connection = 0; connection < UIP_UDP_CONNS; connection++)
 8020794:	3401      	adds	r4, #1
 8020796:	e7a5      	b.n	80206e4 <NetTask+0x24>
        uip_arp_out();
 8020798:	f006 fa26 	bl	8026be8 <uip_arp_out>
        netdev_send();
 802079c:	f004 fe7c 	bl	8025498 <netdev_send>
        uip_len = 0;
 80207a0:	4b07      	ldr	r3, [pc, #28]	@ (80207c0 <NetTask+0x100>)
 80207a2:	2200      	movs	r2, #0
 80207a4:	801a      	strh	r2, [r3, #0]
 80207a6:	e7f5      	b.n	8020794 <NetTask+0xd4>
    ARPTimerTimeOut += NET_UIP_ARP_TIMER_MS;
 80207a8:	f242 7210 	movw	r2, #10000	@ 0x2710
 80207ac:	441a      	add	r2, r3
 80207ae:	4b03      	ldr	r3, [pc, #12]	@ (80207bc <NetTask+0xfc>)
 80207b0:	601a      	str	r2, [r3, #0]
    uip_arp_timer();
 80207b2:	f006 f979 	bl	8026aa8 <uip_arp_timer>
} /*** end of NetServerTask ***/
 80207b6:	e79d      	b.n	80206f4 <NetTask+0x34>
 80207b8:	24000134 	.word	0x24000134
 80207bc:	24000130 	.word	0x24000130
 80207c0:	240002d4 	.word	0x240002d4
 80207c4:	240002e0 	.word	0x240002e0
 80207c8:	240002ac 	.word	0x240002ac
 80207cc:	240002cc 	.word	0x240002cc
 80207d0:	24000264 	.word	0x24000264
 80207d4:	240002a4 	.word	0x240002a4

080207d8 <SharedParamsCalculateChecksum>:
{
  uint16_t result = 0;
  uint32_t byteIdx;

  /* Add the identifier bytes to the checksum. */
  result += (uint8_t)sharedParamsBuffer.identifier;
 80207d8:	4b0c      	ldr	r3, [pc, #48]	@ (802080c <SharedParamsCalculateChecksum+0x34>)
 80207da:	681b      	ldr	r3, [r3, #0]
  result += (uint8_t)(sharedParamsBuffer.identifier >> 8u);
 80207dc:	f3c3 2207 	ubfx	r2, r3, #8, #8
 80207e0:	fa52 f283 	uxtab	r2, r2, r3
  result += (uint8_t)(sharedParamsBuffer.identifier >> 16u);
 80207e4:	f3c3 4007 	ubfx	r0, r3, #16, #8
 80207e8:	4410      	add	r0, r2
  result += (uint8_t)(sharedParamsBuffer.identifier >> 24u);
 80207ea:	0e1b      	lsrs	r3, r3, #24
 80207ec:	fa13 f080 	uxtah	r0, r3, r0
 80207f0:	b280      	uxth	r0, r0
  /* Loop through the parameter data array. */
  for (byteIdx=0; byteIdx<SHARED_PARAMS_CFG_BUFFER_DATA_LEN; byteIdx++)
 80207f2:	2300      	movs	r3, #0
 80207f4:	e005      	b.n	8020802 <SharedParamsCalculateChecksum+0x2a>
  {
    /* Add parameter data byte to the checksum. */
    result += (uint8_t)sharedParamsBuffer.data[byteIdx];
 80207f6:	4a05      	ldr	r2, [pc, #20]	@ (802080c <SharedParamsCalculateChecksum+0x34>)
 80207f8:	441a      	add	r2, r3
 80207fa:	7912      	ldrb	r2, [r2, #4]
 80207fc:	4410      	add	r0, r2
 80207fe:	b280      	uxth	r0, r0
  for (byteIdx=0; byteIdx<SHARED_PARAMS_CFG_BUFFER_DATA_LEN; byteIdx++)
 8020800:	3301      	adds	r3, #1
 8020802:	2b37      	cmp	r3, #55	@ 0x37
 8020804:	d9f7      	bls.n	80207f6 <SharedParamsCalculateChecksum+0x1e>
  }
  /* Determine one's complement. */
  result = ~result;
  /* Determine two's complement. */
  result += 1;
 8020806:	4240      	negs	r0, r0
  /* Give the result back to the caller. */
  return result;
} /*** end of SharedParamsCalculateChecksum ***/
 8020808:	b280      	uxth	r0, r0
 802080a:	4770      	bx	lr
 802080c:	24000000 	.word	0x24000000

08020810 <SharedParamsVerifyChecksum>:
{
 8020810:	b508      	push	{r3, lr}
  if (SharedParamsCalculateChecksum() == sharedParamsBuffer.checksum)
 8020812:	f7ff ffe1 	bl	80207d8 <SharedParamsCalculateChecksum>
 8020816:	4b04      	ldr	r3, [pc, #16]	@ (8020828 <SharedParamsVerifyChecksum+0x18>)
 8020818:	8f9b      	ldrh	r3, [r3, #60]	@ 0x3c
 802081a:	4298      	cmp	r0, r3
 802081c:	d001      	beq.n	8020822 <SharedParamsVerifyChecksum+0x12>
  bool result = false;
 802081e:	2000      	movs	r0, #0
} /*** end of SharedParamsVerifyChecksum ***/
 8020820:	bd08      	pop	{r3, pc}
    result = true;
 8020822:	2001      	movs	r0, #1
 8020824:	e7fc      	b.n	8020820 <SharedParamsVerifyChecksum+0x10>
 8020826:	bf00      	nop
 8020828:	24000000 	.word	0x24000000

0802082c <SharedParamsValidateBuffer>:
{
 802082c:	b508      	push	{r3, lr}
  if ( (sharedParamsBuffer.identifier == SHARED_PARAMS_BUFFER_ID) &&
 802082e:	4b05      	ldr	r3, [pc, #20]	@ (8020844 <SharedParamsValidateBuffer+0x18>)
 8020830:	681a      	ldr	r2, [r3, #0]
 8020832:	4b05      	ldr	r3, [pc, #20]	@ (8020848 <SharedParamsValidateBuffer+0x1c>)
 8020834:	429a      	cmp	r2, r3
 8020836:	d001      	beq.n	802083c <SharedParamsValidateBuffer+0x10>
  bool result = false;
 8020838:	2000      	movs	r0, #0
} /*** end of SharedParamsValitabeTable ***/
 802083a:	bd08      	pop	{r3, pc}
       (SharedParamsVerifyChecksum()) )
 802083c:	f7ff ffe8 	bl	8020810 <SharedParamsVerifyChecksum>
 8020840:	e7fb      	b.n	802083a <SharedParamsValidateBuffer+0xe>
 8020842:	bf00      	nop
 8020844:	24000000 	.word	0x24000000
 8020848:	ce42e7a2 	.word	0xce42e7a2

0802084c <SharedParamsFlushECC>:
**            this RAM area.
** \return    none.
**
****************************************************************************************/
static void SharedParamsFlushECC(void)
{
 802084c:	b084      	sub	sp, #16
  uint32_t addr  = (uint32_t)&sharedParamsBuffer;
 802084e:	4a12      	ldr	r2, [pc, #72]	@ (8020898 <SharedParamsFlushECC+0x4c>)
  uint8_t  bytes = sizeof(tSharedParamsBuffer);

  /* Check if accessing AXI SRAM => 64-bit words. */
  if((addr >= 0x24000000UL) && (addr < 0x24080000UL))
 8020850:	f102 435c 	add.w	r3, r2, #3690987520	@ 0xdc000000
 8020854:	f5b3 2f00 	cmp.w	r3, #524288	@ 0x80000
 8020858:	d210      	bcs.n	802087c <SharedParamsFlushECC+0x30>
  {
    volatile uint64_t   temp;
    volatile uint64_t * flush_ptr = (uint64_t *)(addr & 0xFFFFFFF8UL);
 802085a:	f022 0307 	bic.w	r3, r2, #7
    uint64_t          * end_ptr   = (uint64_t *)((addr+bytes) & 0xFFFFFFF8UL);
 802085e:	3240      	adds	r2, #64	@ 0x40
 8020860:	f022 0207 	bic.w	r2, r2, #7

    do
    {
      temp = *flush_ptr;
 8020864:	e9d3 0100 	ldrd	r0, r1, [r3]
 8020868:	e9cd 0102 	strd	r0, r1, [sp, #8]
      *flush_ptr = temp;
 802086c:	e9dd 0102 	ldrd	r0, r1, [sp, #8]
 8020870:	e8e3 0102 	strd	r0, r1, [r3], #8
      flush_ptr++;
    }
    while (flush_ptr != end_ptr);
 8020874:	429a      	cmp	r2, r3
 8020876:	d1f5      	bne.n	8020864 <SharedParamsFlushECC+0x18>
      *flush_ptr = temp;
      flush_ptr++;
    }
    while(flush_ptr != end_ptr);
  }
} /*** end of SharedParamsFlushECC ***/
 8020878:	b004      	add	sp, #16
 802087a:	4770      	bx	lr
    volatile uint32_t * flush_ptr = (uint32_t *)(addr & 0xFFFFFFFCUL);
 802087c:	f022 0303 	bic.w	r3, r2, #3
    uint32_t          * end_ptr   = (uint32_t *)((addr+bytes) & 0xFFFFFFFCUL);
 8020880:	3240      	adds	r2, #64	@ 0x40
 8020882:	f022 0203 	bic.w	r2, r2, #3
      temp = *flush_ptr;
 8020886:	6819      	ldr	r1, [r3, #0]
 8020888:	9101      	str	r1, [sp, #4]
      *flush_ptr = temp;
 802088a:	9901      	ldr	r1, [sp, #4]
 802088c:	f843 1b04 	str.w	r1, [r3], #4
    while(flush_ptr != end_ptr);
 8020890:	429a      	cmp	r2, r3
 8020892:	d1f8      	bne.n	8020886 <SharedParamsFlushECC+0x3a>
 8020894:	e7f0      	b.n	8020878 <SharedParamsFlushECC+0x2c>
 8020896:	bf00      	nop
 8020898:	24000000 	.word	0x24000000

0802089c <SharedParamsWriteChecksum>:
{
 802089c:	b508      	push	{r3, lr}
  sharedParamsBuffer.checksum = SharedParamsCalculateChecksum();
 802089e:	f7ff ff9b 	bl	80207d8 <SharedParamsCalculateChecksum>
 80208a2:	4b02      	ldr	r3, [pc, #8]	@ (80208ac <SharedParamsWriteChecksum+0x10>)
 80208a4:	8798      	strh	r0, [r3, #60]	@ 0x3c
  SharedParamsFlushECC();
 80208a6:	f7ff ffd1 	bl	802084c <SharedParamsFlushECC>
} /*** end of SharedParamsWriteChecksum ***/
 80208aa:	bd08      	pop	{r3, pc}
 80208ac:	24000000 	.word	0x24000000

080208b0 <SharedParamsInit>:
{
 80208b0:	b508      	push	{r3, lr}
  if (!SharedParamsValidateBuffer())
 80208b2:	f7ff ffbb 	bl	802082c <SharedParamsValidateBuffer>
 80208b6:	b968      	cbnz	r0, 80208d4 <SharedParamsInit+0x24>
    sharedParamsBuffer.identifier = SHARED_PARAMS_BUFFER_ID;
 80208b8:	4b07      	ldr	r3, [pc, #28]	@ (80208d8 <SharedParamsInit+0x28>)
 80208ba:	4a08      	ldr	r2, [pc, #32]	@ (80208dc <SharedParamsInit+0x2c>)
 80208bc:	601a      	str	r2, [r3, #0]
    for (byteIdx=0; byteIdx < SHARED_PARAMS_CFG_BUFFER_DATA_LEN; byteIdx++)
 80208be:	2300      	movs	r3, #0
 80208c0:	e004      	b.n	80208cc <SharedParamsInit+0x1c>
      sharedParamsBuffer.data[byteIdx] = 0;
 80208c2:	4a05      	ldr	r2, [pc, #20]	@ (80208d8 <SharedParamsInit+0x28>)
 80208c4:	441a      	add	r2, r3
 80208c6:	2100      	movs	r1, #0
 80208c8:	7111      	strb	r1, [r2, #4]
    for (byteIdx=0; byteIdx < SHARED_PARAMS_CFG_BUFFER_DATA_LEN; byteIdx++)
 80208ca:	3301      	adds	r3, #1
 80208cc:	2b37      	cmp	r3, #55	@ 0x37
 80208ce:	d9f8      	bls.n	80208c2 <SharedParamsInit+0x12>
    SharedParamsWriteChecksum();
 80208d0:	f7ff ffe4 	bl	802089c <SharedParamsWriteChecksum>
} /*** end of SharedParamsInit ***/
 80208d4:	bd08      	pop	{r3, pc}
 80208d6:	bf00      	nop
 80208d8:	24000000 	.word	0x24000000
 80208dc:	ce42e7a2 	.word	0xce42e7a2

080208e0 <SharedParamsWriteByIndex>:
{
 80208e0:	b570      	push	{r4, r5, r6, lr}
 80208e2:	4604      	mov	r4, r0
 80208e4:	460d      	mov	r5, r1
  if ( (SharedParamsValidateBuffer()) &&
 80208e6:	f7ff ffa1 	bl	802082c <SharedParamsValidateBuffer>
 80208ea:	4606      	mov	r6, r0
 80208ec:	b110      	cbz	r0, 80208f4 <SharedParamsWriteByIndex+0x14>
 80208ee:	2c37      	cmp	r4, #55	@ 0x37
 80208f0:	d902      	bls.n	80208f8 <SharedParamsWriteByIndex+0x18>
  bool result = false;
 80208f2:	2600      	movs	r6, #0
} /*** end of SharedParamsWriteByIndex ***/
 80208f4:	4630      	mov	r0, r6
 80208f6:	bd70      	pop	{r4, r5, r6, pc}
    sharedParamsBuffer.data[idx] = value;
 80208f8:	4b03      	ldr	r3, [pc, #12]	@ (8020908 <SharedParamsWriteByIndex+0x28>)
 80208fa:	4423      	add	r3, r4
 80208fc:	711d      	strb	r5, [r3, #4]
    SharedParamsFlushECC();
 80208fe:	f7ff ffa5 	bl	802084c <SharedParamsFlushECC>
    SharedParamsWriteChecksum();
 8020902:	f7ff ffcb 	bl	802089c <SharedParamsWriteChecksum>
    result = true;
 8020906:	e7f5      	b.n	80208f4 <SharedParamsWriteByIndex+0x14>
 8020908:	24000000 	.word	0x24000000

0802090c <TimerInit>:
void TimerInit(void)
{
  /* The HAL initialization already configured the Systick interrupt to generate an
   * interrupt every 1 millisecond. Nothing more needs to be done here.
   */
} /*** end of TimerInit ***/
 802090c:	4770      	bx	lr

0802090e <TimerGet>:
** \brief     Obtains the counter value of the millisecond timer.
** \return    Current value of the millisecond timer.
**
****************************************************************************************/
unsigned long TimerGet(void)
{
 802090e:	b508      	push	{r3, lr}
  /* Read and return the tick counter value. */
  return HAL_GetTick();
 8020910:	f000 fb8a 	bl	8021028 <HAL_GetTick>
} /*** end of TimerGet ***/
 8020914:	bd08      	pop	{r3, pc}
	...

08020918 <VectorBase_Config>:
   * c-startup code.
   */
  extern const unsigned long g_pfnVectors[];

  /* Remap the vector table to where the vector table is located for this program. */
  SCB->VTOR = (unsigned long)&g_pfnVectors[0];
 8020918:	4a01      	ldr	r2, [pc, #4]	@ (8020920 <VectorBase_Config+0x8>)
 802091a:	4b02      	ldr	r3, [pc, #8]	@ (8020924 <VectorBase_Config+0xc>)
 802091c:	609a      	str	r2, [r3, #8]
}
 802091e:	4770      	bx	lr
 8020920:	08020000 	.word	0x08020000
 8020924:	e000ed00 	.word	0xe000ed00

08020928 <MPU_Config>:
/* USER CODE END 4 */

 /* MPU Configuration */

void MPU_Config(void)
{
 8020928:	b570      	push	{r4, r5, r6, lr}
 802092a:	b084      	sub	sp, #16
  MPU_Region_InitTypeDef MPU_InitStruct = {0};
 802092c:	2400      	movs	r4, #0
 802092e:	9400      	str	r4, [sp, #0]
 8020930:	9401      	str	r4, [sp, #4]
 8020932:	9402      	str	r4, [sp, #8]
 8020934:	9403      	str	r4, [sp, #12]

  /* Disables the MPU */
  HAL_MPU_Disable();
 8020936:	f000 fbf3 	bl	8021120 <HAL_MPU_Disable>

  /** Initializes and configures the Region and the memory to be protected
  */
  MPU_InitStruct.Enable = MPU_REGION_ENABLE;
 802093a:	2601      	movs	r6, #1
 802093c:	f88d 6000 	strb.w	r6, [sp]
  MPU_InitStruct.Number = MPU_REGION_NUMBER0;
 8020940:	f88d 4001 	strb.w	r4, [sp, #1]
  MPU_InitStruct.BaseAddress = 0x0;
 8020944:	9401      	str	r4, [sp, #4]
  MPU_InitStruct.Size = MPU_REGION_SIZE_4GB;
 8020946:	231f      	movs	r3, #31
 8020948:	f88d 3008 	strb.w	r3, [sp, #8]
  MPU_InitStruct.SubRegionDisable = 0x87;
 802094c:	2387      	movs	r3, #135	@ 0x87
 802094e:	f88d 3009 	strb.w	r3, [sp, #9]
  MPU_InitStruct.TypeExtField = MPU_TEX_LEVEL0;
 8020952:	f88d 400a 	strb.w	r4, [sp, #10]
  MPU_InitStruct.AccessPermission = MPU_REGION_NO_ACCESS;
 8020956:	f88d 400b 	strb.w	r4, [sp, #11]
  MPU_InitStruct.DisableExec = MPU_INSTRUCTION_ACCESS_DISABLE;
 802095a:	f88d 600c 	strb.w	r6, [sp, #12]
  MPU_InitStruct.IsShareable = MPU_ACCESS_SHAREABLE;
 802095e:	f88d 600d 	strb.w	r6, [sp, #13]
  MPU_InitStruct.IsCacheable = MPU_ACCESS_NOT_CACHEABLE;
 8020962:	f88d 400e 	strb.w	r4, [sp, #14]
  MPU_InitStruct.IsBufferable = MPU_ACCESS_NOT_BUFFERABLE;
 8020966:	f88d 400f 	strb.w	r4, [sp, #15]

  HAL_MPU_ConfigRegion(&MPU_InitStruct);
 802096a:	4668      	mov	r0, sp
 802096c:	f000 fbf6 	bl	802115c <HAL_MPU_ConfigRegion>

  /** Initializes and configures the Region and the memory to be protected
  */
  MPU_InitStruct.Number = MPU_REGION_NUMBER1;
 8020970:	f88d 6001 	strb.w	r6, [sp, #1]
  MPU_InitStruct.BaseAddress = 0x30040000;
 8020974:	4b11      	ldr	r3, [pc, #68]	@ (80209bc <MPU_Config+0x94>)
 8020976:	9301      	str	r3, [sp, #4]
  MPU_InitStruct.Size = MPU_REGION_SIZE_32KB;
 8020978:	230e      	movs	r3, #14
 802097a:	f88d 3008 	strb.w	r3, [sp, #8]
  MPU_InitStruct.SubRegionDisable = 0x0;
 802097e:	f88d 4009 	strb.w	r4, [sp, #9]
  MPU_InitStruct.AccessPermission = MPU_REGION_FULL_ACCESS;
 8020982:	2303      	movs	r3, #3
 8020984:	f88d 300b 	strb.w	r3, [sp, #11]
  MPU_InitStruct.IsBufferable = MPU_ACCESS_BUFFERABLE;
 8020988:	f88d 600f 	strb.w	r6, [sp, #15]

  HAL_MPU_ConfigRegion(&MPU_InitStruct);
 802098c:	4668      	mov	r0, sp
 802098e:	f000 fbe5 	bl	802115c <HAL_MPU_ConfigRegion>

  /** Initializes and configures the Region and the memory to be protected
  */
  MPU_InitStruct.Number = MPU_REGION_NUMBER2;
 8020992:	2302      	movs	r3, #2
 8020994:	f88d 3001 	strb.w	r3, [sp, #1]
  MPU_InitStruct.BaseAddress = 0x24000000;
 8020998:	f04f 5310 	mov.w	r3, #603979776	@ 0x24000000
 802099c:	9301      	str	r3, [sp, #4]
  MPU_InitStruct.Size = MPU_REGION_SIZE_64B;
 802099e:	2305      	movs	r3, #5
 80209a0:	f88d 3008 	strb.w	r3, [sp, #8]
  MPU_InitStruct.TypeExtField = MPU_TEX_LEVEL1;
 80209a4:	f88d 600a 	strb.w	r6, [sp, #10]
  MPU_InitStruct.IsBufferable = MPU_ACCESS_NOT_BUFFERABLE;
 80209a8:	f88d 400f 	strb.w	r4, [sp, #15]

  HAL_MPU_ConfigRegion(&MPU_InitStruct);
 80209ac:	4668      	mov	r0, sp
 80209ae:	f000 fbd5 	bl	802115c <HAL_MPU_ConfigRegion>
  /* Enables the MPU */
  HAL_MPU_Enable(MPU_PRIVILEGED_DEFAULT);
 80209b2:	2004      	movs	r0, #4
 80209b4:	f000 fbc2 	bl	802113c <HAL_MPU_Enable>

}
 80209b8:	b004      	add	sp, #16
 80209ba:	bd70      	pop	{r4, r5, r6, pc}
 80209bc:	30040000 	.word	0x30040000

080209c0 <MX_GPIO_Init>:
{
 80209c0:	b570      	push	{r4, r5, r6, lr}
 80209c2:	b08c      	sub	sp, #48	@ 0x30
  GPIO_InitTypeDef GPIO_InitStruct = {0};
 80209c4:	ad07      	add	r5, sp, #28
 80209c6:	2400      	movs	r4, #0
 80209c8:	9407      	str	r4, [sp, #28]
 80209ca:	9408      	str	r4, [sp, #32]
 80209cc:	9409      	str	r4, [sp, #36]	@ 0x24
 80209ce:	940a      	str	r4, [sp, #40]	@ 0x28
 80209d0:	940b      	str	r4, [sp, #44]	@ 0x2c
  __HAL_RCC_GPIOH_CLK_ENABLE();
 80209d2:	4b33      	ldr	r3, [pc, #204]	@ (8020aa0 <MX_GPIO_Init+0xe0>)
 80209d4:	f8d3 20e0 	ldr.w	r2, [r3, #224]	@ 0xe0
 80209d8:	f042 0280 	orr.w	r2, r2, #128	@ 0x80
 80209dc:	f8c3 20e0 	str.w	r2, [r3, #224]	@ 0xe0
 80209e0:	f8d3 20e0 	ldr.w	r2, [r3, #224]	@ 0xe0
 80209e4:	f002 0280 	and.w	r2, r2, #128	@ 0x80
 80209e8:	9201      	str	r2, [sp, #4]
 80209ea:	9a01      	ldr	r2, [sp, #4]
  __HAL_RCC_GPIOC_CLK_ENABLE();
 80209ec:	f8d3 20e0 	ldr.w	r2, [r3, #224]	@ 0xe0
 80209f0:	f042 0204 	orr.w	r2, r2, #4
 80209f4:	f8c3 20e0 	str.w	r2, [r3, #224]	@ 0xe0
 80209f8:	f8d3 20e0 	ldr.w	r2, [r3, #224]	@ 0xe0
 80209fc:	f002 0204 	and.w	r2, r2, #4
 8020a00:	9202      	str	r2, [sp, #8]
 8020a02:	9a02      	ldr	r2, [sp, #8]
  __HAL_RCC_GPIOA_CLK_ENABLE();
 8020a04:	f8d3 20e0 	ldr.w	r2, [r3, #224]	@ 0xe0
 8020a08:	f042 0201 	orr.w	r2, r2, #1
 8020a0c:	f8c3 20e0 	str.w	r2, [r3, #224]	@ 0xe0
 8020a10:	f8d3 20e0 	ldr.w	r2, [r3, #224]	@ 0xe0
 8020a14:	f002 0201 	and.w	r2, r2, #1
 8020a18:	9203      	str	r2, [sp, #12]
 8020a1a:	9a03      	ldr	r2, [sp, #12]
  __HAL_RCC_GPIOB_CLK_ENABLE();
 8020a1c:	f8d3 20e0 	ldr.w	r2, [r3, #224]	@ 0xe0
 8020a20:	f042 0202 	orr.w	r2, r2, #2
 8020a24:	f8c3 20e0 	str.w	r2, [r3, #224]	@ 0xe0
 8020a28:	f8d3 20e0 	ldr.w	r2, [r3, #224]	@ 0xe0
 8020a2c:	f002 0202 	and.w	r2, r2, #2
 8020a30:	9204      	str	r2, [sp, #16]
 8020a32:	9a04      	ldr	r2, [sp, #16]
  __HAL_RCC_GPIOD_CLK_ENABLE();
 8020a34:	f8d3 20e0 	ldr.w	r2, [r3, #224]	@ 0xe0
 8020a38:	f042 0208 	orr.w	r2, r2, #8
 8020a3c:	f8c3 20e0 	str.w	r2, [r3, #224]	@ 0xe0
 8020a40:	f8d3 20e0 	ldr.w	r2, [r3, #224]	@ 0xe0
 8020a44:	f002 0208 	and.w	r2, r2, #8
 8020a48:	9205      	str	r2, [sp, #20]
 8020a4a:	9a05      	ldr	r2, [sp, #20]
  __HAL_RCC_GPIOG_CLK_ENABLE();
 8020a4c:	f8d3 20e0 	ldr.w	r2, [r3, #224]	@ 0xe0
 8020a50:	f042 0240 	orr.w	r2, r2, #64	@ 0x40
 8020a54:	f8c3 20e0 	str.w	r2, [r3, #224]	@ 0xe0
 8020a58:	f8d3 30e0 	ldr.w	r3, [r3, #224]	@ 0xe0
 8020a5c:	f003 0340 	and.w	r3, r3, #64	@ 0x40
 8020a60:	9306      	str	r3, [sp, #24]
 8020a62:	9b06      	ldr	r3, [sp, #24]
  HAL_GPIO_WritePin(GPIOB, GPIO_PIN_7, GPIO_PIN_RESET);
 8020a64:	4e0f      	ldr	r6, [pc, #60]	@ (8020aa4 <MX_GPIO_Init+0xe4>)
 8020a66:	4622      	mov	r2, r4
 8020a68:	2180      	movs	r1, #128	@ 0x80
 8020a6a:	4630      	mov	r0, r6
 8020a6c:	f001 ffee 	bl	8022a4c <HAL_GPIO_WritePin>
  GPIO_InitStruct.Pin = GPIO_PIN_7;
 8020a70:	2380      	movs	r3, #128	@ 0x80
 8020a72:	9307      	str	r3, [sp, #28]
  GPIO_InitStruct.Mode = GPIO_MODE_OUTPUT_PP;
 8020a74:	2301      	movs	r3, #1
 8020a76:	9308      	str	r3, [sp, #32]
  GPIO_InitStruct.Pull = GPIO_NOPULL;
 8020a78:	9409      	str	r4, [sp, #36]	@ 0x24
  GPIO_InitStruct.Speed = GPIO_SPEED_FREQ_LOW;
 8020a7a:	940a      	str	r4, [sp, #40]	@ 0x28
  HAL_GPIO_Init(GPIOB, &GPIO_InitStruct);
 8020a7c:	4629      	mov	r1, r5
 8020a7e:	4630      	mov	r0, r6
 8020a80:	f001 fece 	bl	8022820 <HAL_GPIO_Init>
  GPIO_InitStruct.Pin = GPIO_PIN_9;
 8020a84:	f44f 7300 	mov.w	r3, #512	@ 0x200
 8020a88:	9307      	str	r3, [sp, #28]
  GPIO_InitStruct.Mode = GPIO_MODE_IT_RISING;
 8020a8a:	f44f 1388 	mov.w	r3, #1114112	@ 0x110000
 8020a8e:	9308      	str	r3, [sp, #32]
  GPIO_InitStruct.Pull = GPIO_NOPULL;
 8020a90:	9409      	str	r4, [sp, #36]	@ 0x24
  HAL_GPIO_Init(GPIOB, &GPIO_InitStruct);
 8020a92:	4629      	mov	r1, r5
 8020a94:	4630      	mov	r0, r6
 8020a96:	f001 fec3 	bl	8022820 <HAL_GPIO_Init>
}
 8020a9a:	b00c      	add	sp, #48	@ 0x30
 8020a9c:	bd70      	pop	{r4, r5, r6, pc}
 8020a9e:	bf00      	nop
 8020aa0:	58024400 	.word	0x58024400
 8020aa4:	58020400 	.word	0x58020400

08020aa8 <SystemClock_Config>:
{
 8020aa8:	b530      	push	{r4, r5, lr}
 8020aaa:	b09d      	sub	sp, #116	@ 0x74
  RCC_OscInitTypeDef RCC_OscInitStruct = {0};
 8020aac:	224c      	movs	r2, #76	@ 0x4c
 8020aae:	2100      	movs	r1, #0
 8020ab0:	a809      	add	r0, sp, #36	@ 0x24
 8020ab2:	f006 f968 	bl	8026d86 <memset>
  RCC_ClkInitTypeDef RCC_ClkInitStruct = {0};
 8020ab6:	2220      	movs	r2, #32
 8020ab8:	2100      	movs	r1, #0
 8020aba:	a801      	add	r0, sp, #4
 8020abc:	f006 f963 	bl	8026d86 <memset>
  HAL_PWREx_ConfigSupply(PWR_LDO_SUPPLY);
 8020ac0:	2002      	movs	r0, #2
 8020ac2:	f001 ffc9 	bl	8022a58 <HAL_PWREx_ConfigSupply>
  __HAL_PWR_VOLTAGESCALING_CONFIG(PWR_REGULATOR_VOLTAGE_SCALE0);
 8020ac6:	2300      	movs	r3, #0
 8020ac8:	9300      	str	r3, [sp, #0]
 8020aca:	4b22      	ldr	r3, [pc, #136]	@ (8020b54 <SystemClock_Config+0xac>)
 8020acc:	699a      	ldr	r2, [r3, #24]
 8020ace:	f442 4240 	orr.w	r2, r2, #49152	@ 0xc000
 8020ad2:	619a      	str	r2, [r3, #24]
 8020ad4:	699b      	ldr	r3, [r3, #24]
 8020ad6:	f403 4340 	and.w	r3, r3, #49152	@ 0xc000
 8020ada:	9300      	str	r3, [sp, #0]
 8020adc:	4b1e      	ldr	r3, [pc, #120]	@ (8020b58 <SystemClock_Config+0xb0>)
 8020ade:	6ada      	ldr	r2, [r3, #44]	@ 0x2c
 8020ae0:	f042 0201 	orr.w	r2, r2, #1
 8020ae4:	62da      	str	r2, [r3, #44]	@ 0x2c
 8020ae6:	6adb      	ldr	r3, [r3, #44]	@ 0x2c
 8020ae8:	f003 0301 	and.w	r3, r3, #1
 8020aec:	9300      	str	r3, [sp, #0]
 8020aee:	9b00      	ldr	r3, [sp, #0]
  while(!__HAL_PWR_GET_FLAG(PWR_FLAG_VOSRDY)) {}
 8020af0:	4b18      	ldr	r3, [pc, #96]	@ (8020b54 <SystemClock_Config+0xac>)
 8020af2:	699b      	ldr	r3, [r3, #24]
 8020af4:	f413 5f00 	tst.w	r3, #8192	@ 0x2000
 8020af8:	d0fa      	beq.n	8020af0 <SystemClock_Config+0x48>
  RCC_OscInitStruct.OscillatorType = RCC_OSCILLATORTYPE_HSE;
 8020afa:	2301      	movs	r3, #1
 8020afc:	9309      	str	r3, [sp, #36]	@ 0x24
  RCC_OscInitStruct.HSEState = RCC_HSE_BYPASS;
 8020afe:	f44f 23a0 	mov.w	r3, #327680	@ 0x50000
 8020b02:	930a      	str	r3, [sp, #40]	@ 0x28
  RCC_OscInitStruct.PLL.PLLState = RCC_PLL_ON;
 8020b04:	2302      	movs	r3, #2
 8020b06:	9312      	str	r3, [sp, #72]	@ 0x48
  RCC_OscInitStruct.PLL.PLLSource = RCC_PLLSOURCE_HSE;
 8020b08:	9313      	str	r3, [sp, #76]	@ 0x4c
  RCC_OscInitStruct.PLL.PLLM = 4;
 8020b0a:	2404      	movs	r4, #4
 8020b0c:	9414      	str	r4, [sp, #80]	@ 0x50
  RCC_OscInitStruct.PLL.PLLN = 480;
 8020b0e:	f44f 72f0 	mov.w	r2, #480	@ 0x1e0
 8020b12:	9215      	str	r2, [sp, #84]	@ 0x54
  RCC_OscInitStruct.PLL.PLLP = 2;
 8020b14:	9316      	str	r3, [sp, #88]	@ 0x58
  RCC_OscInitStruct.PLL.PLLQ = 4;
 8020b16:	9417      	str	r4, [sp, #92]	@ 0x5c
  RCC_OscInitStruct.PLL.PLLR = 2;
 8020b18:	9318      	str	r3, [sp, #96]	@ 0x60
  RCC_OscInitStruct.PLL.PLLRGE = RCC_PLL1VCIRANGE_1;
 8020b1a:	9419      	str	r4, [sp, #100]	@ 0x64
  RCC_OscInitStruct.PLL.PLLVCOSEL = RCC_PLL1VCOWIDE;
 8020b1c:	2500      	movs	r5, #0
 8020b1e:	951a      	str	r5, [sp, #104]	@ 0x68
  RCC_OscInitStruct.PLL.PLLFRACN = 0;
 8020b20:	951b      	str	r5, [sp, #108]	@ 0x6c
  if (HAL_RCC_OscConfig(&RCC_OscInitStruct) != HAL_OK)
 8020b22:	a809      	add	r0, sp, #36	@ 0x24
 8020b24:	f001 ffc2 	bl	8022aac <HAL_RCC_OscConfig>
  RCC_ClkInitStruct.ClockType = RCC_CLOCKTYPE_HCLK|RCC_CLOCKTYPE_SYSCLK
 8020b28:	233f      	movs	r3, #63	@ 0x3f
 8020b2a:	9301      	str	r3, [sp, #4]
  RCC_ClkInitStruct.SYSCLKSource = RCC_SYSCLKSOURCE_PLLCLK;
 8020b2c:	2303      	movs	r3, #3
 8020b2e:	9302      	str	r3, [sp, #8]
  RCC_ClkInitStruct.SYSCLKDivider = RCC_SYSCLK_DIV1;
 8020b30:	9503      	str	r5, [sp, #12]
  RCC_ClkInitStruct.AHBCLKDivider = RCC_HCLK_DIV2;
 8020b32:	2308      	movs	r3, #8
 8020b34:	9304      	str	r3, [sp, #16]
  RCC_ClkInitStruct.APB3CLKDivider = RCC_APB3_DIV2;
 8020b36:	2340      	movs	r3, #64	@ 0x40
 8020b38:	9305      	str	r3, [sp, #20]
  RCC_ClkInitStruct.APB1CLKDivider = RCC_APB1_DIV2;
 8020b3a:	9306      	str	r3, [sp, #24]
  RCC_ClkInitStruct.APB2CLKDivider = RCC_APB2_DIV2;
 8020b3c:	f44f 6280 	mov.w	r2, #1024	@ 0x400
 8020b40:	9207      	str	r2, [sp, #28]
  RCC_ClkInitStruct.APB4CLKDivider = RCC_APB4_DIV2;
 8020b42:	9308      	str	r3, [sp, #32]
  if (HAL_RCC_ClockConfig(&RCC_ClkInitStruct, FLASH_LATENCY_4) != HAL_OK)
 8020b44:	4621      	mov	r1, r4
 8020b46:	eb0d 0004 	add.w	r0, sp, r4
 8020b4a:	f002 fc03 	bl	8023354 <HAL_RCC_ClockConfig>
}
 8020b4e:	b01d      	add	sp, #116	@ 0x74
 8020b50:	bd30      	pop	{r4, r5, pc}
 8020b52:	bf00      	nop
 8020b54:	58024800 	.word	0x58024800
 8020b58:	58000400 	.word	0x58000400

08020b5c <main>:
{
 8020b5c:	b508      	push	{r3, lr}
  VectorBase_Config();
 8020b5e:	f7ff fedb 	bl	8020918 <VectorBase_Config>
  MPU_Config();
 8020b62:	f7ff fee1 	bl	8020928 <MPU_Config>
  \details Turns on I-Cache
  */
__STATIC_FORCEINLINE void SCB_EnableICache (void)
{
  #if defined (__ICACHE_PRESENT) && (__ICACHE_PRESENT == 1U)
    if (SCB->CCR & SCB_CCR_IC_Msk) return;  /* return if ICache is already enabled */
 8020b66:	4b28      	ldr	r3, [pc, #160]	@ (8020c08 <main+0xac>)
 8020b68:	695b      	ldr	r3, [r3, #20]
 8020b6a:	f413 3f00 	tst.w	r3, #131072	@ 0x20000
 8020b6e:	d113      	bne.n	8020b98 <main+0x3c>
 8020b70:	f3bf 8f4f 	dsb	sy
  __ASM volatile ("isb 0xF":::"memory");
 8020b74:	f3bf 8f6f 	isb	sy

    __DSB();
    __ISB();
    SCB->ICIALLU = 0UL;                     /* invalidate I-Cache */
 8020b78:	4b23      	ldr	r3, [pc, #140]	@ (8020c08 <main+0xac>)
 8020b7a:	2200      	movs	r2, #0
 8020b7c:	f8c3 2250 	str.w	r2, [r3, #592]	@ 0x250
  __ASM volatile ("dsb 0xF":::"memory");
 8020b80:	f3bf 8f4f 	dsb	sy
  __ASM volatile ("isb 0xF":::"memory");
 8020b84:	f3bf 8f6f 	isb	sy
    __DSB();
    __ISB();
    SCB->CCR |=  (uint32_t)SCB_CCR_IC_Msk;  /* enable I-Cache */
 8020b88:	695a      	ldr	r2, [r3, #20]
 8020b8a:	f442 3200 	orr.w	r2, r2, #131072	@ 0x20000
 8020b8e:	615a      	str	r2, [r3, #20]
  __ASM volatile ("dsb 0xF":::"memory");
 8020b90:	f3bf 8f4f 	dsb	sy
  __ASM volatile ("isb 0xF":::"memory");
 8020b94:	f3bf 8f6f 	isb	sy
  #if defined (__DCACHE_PRESENT) && (__DCACHE_PRESENT == 1U)
    uint32_t ccsidr;
    uint32_t sets;
    uint32_t ways;

    if (SCB->CCR & SCB_CCR_DC_Msk) return;  /* return if DCache is already enabled */
 8020b98:	4b1b      	ldr	r3, [pc, #108]	@ (8020c08 <main+0xac>)
 8020b9a:	695b      	ldr	r3, [r3, #20]
 8020b9c:	f413 3f80 	tst.w	r3, #65536	@ 0x10000
 8020ba0:	d127      	bne.n	8020bf2 <main+0x96>

    SCB->CSSELR = 0U;                       /* select Level 1 data cache */
 8020ba2:	4b19      	ldr	r3, [pc, #100]	@ (8020c08 <main+0xac>)
 8020ba4:	2200      	movs	r2, #0
 8020ba6:	f8c3 2084 	str.w	r2, [r3, #132]	@ 0x84
  __ASM volatile ("dsb 0xF":::"memory");
 8020baa:	f3bf 8f4f 	dsb	sy
    __DSB();

    ccsidr = SCB->CCSIDR;
 8020bae:	f8d3 c080 	ldr.w	ip, [r3, #128]	@ 0x80

                                            /* invalidate D-Cache */
    sets = (uint32_t)(CCSIDR_SETS(ccsidr));
 8020bb2:	f3cc 304e 	ubfx	r0, ip, #13, #15
 8020bb6:	e000      	b.n	8020bba <main+0x5e>
                      ((ways << SCB_DCISW_WAY_Pos) & SCB_DCISW_WAY_Msk)  );
        #if defined ( __CC_ARM )
          __schedule_barrier();
        #endif
      } while (ways-- != 0U);
    } while(sets-- != 0U);
 8020bb8:	4618      	mov	r0, r3
      ways = (uint32_t)(CCSIDR_WAYS(ccsidr));
 8020bba:	f3cc 02c9 	ubfx	r2, ip, #3, #10
        SCB->DCISW = (((sets << SCB_DCISW_SET_Pos) & SCB_DCISW_SET_Msk) |
 8020bbe:	f643 73e0 	movw	r3, #16352	@ 0x3fe0
 8020bc2:	ea03 1340 	and.w	r3, r3, r0, lsl #5
 8020bc6:	ea43 7382 	orr.w	r3, r3, r2, lsl #30
 8020bca:	490f      	ldr	r1, [pc, #60]	@ (8020c08 <main+0xac>)
 8020bcc:	f8c1 3260 	str.w	r3, [r1, #608]	@ 0x260
      } while (ways-- != 0U);
 8020bd0:	4613      	mov	r3, r2
 8020bd2:	3a01      	subs	r2, #1
 8020bd4:	2b00      	cmp	r3, #0
 8020bd6:	d1f2      	bne.n	8020bbe <main+0x62>
    } while(sets-- != 0U);
 8020bd8:	1e43      	subs	r3, r0, #1
 8020bda:	2800      	cmp	r0, #0
 8020bdc:	d1ec      	bne.n	8020bb8 <main+0x5c>
 8020bde:	f3bf 8f4f 	dsb	sy
    __DSB();

    SCB->CCR |=  (uint32_t)SCB_CCR_DC_Msk;  /* enable D-Cache */
 8020be2:	694b      	ldr	r3, [r1, #20]
 8020be4:	f443 3380 	orr.w	r3, r3, #65536	@ 0x10000
 8020be8:	614b      	str	r3, [r1, #20]
 8020bea:	f3bf 8f4f 	dsb	sy
  __ASM volatile ("isb 0xF":::"memory");
 8020bee:	f3bf 8f6f 	isb	sy
  HAL_Init();
 8020bf2:	f000 f9df 	bl	8020fb4 <HAL_Init>
  SystemClock_Config();
 8020bf6:	f7ff ff57 	bl	8020aa8 <SystemClock_Config>
  MX_GPIO_Init();
 8020bfa:	f7ff fee1 	bl	80209c0 <MX_GPIO_Init>
  AppInit();
 8020bfe:	f7ff fb6d 	bl	80202dc <AppInit>
    AppTask();
 8020c02:	f7ff fb7b 	bl	80202fc <AppTask>
  while (1)
 8020c06:	e7fc      	b.n	8020c02 <main+0xa6>
 8020c08:	e000ed00 	.word	0xe000ed00

08020c0c <Error_Handler>:
{
  /* USER CODE BEGIN Error_Handler_Debug */
  /* User can add his own implementation to report the HAL error return state */

  /* USER CODE END Error_Handler_Debug */
}
 8020c0c:	4770      	bx	lr
	...

08020c10 <HAL_MspInit>:
/* USER CODE END 0 */
/**
  * Initializes the Global MSP.
  */
void HAL_MspInit(void)
{
 8020c10:	b082      	sub	sp, #8

  /* USER CODE BEGIN MspInit 0 */

  /* USER CODE END MspInit 0 */

  __HAL_RCC_SYSCFG_CLK_ENABLE();
 8020c12:	4b07      	ldr	r3, [pc, #28]	@ (8020c30 <HAL_MspInit+0x20>)
 8020c14:	f8d3 20f4 	ldr.w	r2, [r3, #244]	@ 0xf4
 8020c18:	f042 0202 	orr.w	r2, r2, #2
 8020c1c:	f8c3 20f4 	str.w	r2, [r3, #244]	@ 0xf4
 8020c20:	f8d3 30f4 	ldr.w	r3, [r3, #244]	@ 0xf4
 8020c24:	f003 0302 	and.w	r3, r3, #2
 8020c28:	9301      	str	r3, [sp, #4]
 8020c2a:	9b01      	ldr	r3, [sp, #4]
  /* System interrupt init*/

  /* USER CODE BEGIN MspInit 1 */

  /* USER CODE END MspInit 1 */
}
 8020c2c:	b002      	add	sp, #8
 8020c2e:	4770      	bx	lr
 8020c30:	58024400 	.word	0x58024400

08020c34 <HAL_ETH_MspInit>:
  * This function configures the hardware resources used in this example
  * @param heth: ETH handle pointer
  * @retval None
  */
void HAL_ETH_MspInit(ETH_HandleTypeDef* heth)
{
 8020c34:	b5f0      	push	{r4, r5, r6, r7, lr}
 8020c36:	b08d      	sub	sp, #52	@ 0x34
  GPIO_InitTypeDef GPIO_InitStruct = {0};
 8020c38:	2300      	movs	r3, #0
 8020c3a:	9307      	str	r3, [sp, #28]
 8020c3c:	9308      	str	r3, [sp, #32]
 8020c3e:	9309      	str	r3, [sp, #36]	@ 0x24
 8020c40:	930a      	str	r3, [sp, #40]	@ 0x28
 8020c42:	930b      	str	r3, [sp, #44]	@ 0x2c
  if(heth->Instance==ETH)
 8020c44:	6802      	ldr	r2, [r0, #0]
 8020c46:	4b44      	ldr	r3, [pc, #272]	@ (8020d58 <HAL_ETH_MspInit+0x124>)
 8020c48:	429a      	cmp	r2, r3
 8020c4a:	d001      	beq.n	8020c50 <HAL_ETH_MspInit+0x1c>

    /* USER CODE END ETH_MspInit 1 */

  }

}
 8020c4c:	b00d      	add	sp, #52	@ 0x34
 8020c4e:	bdf0      	pop	{r4, r5, r6, r7, pc}
    __HAL_RCC_ETH1MAC_CLK_ENABLE();
 8020c50:	4b42      	ldr	r3, [pc, #264]	@ (8020d5c <HAL_ETH_MspInit+0x128>)
 8020c52:	f8d3 20d8 	ldr.w	r2, [r3, #216]	@ 0xd8
 8020c56:	f442 4200 	orr.w	r2, r2, #32768	@ 0x8000
 8020c5a:	f8c3 20d8 	str.w	r2, [r3, #216]	@ 0xd8
 8020c5e:	f8d3 20d8 	ldr.w	r2, [r3, #216]	@ 0xd8
 8020c62:	f402 4200 	and.w	r2, r2, #32768	@ 0x8000
 8020c66:	9200      	str	r2, [sp, #0]
 8020c68:	9a00      	ldr	r2, [sp, #0]
    __HAL_RCC_ETH1TX_CLK_ENABLE();
 8020c6a:	f8d3 20d8 	ldr.w	r2, [r3, #216]	@ 0xd8
 8020c6e:	f442 3280 	orr.w	r2, r2, #65536	@ 0x10000
 8020c72:	f8c3 20d8 	str.w	r2, [r3, #216]	@ 0xd8
 8020c76:	f8d3 20d8 	ldr.w	r2, [r3, #216]	@ 0xd8
 8020c7a:	f402 3280 	and.w	r2, r2, #65536	@ 0x10000
 8020c7e:	9201      	str	r2, [sp, #4]
 8020c80:	9a01      	ldr	r2, [sp, #4]
    __HAL_RCC_ETH1RX_CLK_ENABLE();
 8020c82:	f8d3 20d8 	ldr.w	r2, [r3, #216]	@ 0xd8
 8020c86:	f442 3200 	orr.w	r2, r2, #131072	@ 0x20000
 8020c8a:	f8c3 20d8 	str.w	r2, [r3, #216]	@ 0xd8
 8020c8e:	f8d3 20d8 	ldr.w	r2, [r3, #216]	@ 0xd8
 8020c92:	f402 3200 	and.w	r2, r2, #131072	@ 0x20000
 8020c96:	9202      	str	r2, [sp, #8]
 8020c98:	9a02      	ldr	r2, [sp, #8]
    __HAL_RCC_GPIOC_CLK_ENABLE();
 8020c9a:	f8d3 20e0 	ldr.w	r2, [r3, #224]	@ 0xe0
 8020c9e:	f042 0204 	orr.w	r2, r2, #4
 8020ca2:	f8c3 20e0 	str.w	r2, [r3, #224]	@ 0xe0
 8020ca6:	f8d3 20e0 	ldr.w	r2, [r3, #224]	@ 0xe0
 8020caa:	f002 0204 	and.w	r2, r2, #4
 8020cae:	9203      	str	r2, [sp, #12]
 8020cb0:	9a03      	ldr	r2, [sp, #12]
    __HAL_RCC_GPIOA_CLK_ENABLE();
 8020cb2:	f8d3 20e0 	ldr.w	r2, [r3, #224]	@ 0xe0
 8020cb6:	f042 0201 	orr.w	r2, r2, #1
 8020cba:	f8c3 20e0 	str.w	r2, [r3, #224]	@ 0xe0
 8020cbe:	f8d3 20e0 	ldr.w	r2, [r3, #224]	@ 0xe0
 8020cc2:	f002 0201 	and.w	r2, r2, #1
 8020cc6:	9204      	str	r2, [sp, #16]
 8020cc8:	9a04      	ldr	r2, [sp, #16]
    __HAL_RCC_GPIOB_CLK_ENABLE();
 8020cca:	f8d3 20e0 	ldr.w	r2, [r3, #224]	@ 0xe0
 8020cce:	f042 0202 	orr.w	r2, r2, #2
 8020cd2:	f8c3 20e0 	str.w	r2, [r3, #224]	@ 0xe0
 8020cd6:	f8d3 20e0 	ldr.w	r2, [r3, #224]	@ 0xe0
 8020cda:	f002 0202 	and.w	r2, r2, #2
 8020cde:	9205      	str	r2, [sp, #20]
 8020ce0:	9a05      	ldr	r2, [sp, #20]
    __HAL_RCC_GPIOG_CLK_ENABLE();
 8020ce2:	f8d3 20e0 	ldr.w	r2, [r3, #224]	@ 0xe0
 8020ce6:	f042 0240 	orr.w	r2, r2, #64	@ 0x40
 8020cea:	f8c3 20e0 	str.w	r2, [r3, #224]	@ 0xe0
 8020cee:	f8d3 30e0 	ldr.w	r3, [r3, #224]	@ 0xe0
 8020cf2:	f003 0340 	and.w	r3, r3, #64	@ 0x40
 8020cf6:	9306      	str	r3, [sp, #24]
 8020cf8:	9b06      	ldr	r3, [sp, #24]
    GPIO_InitStruct.Pin = GPIO_PIN_1|GPIO_PIN_4|GPIO_PIN_5;
 8020cfa:	2332      	movs	r3, #50	@ 0x32
 8020cfc:	9307      	str	r3, [sp, #28]
    GPIO_InitStruct.Mode = GPIO_MODE_AF_PP;
 8020cfe:	2402      	movs	r4, #2
 8020d00:	9408      	str	r4, [sp, #32]
    GPIO_InitStruct.Speed = GPIO_SPEED_FREQ_HIGH;
 8020d02:	940a      	str	r4, [sp, #40]	@ 0x28
    GPIO_InitStruct.Alternate = GPIO_AF11_ETH;
 8020d04:	260b      	movs	r6, #11
 8020d06:	960b      	str	r6, [sp, #44]	@ 0x2c
    HAL_GPIO_Init(GPIOC, &GPIO_InitStruct);
 8020d08:	ad07      	add	r5, sp, #28
 8020d0a:	4629      	mov	r1, r5
 8020d0c:	4814      	ldr	r0, [pc, #80]	@ (8020d60 <HAL_ETH_MspInit+0x12c>)
 8020d0e:	f001 fd87 	bl	8022820 <HAL_GPIO_Init>
    GPIO_InitStruct.Pin = GPIO_PIN_1|GPIO_PIN_2|GPIO_PIN_7;
 8020d12:	2386      	movs	r3, #134	@ 0x86
 8020d14:	9307      	str	r3, [sp, #28]
    GPIO_InitStruct.Mode = GPIO_MODE_AF_PP;
 8020d16:	9408      	str	r4, [sp, #32]
    GPIO_InitStruct.Pull = GPIO_NOPULL;
 8020d18:	2700      	movs	r7, #0
 8020d1a:	9709      	str	r7, [sp, #36]	@ 0x24
    GPIO_InitStruct.Speed = GPIO_SPEED_FREQ_HIGH;
 8020d1c:	940a      	str	r4, [sp, #40]	@ 0x28
    GPIO_InitStruct.Alternate = GPIO_AF11_ETH;
 8020d1e:	960b      	str	r6, [sp, #44]	@ 0x2c
    HAL_GPIO_Init(GPIOA, &GPIO_InitStruct);
 8020d20:	4629      	mov	r1, r5
 8020d22:	4810      	ldr	r0, [pc, #64]	@ (8020d64 <HAL_ETH_MspInit+0x130>)
 8020d24:	f001 fd7c 	bl	8022820 <HAL_GPIO_Init>
    GPIO_InitStruct.Pin = GPIO_PIN_13;
 8020d28:	f44f 5300 	mov.w	r3, #8192	@ 0x2000
 8020d2c:	9307      	str	r3, [sp, #28]
    GPIO_InitStruct.Mode = GPIO_MODE_AF_PP;
 8020d2e:	9408      	str	r4, [sp, #32]
    GPIO_InitStruct.Pull = GPIO_NOPULL;
 8020d30:	9709      	str	r7, [sp, #36]	@ 0x24
    GPIO_InitStruct.Speed = GPIO_SPEED_FREQ_HIGH;
 8020d32:	940a      	str	r4, [sp, #40]	@ 0x28
    GPIO_InitStruct.Alternate = GPIO_AF11_ETH;
 8020d34:	960b      	str	r6, [sp, #44]	@ 0x2c
    HAL_GPIO_Init(GPIOB, &GPIO_InitStruct);
 8020d36:	4629      	mov	r1, r5
 8020d38:	480b      	ldr	r0, [pc, #44]	@ (8020d68 <HAL_ETH_MspInit+0x134>)
 8020d3a:	f001 fd71 	bl	8022820 <HAL_GPIO_Init>
    GPIO_InitStruct.Pin = GPIO_PIN_11|GPIO_PIN_13;
 8020d3e:	f44f 5320 	mov.w	r3, #10240	@ 0x2800
 8020d42:	9307      	str	r3, [sp, #28]
    GPIO_InitStruct.Mode = GPIO_MODE_AF_PP;
 8020d44:	9408      	str	r4, [sp, #32]
    GPIO_InitStruct.Pull = GPIO_NOPULL;
 8020d46:	9709      	str	r7, [sp, #36]	@ 0x24
    GPIO_InitStruct.Speed = GPIO_SPEED_FREQ_HIGH;
 8020d48:	940a      	str	r4, [sp, #40]	@ 0x28
    GPIO_InitStruct.Alternate = GPIO_AF11_ETH;
 8020d4a:	960b      	str	r6, [sp, #44]	@ 0x2c
    HAL_GPIO_Init(GPIOG, &GPIO_InitStruct);
 8020d4c:	4629      	mov	r1, r5
 8020d4e:	4807      	ldr	r0, [pc, #28]	@ (8020d6c <HAL_ETH_MspInit+0x138>)
 8020d50:	f001 fd66 	bl	8022820 <HAL_GPIO_Init>
}
 8020d54:	e77a      	b.n	8020c4c <HAL_ETH_MspInit+0x18>
 8020d56:	bf00      	nop
 8020d58:	40028000 	.word	0x40028000
 8020d5c:	58024400 	.word	0x58024400
 8020d60:	58020800 	.word	0x58020800
 8020d64:	58020000 	.word	0x58020000
 8020d68:	58020400 	.word	0x58020400
 8020d6c:	58021800 	.word	0x58021800

08020d70 <HAL_FDCAN_MspInit>:
  * This function configures the hardware resources used in this example
  * @param hfdcan: FDCAN handle pointer
  * @retval None
  */
void HAL_FDCAN_MspInit(FDCAN_HandleTypeDef* hfdcan)
{
 8020d70:	b510      	push	{r4, lr}
 8020d72:	b0b8      	sub	sp, #224	@ 0xe0
 8020d74:	4604      	mov	r4, r0
  GPIO_InitTypeDef GPIO_InitStruct = {0};
 8020d76:	2100      	movs	r1, #0
 8020d78:	9133      	str	r1, [sp, #204]	@ 0xcc
 8020d7a:	9134      	str	r1, [sp, #208]	@ 0xd0
 8020d7c:	9135      	str	r1, [sp, #212]	@ 0xd4
 8020d7e:	9136      	str	r1, [sp, #216]	@ 0xd8
 8020d80:	9137      	str	r1, [sp, #220]	@ 0xdc
  RCC_PeriphCLKInitTypeDef PeriphClkInitStruct = {0};
 8020d82:	22c0      	movs	r2, #192	@ 0xc0
 8020d84:	a802      	add	r0, sp, #8
 8020d86:	f005 fffe 	bl	8026d86 <memset>
  if(hfdcan->Instance==FDCAN1)
 8020d8a:	6822      	ldr	r2, [r4, #0]
 8020d8c:	4b23      	ldr	r3, [pc, #140]	@ (8020e1c <HAL_FDCAN_MspInit+0xac>)
 8020d8e:	429a      	cmp	r2, r3
 8020d90:	d001      	beq.n	8020d96 <HAL_FDCAN_MspInit+0x26>

    /* USER CODE END FDCAN1_MspInit 1 */

  }

}
 8020d92:	b038      	add	sp, #224	@ 0xe0
 8020d94:	bd10      	pop	{r4, pc}
    PeriphClkInitStruct.PeriphClockSelection = RCC_PERIPHCLK_FDCAN;
 8020d96:	f44f 4200 	mov.w	r2, #32768	@ 0x8000
 8020d9a:	2300      	movs	r3, #0
 8020d9c:	e9cd 2302 	strd	r2, r3, [sp, #8]
    PeriphClkInitStruct.PLL2.PLL2M = 1;
 8020da0:	2301      	movs	r3, #1
 8020da2:	9304      	str	r3, [sp, #16]
    PeriphClkInitStruct.PLL2.PLL2N = 20;
 8020da4:	2314      	movs	r3, #20
 8020da6:	9305      	str	r3, [sp, #20]
    PeriphClkInitStruct.PLL2.PLL2P = 2;
 8020da8:	2302      	movs	r3, #2
 8020daa:	9306      	str	r3, [sp, #24]
    PeriphClkInitStruct.PLL2.PLL2Q = 2;
 8020dac:	9307      	str	r3, [sp, #28]
    PeriphClkInitStruct.PLL2.PLL2R = 2;
 8020dae:	9308      	str	r3, [sp, #32]
    PeriphClkInitStruct.PLL2.PLL2RGE = RCC_PLL2VCIRANGE_3;
 8020db0:	23c0      	movs	r3, #192	@ 0xc0
 8020db2:	9309      	str	r3, [sp, #36]	@ 0x24
    PeriphClkInitStruct.PLL2.PLL2VCOSEL = RCC_PLL2VCOMEDIUM;
 8020db4:	2320      	movs	r3, #32
 8020db6:	930a      	str	r3, [sp, #40]	@ 0x28
    PeriphClkInitStruct.FdcanClockSelection = RCC_FDCANCLKSOURCE_PLL2;
 8020db8:	f04f 5300 	mov.w	r3, #536870912	@ 0x20000000
 8020dbc:	931e      	str	r3, [sp, #120]	@ 0x78
    if (HAL_RCCEx_PeriphCLKConfig(&PeriphClkInitStruct) != HAL_OK)
 8020dbe:	a802      	add	r0, sp, #8
 8020dc0:	f002 fd4e 	bl	8023860 <HAL_RCCEx_PeriphCLKConfig>
 8020dc4:	bb30      	cbnz	r0, 8020e14 <HAL_FDCAN_MspInit+0xa4>
    __HAL_RCC_FDCAN_CLK_ENABLE();
 8020dc6:	4b16      	ldr	r3, [pc, #88]	@ (8020e20 <HAL_FDCAN_MspInit+0xb0>)
 8020dc8:	f8d3 20ec 	ldr.w	r2, [r3, #236]	@ 0xec
 8020dcc:	f442 7280 	orr.w	r2, r2, #256	@ 0x100
 8020dd0:	f8c3 20ec 	str.w	r2, [r3, #236]	@ 0xec
 8020dd4:	f8d3 20ec 	ldr.w	r2, [r3, #236]	@ 0xec
 8020dd8:	f402 7280 	and.w	r2, r2, #256	@ 0x100
 8020ddc:	9200      	str	r2, [sp, #0]
 8020dde:	9a00      	ldr	r2, [sp, #0]
    __HAL_RCC_GPIOD_CLK_ENABLE();
 8020de0:	f8d3 20e0 	ldr.w	r2, [r3, #224]	@ 0xe0
 8020de4:	f042 0208 	orr.w	r2, r2, #8
 8020de8:	f8c3 20e0 	str.w	r2, [r3, #224]	@ 0xe0
 8020dec:	f8d3 30e0 	ldr.w	r3, [r3, #224]	@ 0xe0
 8020df0:	f003 0308 	and.w	r3, r3, #8
 8020df4:	9301      	str	r3, [sp, #4]
 8020df6:	9b01      	ldr	r3, [sp, #4]
    GPIO_InitStruct.Pin = GPIO_PIN_0|GPIO_PIN_1;
 8020df8:	2303      	movs	r3, #3
 8020dfa:	9333      	str	r3, [sp, #204]	@ 0xcc
    GPIO_InitStruct.Mode = GPIO_MODE_AF_PP;
 8020dfc:	2302      	movs	r3, #2
 8020dfe:	9334      	str	r3, [sp, #208]	@ 0xd0
    GPIO_InitStruct.Pull = GPIO_NOPULL;
 8020e00:	2300      	movs	r3, #0
 8020e02:	9335      	str	r3, [sp, #212]	@ 0xd4
    GPIO_InitStruct.Speed = GPIO_SPEED_FREQ_LOW;
 8020e04:	9336      	str	r3, [sp, #216]	@ 0xd8
    GPIO_InitStruct.Alternate = GPIO_AF9_FDCAN1;
 8020e06:	2309      	movs	r3, #9
 8020e08:	9337      	str	r3, [sp, #220]	@ 0xdc
    HAL_GPIO_Init(GPIOD, &GPIO_InitStruct);
 8020e0a:	a933      	add	r1, sp, #204	@ 0xcc
 8020e0c:	4805      	ldr	r0, [pc, #20]	@ (8020e24 <HAL_FDCAN_MspInit+0xb4>)
 8020e0e:	f001 fd07 	bl	8022820 <HAL_GPIO_Init>
}
 8020e12:	e7be      	b.n	8020d92 <HAL_FDCAN_MspInit+0x22>
      Error_Handler();
 8020e14:	f7ff fefa 	bl	8020c0c <Error_Handler>
 8020e18:	e7d5      	b.n	8020dc6 <HAL_FDCAN_MspInit+0x56>
 8020e1a:	bf00      	nop
 8020e1c:	4000a000 	.word	0x4000a000
 8020e20:	58024400 	.word	0x58024400
 8020e24:	58020c00 	.word	0x58020c00

08020e28 <NMI_Handler>:

  /* USER CODE END NonMaskableInt_IRQn 0 */
  /* USER CODE BEGIN NonMaskableInt_IRQn 1 */

  /* USER CODE END NonMaskableInt_IRQn 1 */
}
 8020e28:	4770      	bx	lr

08020e2a <HardFault_Handler>:
void HardFault_Handler(void)
{
  /* USER CODE BEGIN HardFault_IRQn 0 */

  /* USER CODE END HardFault_IRQn 0 */
  while (1)
 8020e2a:	e7fe      	b.n	8020e2a <HardFault_Handler>

08020e2c <MemManage_Handler>:
void MemManage_Handler(void)
{
  /* USER CODE BEGIN MemoryManagement_IRQn 0 */

  /* USER CODE END MemoryManagement_IRQn 0 */
  while (1)
 8020e2c:	e7fe      	b.n	8020e2c <MemManage_Handler>

08020e2e <BusFault_Handler>:
void BusFault_Handler(void)
{
  /* USER CODE BEGIN BusFault_IRQn 0 */

  /* USER CODE END BusFault_IRQn 0 */
  while (1)
 8020e2e:	e7fe      	b.n	8020e2e <BusFault_Handler>

08020e30 <UsageFault_Handler>:
void UsageFault_Handler(void)
{
  /* USER CODE BEGIN UsageFault_IRQn 0 */

  /* USER CODE END UsageFault_IRQn 0 */
  while (1)
 8020e30:	e7fe      	b.n	8020e30 <UsageFault_Handler>

08020e32 <SVC_Handler>:

  /* USER CODE END SVCall_IRQn 0 */
  /* USER CODE BEGIN SVCall_IRQn 1 */

  /* USER CODE END SVCall_IRQn 1 */
}
 8020e32:	4770      	bx	lr

08020e34 <DebugMon_Handler>:

  /* USER CODE END DebugMonitor_IRQn 0 */
  /* USER CODE BEGIN DebugMonitor_IRQn 1 */

  /* USER CODE END DebugMonitor_IRQn 1 */
}
 8020e34:	4770      	bx	lr

08020e36 <PendSV_Handler>:

  /* USER CODE END PendSV_IRQn 0 */
  /* USER CODE BEGIN PendSV_IRQn 1 */

  /* USER CODE END PendSV_IRQn 1 */
}
 8020e36:	4770      	bx	lr

08020e38 <SysTick_Handler>:

/**
  * @brief This function handles System tick timer.
  */
void SysTick_Handler(void)
{
 8020e38:	b508      	push	{r3, lr}
  /* USER CODE BEGIN SysTick_IRQn 0 */

  /* USER CODE END SysTick_IRQn 0 */
  HAL_IncTick();
 8020e3a:	f000 f8e9 	bl	8021010 <HAL_IncTick>
  /* USER CODE BEGIN SysTick_IRQn 1 */

  /* USER CODE END SysTick_IRQn 1 */
}
 8020e3e:	bd08      	pop	{r3, pc}

08020e40 <SystemInit>:
 __IO uint32_t tmpreg;
#endif /* DATA_IN_D2_SRAM */

  /* FPU settings ------------------------------------------------------------*/
  #if (__FPU_PRESENT == 1) && (__FPU_USED == 1)
    SCB->CPACR |= ((3UL << (10*2))|(3UL << (11*2)));  /* set CP10 and CP11 Full Access */
 8020e40:	4a29      	ldr	r2, [pc, #164]	@ (8020ee8 <SystemInit+0xa8>)
 8020e42:	f8d2 3088 	ldr.w	r3, [r2, #136]	@ 0x88
 8020e46:	f443 0370 	orr.w	r3, r3, #15728640	@ 0xf00000
 8020e4a:	f8c2 3088 	str.w	r3, [r2, #136]	@ 0x88
  #endif
  /* Reset the RCC clock configuration to the default reset state ------------*/

   /* Increasing the CPU frequency */
  if(FLASH_LATENCY_DEFAULT  > (READ_BIT((FLASH->ACR), FLASH_ACR_LATENCY)))
 8020e4e:	4b27      	ldr	r3, [pc, #156]	@ (8020eec <SystemInit+0xac>)
 8020e50:	681b      	ldr	r3, [r3, #0]
 8020e52:	f003 030f 	and.w	r3, r3, #15
 8020e56:	2b06      	cmp	r3, #6
 8020e58:	d806      	bhi.n	8020e68 <SystemInit+0x28>
  {
    /* Program the new number of wait states to the LATENCY bits in the FLASH_ACR register */
	MODIFY_REG(FLASH->ACR, FLASH_ACR_LATENCY, (uint32_t)(FLASH_LATENCY_DEFAULT));
 8020e5a:	4a24      	ldr	r2, [pc, #144]	@ (8020eec <SystemInit+0xac>)
 8020e5c:	6813      	ldr	r3, [r2, #0]
 8020e5e:	f023 030f 	bic.w	r3, r3, #15
 8020e62:	f043 0307 	orr.w	r3, r3, #7
 8020e66:	6013      	str	r3, [r2, #0]
  }

  /* Set HSION bit */
  RCC->CR |= RCC_CR_HSION;
 8020e68:	4b21      	ldr	r3, [pc, #132]	@ (8020ef0 <SystemInit+0xb0>)
 8020e6a:	681a      	ldr	r2, [r3, #0]
 8020e6c:	f042 0201 	orr.w	r2, r2, #1
 8020e70:	601a      	str	r2, [r3, #0]

  /* Reset CFGR register */
  RCC->CFGR = 0x00000000;
 8020e72:	2200      	movs	r2, #0
 8020e74:	611a      	str	r2, [r3, #16]

  /* Reset HSEON, HSECSSON, CSION, HSI48ON, CSIKERON, PLL1ON, PLL2ON and PLL3ON bits */
  RCC->CR &= 0xEAF6ED7FU;
 8020e76:	6819      	ldr	r1, [r3, #0]
 8020e78:	4a1e      	ldr	r2, [pc, #120]	@ (8020ef4 <SystemInit+0xb4>)
 8020e7a:	400a      	ands	r2, r1
 8020e7c:	601a      	str	r2, [r3, #0]
  
   /* Decreasing the number of wait states because of lower CPU frequency */
  if(FLASH_LATENCY_DEFAULT  < (READ_BIT((FLASH->ACR), FLASH_ACR_LATENCY)))
 8020e7e:	4b1b      	ldr	r3, [pc, #108]	@ (8020eec <SystemInit+0xac>)
 8020e80:	681b      	ldr	r3, [r3, #0]
 8020e82:	f013 0f08 	tst.w	r3, #8
 8020e86:	d006      	beq.n	8020e96 <SystemInit+0x56>
  {
    /* Program the new number of wait states to the LATENCY bits in the FLASH_ACR register */
	MODIFY_REG(FLASH->ACR, FLASH_ACR_LATENCY, (uint32_t)(FLASH_LATENCY_DEFAULT));
 8020e88:	4a18      	ldr	r2, [pc, #96]	@ (8020eec <SystemInit+0xac>)
 8020e8a:	6813      	ldr	r3, [r2, #0]
 8020e8c:	f023 030f 	bic.w	r3, r3, #15
 8020e90:	f043 0307 	orr.w	r3, r3, #7
 8020e94:	6013      	str	r3, [r2, #0]
  }

#if defined(D3_SRAM_BASE)
  /* Reset D1CFGR register */
  RCC->D1CFGR = 0x00000000;
 8020e96:	4b16      	ldr	r3, [pc, #88]	@ (8020ef0 <SystemInit+0xb0>)
 8020e98:	2200      	movs	r2, #0
 8020e9a:	619a      	str	r2, [r3, #24]

  /* Reset D2CFGR register */
  RCC->D2CFGR = 0x00000000;
 8020e9c:	61da      	str	r2, [r3, #28]

  /* Reset D3CFGR register */
  RCC->D3CFGR = 0x00000000;
 8020e9e:	621a      	str	r2, [r3, #32]

  /* Reset SRDCFGR register */
  RCC->SRDCFGR = 0x00000000;
#endif
  /* Reset PLLCKSELR register */
  RCC->PLLCKSELR = 0x02020200;
 8020ea0:	4915      	ldr	r1, [pc, #84]	@ (8020ef8 <SystemInit+0xb8>)
 8020ea2:	6299      	str	r1, [r3, #40]	@ 0x28

  /* Reset PLLCFGR register */
  RCC->PLLCFGR = 0x01FF0000;
 8020ea4:	4915      	ldr	r1, [pc, #84]	@ (8020efc <SystemInit+0xbc>)
 8020ea6:	62d9      	str	r1, [r3, #44]	@ 0x2c
  /* Reset PLL1DIVR register */
  RCC->PLL1DIVR = 0x01010280;
 8020ea8:	4915      	ldr	r1, [pc, #84]	@ (8020f00 <SystemInit+0xc0>)
 8020eaa:	6319      	str	r1, [r3, #48]	@ 0x30
  /* Reset PLL1FRACR register */
  RCC->PLL1FRACR = 0x00000000;
 8020eac:	635a      	str	r2, [r3, #52]	@ 0x34

  /* Reset PLL2DIVR register */
  RCC->PLL2DIVR = 0x01010280;
 8020eae:	6399      	str	r1, [r3, #56]	@ 0x38

  /* Reset PLL2FRACR register */

  RCC->PLL2FRACR = 0x00000000;
 8020eb0:	63da      	str	r2, [r3, #60]	@ 0x3c
  /* Reset PLL3DIVR register */
  RCC->PLL3DIVR = 0x01010280;
 8020eb2:	6419      	str	r1, [r3, #64]	@ 0x40

  /* Reset PLL3FRACR register */
  RCC->PLL3FRACR = 0x00000000;
 8020eb4:	645a      	str	r2, [r3, #68]	@ 0x44

  /* Reset HSEBYP bit */
  RCC->CR &= 0xFFFBFFFFU;
 8020eb6:	6819      	ldr	r1, [r3, #0]
 8020eb8:	f421 2180 	bic.w	r1, r1, #262144	@ 0x40000
 8020ebc:	6019      	str	r1, [r3, #0]

  /* Disable all interrupts */
  RCC->CIER = 0x00000000;
 8020ebe:	661a      	str	r2, [r3, #96]	@ 0x60

#if (STM32H7_DEV_ID == 0x450UL)
  /* dual core CM7 or single core line */
  if((DBGMCU->IDCODE & 0xFFFF0000U) < 0x20000000U)
 8020ec0:	4b10      	ldr	r3, [pc, #64]	@ (8020f04 <SystemInit+0xc4>)
 8020ec2:	681b      	ldr	r3, [r3, #0]
 8020ec4:	f36f 030f 	bfc	r3, #0, #16
 8020ec8:	f1b3 5f00 	cmp.w	r3, #536870912	@ 0x20000000
 8020ecc:	d203      	bcs.n	8020ed6 <SystemInit+0x96>
  {
    /* if stm32h7 revY*/
    /* Change  the switch matrix read issuing capability to 1 for the AXI SRAM target (Target 7) */
    *((__IO uint32_t*)0x51008108) = 0x000000001U;
 8020ece:	4b0e      	ldr	r3, [pc, #56]	@ (8020f08 <SystemInit+0xc8>)
 8020ed0:	2201      	movs	r2, #1
 8020ed2:	f8c3 2108 	str.w	r2, [r3, #264]	@ 0x108
  /*
   * Disable the FMC bank1 (enabled after reset).
   * This, prevents CPU speculation access on this bank which blocks the use of FMC during
   * 24us. During this time the others FMC master (such as LTDC) cannot use it!
   */
  FMC_Bank1_R->BTCR[0] = 0x000030D2;
 8020ed6:	4b0d      	ldr	r3, [pc, #52]	@ (8020f0c <SystemInit+0xcc>)
 8020ed8:	f243 02d2 	movw	r2, #12498	@ 0x30d2
 8020edc:	601a      	str	r2, [r3, #0]

  /* Configure the Vector Table location add offset address for cortex-M7 ------------------*/
#ifdef VECT_TAB_SRAM
  SCB->VTOR = D1_AXISRAM_BASE  | VECT_TAB_OFFSET; /* Vector Table Relocation in Internal AXI-RAM */
#else
  SCB->VTOR = FLASH_BANK1_BASE | VECT_TAB_OFFSET; /* Vector Table Relocation in Internal FLASH */
 8020ede:	4b02      	ldr	r3, [pc, #8]	@ (8020ee8 <SystemInit+0xa8>)
 8020ee0:	f04f 6200 	mov.w	r2, #134217728	@ 0x8000000
 8020ee4:	609a      	str	r2, [r3, #8]
#endif

#endif /*DUAL_CORE && CORE_CM4*/

}
 8020ee6:	4770      	bx	lr
 8020ee8:	e000ed00 	.word	0xe000ed00
 8020eec:	52002000 	.word	0x52002000
 8020ef0:	58024400 	.word	0x58024400
 8020ef4:	eaf6ed7f 	.word	0xeaf6ed7f
 8020ef8:	02020200 	.word	0x02020200
 8020efc:	01ff0000 	.word	0x01ff0000
 8020f00:	01010280 	.word	0x01010280
 8020f04:	5c001000 	.word	0x5c001000
 8020f08:	51008000 	.word	0x51008000
 8020f0c:	52004000 	.word	0x52004000

08020f10 <Reset_Handler>:

    .section  .text.Reset_Handler
  .weak  Reset_Handler
  .type  Reset_Handler, %function
Reset_Handler:  
  ldr   sp, =_estack      /* set stack pointer */
 8020f10:	f8df d034 	ldr.w	sp, [pc, #52]	@ 8020f48 <LoopFillZerobss+0x10>

/* Call the clock system intitialization function.*/
  bl  SystemInit
 8020f14:	f7ff ff94 	bl	8020e40 <SystemInit>

/* Copy the data segment initializers from flash to SRAM */  
  movs  r1, #0
 8020f18:	2100      	movs	r1, #0
  b  LoopCopyDataInit
 8020f1a:	e003      	b.n	8020f24 <LoopCopyDataInit>

08020f1c <CopyDataInit>:

CopyDataInit:
  ldr  r3, =_sidata
 8020f1c:	4b0b      	ldr	r3, [pc, #44]	@ (8020f4c <LoopFillZerobss+0x14>)
  ldr  r3, [r3, r1]
 8020f1e:	585b      	ldr	r3, [r3, r1]
  str  r3, [r0, r1]
 8020f20:	5043      	str	r3, [r0, r1]
  adds  r1, r1, #4
 8020f22:	3104      	adds	r1, #4

08020f24 <LoopCopyDataInit>:
    
LoopCopyDataInit:
  ldr  r0, =_sdata
 8020f24:	480a      	ldr	r0, [pc, #40]	@ (8020f50 <LoopFillZerobss+0x18>)
  ldr  r3, =_edata
 8020f26:	4b0b      	ldr	r3, [pc, #44]	@ (8020f54 <LoopFillZerobss+0x1c>)
  adds  r2, r0, r1
 8020f28:	1842      	adds	r2, r0, r1
  cmp  r2, r3
 8020f2a:	429a      	cmp	r2, r3
  bcc  CopyDataInit
 8020f2c:	d3f6      	bcc.n	8020f1c <CopyDataInit>
  ldr  r2, =_sbss
 8020f2e:	4a0a      	ldr	r2, [pc, #40]	@ (8020f58 <LoopFillZerobss+0x20>)
  b  LoopFillZerobss
 8020f30:	e002      	b.n	8020f38 <LoopFillZerobss>

08020f32 <FillZerobss>:
/* Zero fill the bss segment. */  
FillZerobss:
  movs  r3, #0
 8020f32:	2300      	movs	r3, #0
  str  r3, [r2], #4
 8020f34:	f842 3b04 	str.w	r3, [r2], #4

08020f38 <LoopFillZerobss>:
    
LoopFillZerobss:
  ldr  r3, = _ebss
 8020f38:	4b08      	ldr	r3, [pc, #32]	@ (8020f5c <LoopFillZerobss+0x24>)
  cmp  r2, r3
 8020f3a:	429a      	cmp	r2, r3
  bcc  FillZerobss
 8020f3c:	d3f9      	bcc.n	8020f32 <FillZerobss>

/* Call static constructors */
    bl __libc_init_array
 8020f3e:	f005 ff2b 	bl	8026d98 <__libc_init_array>
/* Call the application's entry point.*/
  bl  main
 8020f42:	f7ff fe0b 	bl	8020b5c <main>
  bx  lr    
 8020f46:	4770      	bx	lr
  ldr   sp, =_estack      /* set stack pointer */
 8020f48:	24080000 	.word	0x24080000
  ldr  r3, =_sidata
 8020f4c:	08026ea4 	.word	0x08026ea4
  ldr  r0, =_sdata
 8020f50:	24000040 	.word	0x24000040
  ldr  r3, =_edata
 8020f54:	24000064 	.word	0x24000064
  ldr  r2, =_sbss
 8020f58:	24000064 	.word	0x24000064
  ldr  r3, = _ebss
 8020f5c:	24000950 	.word	0x24000950

08020f60 <ADC3_IRQHandler>:
 * @retval None       
*/
    .section  .text.Default_Handler,"ax",%progbits
Default_Handler:
Infinite_Loop:
  b  Infinite_Loop
 8020f60:	e7fe      	b.n	8020f60 <ADC3_IRQHandler>
	...

08020f64 <HAL_InitTick>:
  * @retval HAL status
  */
__weak HAL_StatusTypeDef HAL_InitTick(uint32_t TickPriority)
{
  /* Check uwTickFreq for MisraC 2012 (even if uwTickFreq is a enum type that don't take the value zero)*/
  if((uint32_t)uwTickFreq == 0UL)
 8020f64:	4b10      	ldr	r3, [pc, #64]	@ (8020fa8 <HAL_InitTick+0x44>)
 8020f66:	781b      	ldrb	r3, [r3, #0]
 8020f68:	b90b      	cbnz	r3, 8020f6e <HAL_InitTick+0xa>
  {
    return HAL_ERROR;
 8020f6a:	2001      	movs	r0, #1
    return HAL_ERROR;
  }

  /* Return function status */
  return HAL_OK;
}
 8020f6c:	4770      	bx	lr
{
 8020f6e:	b510      	push	{r4, lr}
 8020f70:	4604      	mov	r4, r0
  if (HAL_SYSTICK_Config(SystemCoreClock / (1000UL / (uint32_t)uwTickFreq)) > 0U)
 8020f72:	4a0e      	ldr	r2, [pc, #56]	@ (8020fac <HAL_InitTick+0x48>)
 8020f74:	6810      	ldr	r0, [r2, #0]
 8020f76:	f44f 727a 	mov.w	r2, #1000	@ 0x3e8
 8020f7a:	fbb2 f3f3 	udiv	r3, r2, r3
 8020f7e:	fbb0 f0f3 	udiv	r0, r0, r3
 8020f82:	f000 f8b9 	bl	80210f8 <HAL_SYSTICK_Config>
 8020f86:	b968      	cbnz	r0, 8020fa4 <HAL_InitTick+0x40>
  if (TickPriority < (1UL << __NVIC_PRIO_BITS))
 8020f88:	2c0f      	cmp	r4, #15
 8020f8a:	d901      	bls.n	8020f90 <HAL_InitTick+0x2c>
    return HAL_ERROR;
 8020f8c:	2001      	movs	r0, #1
 8020f8e:	e00a      	b.n	8020fa6 <HAL_InitTick+0x42>
    HAL_NVIC_SetPriority(SysTick_IRQn, TickPriority, 0U);
 8020f90:	2200      	movs	r2, #0
 8020f92:	4621      	mov	r1, r4
 8020f94:	f04f 30ff 	mov.w	r0, #4294967295
 8020f98:	f000 f89e 	bl	80210d8 <HAL_NVIC_SetPriority>
    uwTickPrio = TickPriority;
 8020f9c:	4b04      	ldr	r3, [pc, #16]	@ (8020fb0 <HAL_InitTick+0x4c>)
 8020f9e:	601c      	str	r4, [r3, #0]
  return HAL_OK;
 8020fa0:	2000      	movs	r0, #0
 8020fa2:	e000      	b.n	8020fa6 <HAL_InitTick+0x42>
    return HAL_ERROR;
 8020fa4:	2001      	movs	r0, #1
}
 8020fa6:	bd10      	pop	{r4, pc}
 8020fa8:	24000048 	.word	0x24000048
 8020fac:	24000044 	.word	0x24000044
 8020fb0:	2400004c 	.word	0x2400004c

08020fb4 <HAL_Init>:
{
 8020fb4:	b510      	push	{r4, lr}
  HAL_NVIC_SetPriorityGrouping(NVIC_PRIORITYGROUP_4);
 8020fb6:	2003      	movs	r0, #3
 8020fb8:	f000 f87c 	bl	80210b4 <HAL_NVIC_SetPriorityGrouping>
  common_system_clock = HAL_RCC_GetSysClockFreq() >> ((D1CorePrescTable[(RCC->D1CFGR & RCC_D1CFGR_D1CPRE)>> RCC_D1CFGR_D1CPRE_Pos]) & 0x1FU);
 8020fbc:	f002 f8ce 	bl	802315c <HAL_RCC_GetSysClockFreq>
 8020fc0:	490f      	ldr	r1, [pc, #60]	@ (8021000 <HAL_Init+0x4c>)
 8020fc2:	698b      	ldr	r3, [r1, #24]
 8020fc4:	f3c3 2303 	ubfx	r3, r3, #8, #4
 8020fc8:	4a0e      	ldr	r2, [pc, #56]	@ (8021004 <HAL_Init+0x50>)
 8020fca:	5cd3      	ldrb	r3, [r2, r3]
 8020fcc:	f003 031f 	and.w	r3, r3, #31
 8020fd0:	40d8      	lsrs	r0, r3
  SystemD2Clock = (common_system_clock >> ((D1CorePrescTable[(RCC->D1CFGR & RCC_D1CFGR_HPRE)>> RCC_D1CFGR_HPRE_Pos]) & 0x1FU));
 8020fd2:	698b      	ldr	r3, [r1, #24]
 8020fd4:	f003 030f 	and.w	r3, r3, #15
 8020fd8:	5cd3      	ldrb	r3, [r2, r3]
 8020fda:	f003 031f 	and.w	r3, r3, #31
 8020fde:	fa20 f303 	lsr.w	r3, r0, r3
 8020fe2:	4a09      	ldr	r2, [pc, #36]	@ (8021008 <HAL_Init+0x54>)
 8020fe4:	6013      	str	r3, [r2, #0]
  SystemCoreClock = common_system_clock;
 8020fe6:	4b09      	ldr	r3, [pc, #36]	@ (802100c <HAL_Init+0x58>)
 8020fe8:	6018      	str	r0, [r3, #0]
  if(HAL_InitTick(TICK_INT_PRIORITY) != HAL_OK)
 8020fea:	2000      	movs	r0, #0
 8020fec:	f7ff ffba 	bl	8020f64 <HAL_InitTick>
 8020ff0:	b110      	cbz	r0, 8020ff8 <HAL_Init+0x44>
    return HAL_ERROR;
 8020ff2:	2401      	movs	r4, #1
}
 8020ff4:	4620      	mov	r0, r4
 8020ff6:	bd10      	pop	{r4, pc}
 8020ff8:	4604      	mov	r4, r0
  HAL_MspInit();
 8020ffa:	f7ff fe09 	bl	8020c10 <HAL_MspInit>
  return HAL_OK;
 8020ffe:	e7f9      	b.n	8020ff4 <HAL_Init+0x40>
 8021000:	58024400 	.word	0x58024400
 8021004:	08026e60 	.word	0x08026e60
 8021008:	24000040 	.word	0x24000040
 802100c:	24000044 	.word	0x24000044

08021010 <HAL_IncTick>:
  *      implementations in user file.
  * @retval None
  */
__weak void HAL_IncTick(void)
{
  uwTick += (uint32_t)uwTickFreq;
 8021010:	4b03      	ldr	r3, [pc, #12]	@ (8021020 <HAL_IncTick+0x10>)
 8021012:	781b      	ldrb	r3, [r3, #0]
 8021014:	4a03      	ldr	r2, [pc, #12]	@ (8021024 <HAL_IncTick+0x14>)
 8021016:	6811      	ldr	r1, [r2, #0]
 8021018:	440b      	add	r3, r1
 802101a:	6013      	str	r3, [r2, #0]
}
 802101c:	4770      	bx	lr
 802101e:	bf00      	nop
 8021020:	24000048 	.word	0x24000048
 8021024:	240001e8 	.word	0x240001e8

08021028 <HAL_GetTick>:
  *       implementations in user file.
  * @retval tick value
  */
__weak uint32_t HAL_GetTick(void)
{
  return uwTick;
 8021028:	4b01      	ldr	r3, [pc, #4]	@ (8021030 <HAL_GetTick+0x8>)
 802102a:	6818      	ldr	r0, [r3, #0]
}
 802102c:	4770      	bx	lr
 802102e:	bf00      	nop
 8021030:	240001e8 	.word	0x240001e8

08021034 <HAL_GetREVID>:
  * @brief  Returns the device revision identifier.
  * @retval Device revision identifier
  */
uint32_t HAL_GetREVID(void)
{
   return((DBGMCU->IDCODE) >> 16);
 8021034:	4b01      	ldr	r3, [pc, #4]	@ (802103c <HAL_GetREVID+0x8>)
 8021036:	6818      	ldr	r0, [r3, #0]
}
 8021038:	0c00      	lsrs	r0, r0, #16
 802103a:	4770      	bx	lr
 802103c:	5c001000 	.word	0x5c001000

08021040 <HAL_SYSCFG_ETHInterfaceSelect>:
void HAL_SYSCFG_ETHInterfaceSelect(uint32_t SYSCFG_ETHInterface)
{
  /* Check the parameter */
  assert_param(IS_SYSCFG_ETHERNET_CONFIG(SYSCFG_ETHInterface));

  MODIFY_REG(SYSCFG->PMCR, SYSCFG_PMCR_EPIS_SEL, (uint32_t)(SYSCFG_ETHInterface));
 8021040:	4a03      	ldr	r2, [pc, #12]	@ (8021050 <HAL_SYSCFG_ETHInterfaceSelect+0x10>)
 8021042:	6853      	ldr	r3, [r2, #4]
 8021044:	f423 0360 	bic.w	r3, r3, #14680064	@ 0xe00000
 8021048:	4303      	orrs	r3, r0
 802104a:	6053      	str	r3, [r2, #4]
}
 802104c:	4770      	bx	lr
 802104e:	bf00      	nop
 8021050:	58000400 	.word	0x58000400

08021054 <__NVIC_SetPriority>:
  if ((int32_t)(IRQn) >= 0)
 8021054:	2800      	cmp	r0, #0
 8021056:	db04      	blt.n	8021062 <__NVIC_SetPriority+0xe>
    NVIC->IP[((uint32_t)IRQn)]                = (uint8_t)((priority << (8U - __NVIC_PRIO_BITS)) & (uint32_t)0xFFUL);
 8021058:	0109      	lsls	r1, r1, #4
 802105a:	b2c9      	uxtb	r1, r1
 802105c:	4b04      	ldr	r3, [pc, #16]	@ (8021070 <__NVIC_SetPriority+0x1c>)
 802105e:	5419      	strb	r1, [r3, r0]
 8021060:	4770      	bx	lr
    SCB->SHPR[(((uint32_t)IRQn) & 0xFUL)-4UL] = (uint8_t)((priority << (8U - __NVIC_PRIO_BITS)) & (uint32_t)0xFFUL);
 8021062:	f000 000f 	and.w	r0, r0, #15
 8021066:	0109      	lsls	r1, r1, #4
 8021068:	b2c9      	uxtb	r1, r1
 802106a:	4b02      	ldr	r3, [pc, #8]	@ (8021074 <__NVIC_SetPriority+0x20>)
 802106c:	5419      	strb	r1, [r3, r0]
}
 802106e:	4770      	bx	lr
 8021070:	e000e400 	.word	0xe000e400
 8021074:	e000ed14 	.word	0xe000ed14

08021078 <NVIC_EncodePriority>:
{
 8021078:	b500      	push	{lr}
  uint32_t PriorityGroupTmp = (PriorityGroup & (uint32_t)0x07UL);   /* only values 0..7 are used          */
 802107a:	f000 0007 	and.w	r0, r0, #7
  PreemptPriorityBits = ((7UL - PriorityGroupTmp) > (uint32_t)(__NVIC_PRIO_BITS)) ? (uint32_t)(__NVIC_PRIO_BITS) : (uint32_t)(7UL - PriorityGroupTmp);
 802107e:	f1c0 0c07 	rsb	ip, r0, #7
 8021082:	f1bc 0f04 	cmp.w	ip, #4
 8021086:	bf28      	it	cs
 8021088:	f04f 0c04 	movcs.w	ip, #4
  SubPriorityBits     = ((PriorityGroupTmp + (uint32_t)(__NVIC_PRIO_BITS)) < (uint32_t)7UL) ? (uint32_t)0UL : (uint32_t)((PriorityGroupTmp - 7UL) + (uint32_t)(__NVIC_PRIO_BITS));
 802108c:	1d03      	adds	r3, r0, #4
 802108e:	2b06      	cmp	r3, #6
 8021090:	d90e      	bls.n	80210b0 <NVIC_EncodePriority+0x38>
 8021092:	1ec3      	subs	r3, r0, #3
           ((PreemptPriority & (uint32_t)((1UL << (PreemptPriorityBits)) - 1UL)) << SubPriorityBits) |
 8021094:	f04f 3eff 	mov.w	lr, #4294967295
 8021098:	fa0e f00c 	lsl.w	r0, lr, ip
 802109c:	ea21 0100 	bic.w	r1, r1, r0
 80210a0:	4099      	lsls	r1, r3
           ((SubPriority     & (uint32_t)((1UL << (SubPriorityBits    )) - 1UL)))
 80210a2:	fa0e fe03 	lsl.w	lr, lr, r3
 80210a6:	ea22 020e 	bic.w	r2, r2, lr
}
 80210aa:	ea41 0002 	orr.w	r0, r1, r2
 80210ae:	bd00      	pop	{pc}
  SubPriorityBits     = ((PriorityGroupTmp + (uint32_t)(__NVIC_PRIO_BITS)) < (uint32_t)7UL) ? (uint32_t)0UL : (uint32_t)((PriorityGroupTmp - 7UL) + (uint32_t)(__NVIC_PRIO_BITS));
 80210b0:	2300      	movs	r3, #0
 80210b2:	e7ef      	b.n	8021094 <NVIC_EncodePriority+0x1c>

080210b4 <HAL_NVIC_SetPriorityGrouping>:
  reg_value  =  SCB->AIRCR;                                                   /* read old register configuration    */
 80210b4:	4906      	ldr	r1, [pc, #24]	@ (80210d0 <HAL_NVIC_SetPriorityGrouping+0x1c>)
 80210b6:	68cb      	ldr	r3, [r1, #12]
  reg_value &= ~((uint32_t)(SCB_AIRCR_VECTKEY_Msk | SCB_AIRCR_PRIGROUP_Msk)); /* clear bits to change               */
 80210b8:	f423 63e0 	bic.w	r3, r3, #1792	@ 0x700
 80210bc:	041b      	lsls	r3, r3, #16
 80210be:	0c1b      	lsrs	r3, r3, #16
                (PriorityGroupTmp << SCB_AIRCR_PRIGROUP_Pos)  );              /* Insert write key and priority group */
 80210c0:	0200      	lsls	r0, r0, #8
 80210c2:	f400 60e0 	and.w	r0, r0, #1792	@ 0x700
                ((uint32_t)0x5FAUL << SCB_AIRCR_VECTKEY_Pos) |
 80210c6:	4303      	orrs	r3, r0
  reg_value  =  (reg_value                                   |
 80210c8:	4a02      	ldr	r2, [pc, #8]	@ (80210d4 <HAL_NVIC_SetPriorityGrouping+0x20>)
 80210ca:	431a      	orrs	r2, r3
  SCB->AIRCR =  reg_value;
 80210cc:	60ca      	str	r2, [r1, #12]
  /* Check the parameters */
  assert_param(IS_NVIC_PRIORITY_GROUP(PriorityGroup));

  /* Set the PRIGROUP[10:8] bits according to the PriorityGroup parameter value */
  NVIC_SetPriorityGrouping(PriorityGroup);
}
 80210ce:	4770      	bx	lr
 80210d0:	e000ed00 	.word	0xe000ed00
 80210d4:	05fa0000 	.word	0x05fa0000

080210d8 <HAL_NVIC_SetPriority>:
  *         This parameter can be a value between 0 and 15
  *         A lower priority value indicates a higher priority.
  * @retval None
  */
void HAL_NVIC_SetPriority(IRQn_Type IRQn, uint32_t PreemptPriority, uint32_t SubPriority)
{
 80210d8:	b510      	push	{r4, lr}
 80210da:	4604      	mov	r4, r0
  return ((uint32_t)((SCB->AIRCR & SCB_AIRCR_PRIGROUP_Msk) >> SCB_AIRCR_PRIGROUP_Pos));
 80210dc:	4b05      	ldr	r3, [pc, #20]	@ (80210f4 <HAL_NVIC_SetPriority+0x1c>)
 80210de:	68d8      	ldr	r0, [r3, #12]
  assert_param(IS_NVIC_SUB_PRIORITY(SubPriority));
  assert_param(IS_NVIC_PREEMPTION_PRIORITY(PreemptPriority));

  prioritygroup = NVIC_GetPriorityGrouping();

  NVIC_SetPriority(IRQn, NVIC_EncodePriority(prioritygroup, PreemptPriority, SubPriority));
 80210e0:	f3c0 2002 	ubfx	r0, r0, #8, #3
 80210e4:	f7ff ffc8 	bl	8021078 <NVIC_EncodePriority>
 80210e8:	4601      	mov	r1, r0
 80210ea:	4620      	mov	r0, r4
 80210ec:	f7ff ffb2 	bl	8021054 <__NVIC_SetPriority>
}
 80210f0:	bd10      	pop	{r4, pc}
 80210f2:	bf00      	nop
 80210f4:	e000ed00 	.word	0xe000ed00

080210f8 <HAL_SYSTICK_Config>:
           function <b>SysTick_Config</b> is not included. In this case, the file <b><i>device</i>.h</b>
           must contain a vendor-specific implementation of this function.
 */
__STATIC_INLINE uint32_t SysTick_Config(uint32_t ticks)
{
  if ((ticks - 1UL) > SysTick_LOAD_RELOAD_Msk)
 80210f8:	3801      	subs	r0, #1
 80210fa:	f1b0 7f80 	cmp.w	r0, #16777216	@ 0x1000000
 80210fe:	d20b      	bcs.n	8021118 <HAL_SYSTICK_Config+0x20>
  {
    return (1UL);                                                   /* Reload value impossible */
  }

  SysTick->LOAD  = (uint32_t)(ticks - 1UL);                         /* set reload register */
 8021100:	f04f 23e0 	mov.w	r3, #3758153728	@ 0xe000e000
 8021104:	6158      	str	r0, [r3, #20]
    SCB->SHPR[(((uint32_t)IRQn) & 0xFUL)-4UL] = (uint8_t)((priority << (8U - __NVIC_PRIO_BITS)) & (uint32_t)0xFFUL);
 8021106:	4a05      	ldr	r2, [pc, #20]	@ (802111c <HAL_SYSTICK_Config+0x24>)
 8021108:	21f0      	movs	r1, #240	@ 0xf0
 802110a:	f882 1023 	strb.w	r1, [r2, #35]	@ 0x23
  NVIC_SetPriority (SysTick_IRQn, (1UL << __NVIC_PRIO_BITS) - 1UL); /* set Priority for Systick Interrupt */
  SysTick->VAL   = 0UL;                                             /* Load the SysTick Counter Value */
 802110e:	2000      	movs	r0, #0
 8021110:	6198      	str	r0, [r3, #24]
  SysTick->CTRL  = SysTick_CTRL_CLKSOURCE_Msk |
 8021112:	2207      	movs	r2, #7
 8021114:	611a      	str	r2, [r3, #16]
                   SysTick_CTRL_TICKINT_Msk   |
                   SysTick_CTRL_ENABLE_Msk;                         /* Enable SysTick IRQ and SysTick Timer */
  return (0UL);                                                     /* Function successful */
 8021116:	4770      	bx	lr
    return (1UL);                                                   /* Reload value impossible */
 8021118:	2001      	movs	r0, #1
  *                  - 1  Function failed.
  */
uint32_t HAL_SYSTICK_Config(uint32_t TicksNumb)
{
   return SysTick_Config(TicksNumb);
}
 802111a:	4770      	bx	lr
 802111c:	e000ed00 	.word	0xe000ed00

08021120 <HAL_MPU_Disable>:
  \details Ensures the apparent order of the explicit memory operations before
           and after the instruction, without ensuring their completion.
 */
__STATIC_FORCEINLINE void __DMB(void)
{
  __ASM volatile ("dmb 0xF":::"memory");
 8021120:	f3bf 8f5f 	dmb	sy
{
  /* Make sure outstanding transfers are done */
  __DMB();

  /* Disable fault exceptions */
  SCB->SHCSR &= ~SCB_SHCSR_MEMFAULTENA_Msk;
 8021124:	4b04      	ldr	r3, [pc, #16]	@ (8021138 <HAL_MPU_Disable+0x18>)
 8021126:	6a5a      	ldr	r2, [r3, #36]	@ 0x24
 8021128:	f422 3280 	bic.w	r2, r2, #65536	@ 0x10000
 802112c:	625a      	str	r2, [r3, #36]	@ 0x24

  /* Disable the MPU and clear the control register*/
  MPU->CTRL = 0;
 802112e:	2200      	movs	r2, #0
 8021130:	f8c3 2094 	str.w	r2, [r3, #148]	@ 0x94
}
 8021134:	4770      	bx	lr
 8021136:	bf00      	nop
 8021138:	e000ed00 	.word	0xe000ed00

0802113c <HAL_MPU_Enable>:
  * @retval None
  */
void HAL_MPU_Enable(uint32_t MPU_Control)
{
  /* Enable the MPU */
  MPU->CTRL = MPU_Control | MPU_CTRL_ENABLE_Msk;
 802113c:	f040 0001 	orr.w	r0, r0, #1
 8021140:	4b05      	ldr	r3, [pc, #20]	@ (8021158 <HAL_MPU_Enable+0x1c>)
 8021142:	f8c3 0094 	str.w	r0, [r3, #148]	@ 0x94

  /* Enable fault exceptions */
  SCB->SHCSR |= SCB_SHCSR_MEMFAULTENA_Msk;
 8021146:	6a5a      	ldr	r2, [r3, #36]	@ 0x24
 8021148:	f442 3280 	orr.w	r2, r2, #65536	@ 0x10000
 802114c:	625a      	str	r2, [r3, #36]	@ 0x24
  __ASM volatile ("dsb 0xF":::"memory");
 802114e:	f3bf 8f4f 	dsb	sy
  __ASM volatile ("isb 0xF":::"memory");
 8021152:	f3bf 8f6f 	isb	sy

  /* Ensure MPU setting take effects */
  __DSB();
  __ISB();
}
 8021156:	4770      	bx	lr
 8021158:	e000ed00 	.word	0xe000ed00

0802115c <HAL_MPU_ConfigRegion>:
  assert_param(IS_MPU_ACCESS_BUFFERABLE(MPU_Init->IsBufferable));
  assert_param(IS_MPU_SUB_REGION_DISABLE(MPU_Init->SubRegionDisable));
  assert_param(IS_MPU_REGION_SIZE(MPU_Init->Size));

  /* Set the Region number */
  MPU->RNR = MPU_Init->Number;
 802115c:	7843      	ldrb	r3, [r0, #1]
 802115e:	4a14      	ldr	r2, [pc, #80]	@ (80211b0 <HAL_MPU_ConfigRegion+0x54>)
 8021160:	f8c2 3098 	str.w	r3, [r2, #152]	@ 0x98

  /* Disable the Region */
  CLEAR_BIT(MPU->RASR, MPU_RASR_ENABLE_Msk);
 8021164:	f8d2 30a0 	ldr.w	r3, [r2, #160]	@ 0xa0
 8021168:	f023 0301 	bic.w	r3, r3, #1
 802116c:	f8c2 30a0 	str.w	r3, [r2, #160]	@ 0xa0

  /* Apply configuration */
  MPU->RBAR = MPU_Init->BaseAddress;
 8021170:	6843      	ldr	r3, [r0, #4]
 8021172:	f8c2 309c 	str.w	r3, [r2, #156]	@ 0x9c
  MPU->RASR = ((uint32_t)MPU_Init->DisableExec             << MPU_RASR_XN_Pos)   |
 8021176:	7b01      	ldrb	r1, [r0, #12]
              ((uint32_t)MPU_Init->AccessPermission        << MPU_RASR_AP_Pos)   |
 8021178:	7ac3      	ldrb	r3, [r0, #11]
 802117a:	061b      	lsls	r3, r3, #24
  MPU->RASR = ((uint32_t)MPU_Init->DisableExec             << MPU_RASR_XN_Pos)   |
 802117c:	ea43 7301 	orr.w	r3, r3, r1, lsl #28
              ((uint32_t)MPU_Init->TypeExtField            << MPU_RASR_TEX_Pos)  |
 8021180:	7a81      	ldrb	r1, [r0, #10]
              ((uint32_t)MPU_Init->AccessPermission        << MPU_RASR_AP_Pos)   |
 8021182:	ea43 43c1 	orr.w	r3, r3, r1, lsl #19
              ((uint32_t)MPU_Init->IsShareable             << MPU_RASR_S_Pos)    |
 8021186:	7b41      	ldrb	r1, [r0, #13]
              ((uint32_t)MPU_Init->TypeExtField            << MPU_RASR_TEX_Pos)  |
 8021188:	ea43 4381 	orr.w	r3, r3, r1, lsl #18
              ((uint32_t)MPU_Init->IsCacheable             << MPU_RASR_C_Pos)    |
 802118c:	7b81      	ldrb	r1, [r0, #14]
              ((uint32_t)MPU_Init->IsShareable             << MPU_RASR_S_Pos)    |
 802118e:	ea43 4341 	orr.w	r3, r3, r1, lsl #17
              ((uint32_t)MPU_Init->IsBufferable            << MPU_RASR_B_Pos)    |
 8021192:	7bc1      	ldrb	r1, [r0, #15]
              ((uint32_t)MPU_Init->IsCacheable             << MPU_RASR_C_Pos)    |
 8021194:	ea43 4301 	orr.w	r3, r3, r1, lsl #16
              ((uint32_t)MPU_Init->SubRegionDisable        << MPU_RASR_SRD_Pos)  |
 8021198:	7a41      	ldrb	r1, [r0, #9]
              ((uint32_t)MPU_Init->IsBufferable            << MPU_RASR_B_Pos)    |
 802119a:	ea43 2301 	orr.w	r3, r3, r1, lsl #8
              ((uint32_t)MPU_Init->Size                    << MPU_RASR_SIZE_Pos) |
 802119e:	7a01      	ldrb	r1, [r0, #8]
              ((uint32_t)MPU_Init->SubRegionDisable        << MPU_RASR_SRD_Pos)  |
 80211a0:	ea43 0341 	orr.w	r3, r3, r1, lsl #1
              ((uint32_t)MPU_Init->Enable                  << MPU_RASR_ENABLE_Pos);
 80211a4:	7801      	ldrb	r1, [r0, #0]
              ((uint32_t)MPU_Init->Size                    << MPU_RASR_SIZE_Pos) |
 80211a6:	430b      	orrs	r3, r1
  MPU->RASR = ((uint32_t)MPU_Init->DisableExec             << MPU_RASR_XN_Pos)   |
 80211a8:	f8c2 30a0 	str.w	r3, [r2, #160]	@ 0xa0
}
 80211ac:	4770      	bx	lr
 80211ae:	bf00      	nop
 80211b0:	e000ed00 	.word	0xe000ed00

080211b4 <ETH_UpdateDescriptor>:
  * @param  heth: pointer to a ETH_HandleTypeDef structure that contains
  *         the configuration information for ETHERNET module
  * @retval HAL status
  */
static void ETH_UpdateDescriptor(ETH_HandleTypeDef *heth)
{
 80211b4:	e92d 41f0 	stmdb	sp!, {r4, r5, r6, r7, r8, lr}
 80211b8:	b082      	sub	sp, #8
 80211ba:	4607      	mov	r7, r0
  uint32_t descidx;
  uint32_t tailidx;
  uint32_t desccount;
  ETH_DMADescTypeDef *dmarxdesc;
  uint8_t *buff = NULL;
 80211bc:	2300      	movs	r3, #0
 80211be:	9301      	str	r3, [sp, #4]
  uint8_t allocStatus = 1U;

  descidx = heth->RxDescList.RxBuildDescIdx;
 80211c0:	f8d0 8068 	ldr.w	r8, [r0, #104]	@ 0x68
  dmarxdesc = (ETH_DMADescTypeDef *)heth->RxDescList.RxDesc[descidx];
 80211c4:	f108 0312 	add.w	r3, r8, #18
 80211c8:	f850 4023 	ldr.w	r4, [r0, r3, lsl #2]
  desccount = heth->RxDescList.RxBuildDescCnt;
 80211cc:	6ec5      	ldr	r5, [r0, #108]	@ 0x6c
  uint8_t allocStatus = 1U;
 80211ce:	2601      	movs	r6, #1

  while ((desccount > 0U) && (allocStatus != 0U))
 80211d0:	e013      	b.n	80211fa <ETH_UpdateDescriptor+0x46>
#if (USE_HAL_ETH_REGISTER_CALLBACKS == 1)
      /*Call registered Allocate callback*/
      heth->rxAllocateCallback(&buff);
#else
      /* Allocate callback */
      HAL_ETH_RxAllocateCallback(&buff);
 80211d2:	a801      	add	r0, sp, #4
 80211d4:	f004 f994 	bl	8025500 <HAL_ETH_RxAllocateCallback>
#endif  /* USE_HAL_ETH_REGISTER_CALLBACKS */
      if (buff == NULL)
 80211d8:	9b01      	ldr	r3, [sp, #4]
 80211da:	b113      	cbz	r3, 80211e2 <ETH_UpdateDescriptor+0x2e>
      {
        allocStatus = 0U;
      }
      else
      {
        WRITE_REG(dmarxdesc->BackupAddr0, (uint32_t)buff);
 80211dc:	6123      	str	r3, [r4, #16]
        WRITE_REG(dmarxdesc->DESC0, (uint32_t)buff);
 80211de:	6023      	str	r3, [r4, #0]
 80211e0:	e011      	b.n	8021206 <ETH_UpdateDescriptor+0x52>
        allocStatus = 0U;
 80211e2:	2600      	movs	r6, #0
 80211e4:	e00f      	b.n	8021206 <ETH_UpdateDescriptor+0x52>
      {
        WRITE_REG(dmarxdesc->DESC3, ETH_DMARXNDESCRF_OWN | ETH_DMARXNDESCRF_BUF1V | ETH_DMARXNDESCRF_IOC);
      }
      else
      {
        WRITE_REG(dmarxdesc->DESC3, ETH_DMARXNDESCRF_OWN | ETH_DMARXNDESCRF_BUF1V);
 80211e6:	f04f 4301 	mov.w	r3, #2164260864	@ 0x81000000
 80211ea:	60e3      	str	r3, [r4, #12]
 80211ec:	e013      	b.n	8021216 <ETH_UpdateDescriptor+0x62>
      }

      /* Increment current rx descriptor index */
      INCR_RX_DESC_INDEX(descidx, 1U);
      /* Get current descriptor address */
      dmarxdesc = (ETH_DMADescTypeDef *)heth->RxDescList.RxDesc[descidx];
 80211ee:	f103 0212 	add.w	r2, r3, #18
 80211f2:	f857 4022 	ldr.w	r4, [r7, r2, lsl #2]
      desccount--;
 80211f6:	3d01      	subs	r5, #1
 80211f8:	4698      	mov	r8, r3
  while ((desccount > 0U) && (allocStatus != 0U))
 80211fa:	b19d      	cbz	r5, 8021224 <ETH_UpdateDescriptor+0x70>
 80211fc:	b196      	cbz	r6, 8021224 <ETH_UpdateDescriptor+0x70>
    if (READ_REG(dmarxdesc->BackupAddr0) == 0U)
 80211fe:	6923      	ldr	r3, [r4, #16]
 8021200:	2b00      	cmp	r3, #0
 8021202:	d0e6      	beq.n	80211d2 <ETH_UpdateDescriptor+0x1e>
      WRITE_REG(dmarxdesc->DESC0, (uint32_t)dmarxdesc->BackupAddr0);
 8021204:	6023      	str	r3, [r4, #0]
    if (allocStatus != 0U)
 8021206:	2e00      	cmp	r6, #0
 8021208:	d0f7      	beq.n	80211fa <ETH_UpdateDescriptor+0x46>
      if (heth->RxDescList.ItMode != 0U)
 802120a:	6dbb      	ldr	r3, [r7, #88]	@ 0x58
 802120c:	2b00      	cmp	r3, #0
 802120e:	d0ea      	beq.n	80211e6 <ETH_UpdateDescriptor+0x32>
        WRITE_REG(dmarxdesc->DESC3, ETH_DMARXNDESCRF_OWN | ETH_DMARXNDESCRF_BUF1V | ETH_DMARXNDESCRF_IOC);
 8021210:	f04f 4341 	mov.w	r3, #3238002688	@ 0xc1000000
 8021214:	60e3      	str	r3, [r4, #12]
      INCR_RX_DESC_INDEX(descidx, 1U);
 8021216:	f108 0301 	add.w	r3, r8, #1
 802121a:	2b03      	cmp	r3, #3
 802121c:	d9e7      	bls.n	80211ee <ETH_UpdateDescriptor+0x3a>
 802121e:	f1a8 0303 	sub.w	r3, r8, #3
 8021222:	e7e4      	b.n	80211ee <ETH_UpdateDescriptor+0x3a>
    }
  }

  if (heth->RxDescList.RxBuildDescCnt != desccount)
 8021224:	6efb      	ldr	r3, [r7, #108]	@ 0x6c
 8021226:	42ab      	cmp	r3, r5
 8021228:	d012      	beq.n	8021250 <ETH_UpdateDescriptor+0x9c>
  {
    /* Set the tail pointer index */
    tailidx = (ETH_RX_DESC_CNT + descidx - 1U) % ETH_RX_DESC_CNT;
 802122a:	f108 0303 	add.w	r3, r8, #3
 802122e:	f003 0303 	and.w	r3, r3, #3
  __ASM volatile ("dmb 0xF":::"memory");
 8021232:	f3bf 8f5f 	dmb	sy

    /* DMB instruction to avoid race condition */
    __DMB();

    /* Set the Tail pointer address */
    WRITE_REG(heth->Instance->DMACRDTPR, ((uint32_t)(heth->Init.RxDesc + (tailidx))));
 8021236:	693a      	ldr	r2, [r7, #16]
 8021238:	eb03 0343 	add.w	r3, r3, r3, lsl #1
 802123c:	eb02 02c3 	add.w	r2, r2, r3, lsl #3
 8021240:	683b      	ldr	r3, [r7, #0]
 8021242:	f503 5380 	add.w	r3, r3, #4096	@ 0x1000
 8021246:	f8c3 2128 	str.w	r2, [r3, #296]	@ 0x128

    heth->RxDescList.RxBuildDescIdx = descidx;
 802124a:	f8c7 8068 	str.w	r8, [r7, #104]	@ 0x68
    heth->RxDescList.RxBuildDescCnt = desccount;
 802124e:	66fd      	str	r5, [r7, #108]	@ 0x6c
  }
}
 8021250:	b002      	add	sp, #8
 8021252:	e8bd 81f0 	ldmia.w	sp!, {r4, r5, r6, r7, r8, pc}
	...

08021258 <ETH_SetMACConfig>:
/** @addtogroup ETH_Private_Functions   ETH Private Functions
  * @{
  */

static void ETH_SetMACConfig(ETH_HandleTypeDef *heth, const ETH_MACConfigTypeDef *macconf)
{
 8021258:	b430      	push	{r4, r5}
  uint32_t macregval;

  /*------------------------ MACCR Configuration --------------------*/
  macregval = (macconf->InterPacketGapVal |
 802125a:	688b      	ldr	r3, [r1, #8]
               macconf->SourceAddrControl |
 802125c:	680a      	ldr	r2, [r1, #0]
  macregval = (macconf->InterPacketGapVal |
 802125e:	4313      	orrs	r3, r2
               ((uint32_t)macconf->ChecksumOffload << 27) |
 8021260:	790a      	ldrb	r2, [r1, #4]
               macconf->SourceAddrControl |
 8021262:	ea43 63c2 	orr.w	r3, r3, r2, lsl #27
               ((uint32_t)macconf->GiantPacketSizeLimitControl << 23) |
 8021266:	7b0a      	ldrb	r2, [r1, #12]
               ((uint32_t)macconf->ChecksumOffload << 27) |
 8021268:	ea43 53c2 	orr.w	r3, r3, r2, lsl #23
               ((uint32_t)macconf->Support2KPacket  << 22) |
 802126c:	7b4a      	ldrb	r2, [r1, #13]
               ((uint32_t)macconf->GiantPacketSizeLimitControl << 23) |
 802126e:	ea43 5382 	orr.w	r3, r3, r2, lsl #22
               ((uint32_t)macconf->CRCStripTypePacket << 21) |
 8021272:	7b8a      	ldrb	r2, [r1, #14]
               ((uint32_t)macconf->Support2KPacket  << 22) |
 8021274:	ea43 5342 	orr.w	r3, r3, r2, lsl #21
               ((uint32_t)macconf->AutomaticPadCRCStrip << 20) |
 8021278:	7bca      	ldrb	r2, [r1, #15]
               ((uint32_t)macconf->CRCStripTypePacket << 21) |
 802127a:	ea43 5302 	orr.w	r3, r3, r2, lsl #20
               ((uint32_t)((macconf->Watchdog == DISABLE) ? 1U : 0U) << 19) |
 802127e:	7c0a      	ldrb	r2, [r1, #16]
 8021280:	2a00      	cmp	r2, #0
 8021282:	f040 80b0 	bne.w	80213e6 <ETH_SetMACConfig+0x18e>
 8021286:	f44f 2200 	mov.w	r2, #524288	@ 0x80000
               ((uint32_t)macconf->AutomaticPadCRCStrip << 20) |
 802128a:	4313      	orrs	r3, r2
               ((uint32_t)((macconf->Jabber == DISABLE) ? 1U : 0U) << 17) |
 802128c:	7c4a      	ldrb	r2, [r1, #17]
 802128e:	2a00      	cmp	r2, #0
 8021290:	f040 80ab 	bne.w	80213ea <ETH_SetMACConfig+0x192>
 8021294:	f44f 3200 	mov.w	r2, #131072	@ 0x20000
               ((uint32_t)((macconf->Watchdog == DISABLE) ? 1U : 0U) << 19) |
 8021298:	4313      	orrs	r3, r2
               ((uint32_t)macconf->JumboPacket << 16) |
 802129a:	7c8a      	ldrb	r2, [r1, #18]
               ((uint32_t)((macconf->Jabber == DISABLE) ? 1U : 0U) << 17) |
 802129c:	ea43 4302 	orr.w	r3, r3, r2, lsl #16
               macconf->Speed |
 80212a0:	694a      	ldr	r2, [r1, #20]
               ((uint32_t)macconf->JumboPacket << 16) |
 80212a2:	4313      	orrs	r3, r2
               macconf->DuplexMode |
 80212a4:	698a      	ldr	r2, [r1, #24]
               macconf->Speed |
 80212a6:	4313      	orrs	r3, r2
               ((uint32_t)macconf->LoopbackMode << 12) |
 80212a8:	7f0a      	ldrb	r2, [r1, #28]
               macconf->DuplexMode |
 80212aa:	ea43 3302 	orr.w	r3, r3, r2, lsl #12
               ((uint32_t)macconf->CarrierSenseBeforeTransmit << 11) |
 80212ae:	7f4a      	ldrb	r2, [r1, #29]
               ((uint32_t)macconf->LoopbackMode << 12) |
 80212b0:	ea43 23c2 	orr.w	r3, r3, r2, lsl #11
               ((uint32_t)((macconf->ReceiveOwn == DISABLE) ? 1U : 0U) << 10) |
 80212b4:	7f8a      	ldrb	r2, [r1, #30]
 80212b6:	2a00      	cmp	r2, #0
 80212b8:	f040 8099 	bne.w	80213ee <ETH_SetMACConfig+0x196>
 80212bc:	f44f 6280 	mov.w	r2, #1024	@ 0x400
               ((uint32_t)macconf->CarrierSenseBeforeTransmit << 11) |
 80212c0:	4313      	orrs	r3, r2
               ((uint32_t)macconf->CarrierSenseDuringTransmit << 9) |
 80212c2:	7fca      	ldrb	r2, [r1, #31]
               ((uint32_t)((macconf->ReceiveOwn == DISABLE) ? 1U : 0U) << 10) |
 80212c4:	ea43 2342 	orr.w	r3, r3, r2, lsl #9
               ((uint32_t)((macconf->RetryTransmission == DISABLE) ? 1U : 0U) << 8) |
 80212c8:	f891 2020 	ldrb.w	r2, [r1, #32]
 80212cc:	2a00      	cmp	r2, #0
 80212ce:	f040 8090 	bne.w	80213f2 <ETH_SetMACConfig+0x19a>
 80212d2:	f44f 7280 	mov.w	r2, #256	@ 0x100
               ((uint32_t)macconf->CarrierSenseDuringTransmit << 9) |
 80212d6:	4313      	orrs	r3, r2
               macconf->BackOffLimit |
 80212d8:	6a4a      	ldr	r2, [r1, #36]	@ 0x24
               ((uint32_t)((macconf->RetryTransmission == DISABLE) ? 1U : 0U) << 8) |
 80212da:	4313      	orrs	r3, r2
               ((uint32_t)macconf->DeferralCheck << 4) |
 80212dc:	f891 2028 	ldrb.w	r2, [r1, #40]	@ 0x28
               macconf->BackOffLimit |
 80212e0:	ea43 1302 	orr.w	r3, r3, r2, lsl #4
               macconf->PreambleLength);
 80212e4:	6aca      	ldr	r2, [r1, #44]	@ 0x2c
  macregval = (macconf->InterPacketGapVal |
 80212e6:	4313      	orrs	r3, r2

  /* Write to MACCR */
  MODIFY_REG(heth->Instance->MACCR, ETH_MACCR_MASK, macregval);
 80212e8:	6804      	ldr	r4, [r0, #0]
 80212ea:	6822      	ldr	r2, [r4, #0]
 80212ec:	f022 427f 	bic.w	r2, r2, #4278190080	@ 0xff000000
 80212f0:	f422 027b 	bic.w	r2, r2, #16449536	@ 0xfb0000
 80212f4:	f422 42fe 	bic.w	r2, r2, #32512	@ 0x7f00
 80212f8:	f022 027c 	bic.w	r2, r2, #124	@ 0x7c
 80212fc:	4313      	orrs	r3, r2
 80212fe:	6023      	str	r3, [r4, #0]

  /*------------------------ MACECR Configuration --------------------*/
  macregval = ((macconf->ExtendedInterPacketGapVal << 25) |
 8021300:	6bca      	ldr	r2, [r1, #60]	@ 0x3c
               ((uint32_t)macconf->ExtendedInterPacketGap << 24) |
 8021302:	f891 3038 	ldrb.w	r3, [r1, #56]	@ 0x38
 8021306:	061b      	lsls	r3, r3, #24
  macregval = ((macconf->ExtendedInterPacketGapVal << 25) |
 8021308:	ea43 6342 	orr.w	r3, r3, r2, lsl #25
               ((uint32_t)macconf->UnicastSlowProtocolPacketDetect << 18) |
 802130c:	f891 2030 	ldrb.w	r2, [r1, #48]	@ 0x30
               ((uint32_t)macconf->ExtendedInterPacketGap << 24) |
 8021310:	ea43 4382 	orr.w	r3, r3, r2, lsl #18
               ((uint32_t)macconf->SlowProtocolDetect << 17) |
 8021314:	f891 2031 	ldrb.w	r2, [r1, #49]	@ 0x31
               ((uint32_t)macconf->UnicastSlowProtocolPacketDetect << 18) |
 8021318:	ea43 4342 	orr.w	r3, r3, r2, lsl #17
               ((uint32_t)((macconf->CRCCheckingRxPackets == DISABLE) ? 1U : 0U) << 16) |
 802131c:	f891 2032 	ldrb.w	r2, [r1, #50]	@ 0x32
 8021320:	2a00      	cmp	r2, #0
 8021322:	d168      	bne.n	80213f6 <ETH_SetMACConfig+0x19e>
 8021324:	f44f 3280 	mov.w	r2, #65536	@ 0x10000
               ((uint32_t)macconf->SlowProtocolDetect << 17) |
 8021328:	4313      	orrs	r3, r2
               macconf->GiantPacketSizeLimit);
 802132a:	6b4a      	ldr	r2, [r1, #52]	@ 0x34
  macregval = ((macconf->ExtendedInterPacketGapVal << 25) |
 802132c:	4313      	orrs	r3, r2

  /* Write to MACECR */
  MODIFY_REG(heth->Instance->MACECR, ETH_MACECR_MASK, macregval);
 802132e:	6804      	ldr	r4, [r0, #0]
 8021330:	6862      	ldr	r2, [r4, #4]
 8021332:	f022 527c 	bic.w	r2, r2, #1056964608	@ 0x3f000000
 8021336:	f422 22ef 	bic.w	r2, r2, #489472	@ 0x77800
 802133a:	f422 62ff 	bic.w	r2, r2, #2040	@ 0x7f8
 802133e:	f022 0207 	bic.w	r2, r2, #7
 8021342:	4313      	orrs	r3, r2
 8021344:	6063      	str	r3, [r4, #4]

  /*------------------------ MACWTR Configuration --------------------*/
  macregval = (((uint32_t)macconf->ProgrammableWatchdog << 8) |
 8021346:	f891 2040 	ldrb.w	r2, [r1, #64]	@ 0x40
               macconf->WatchdogTimeout);
 802134a:	6c4b      	ldr	r3, [r1, #68]	@ 0x44
  macregval = (((uint32_t)macconf->ProgrammableWatchdog << 8) |
 802134c:	ea43 2202 	orr.w	r2, r3, r2, lsl #8

  /* Write to MACWTR */
  MODIFY_REG(heth->Instance->MACWTR, ETH_MACWTR_MASK, macregval);
 8021350:	6804      	ldr	r4, [r0, #0]
 8021352:	68e5      	ldr	r5, [r4, #12]
 8021354:	4b2b      	ldr	r3, [pc, #172]	@ (8021404 <ETH_SetMACConfig+0x1ac>)
 8021356:	402b      	ands	r3, r5
 8021358:	4313      	orrs	r3, r2
 802135a:	60e3      	str	r3, [r4, #12]

  /*------------------------ MACTFCR Configuration --------------------*/
  macregval = (((uint32_t)macconf->TransmitFlowControl << 1) |
 802135c:	f891 2054 	ldrb.w	r2, [r1, #84]	@ 0x54
               macconf->PauseLowThreshold |
 8021360:	6d0b      	ldr	r3, [r1, #80]	@ 0x50
  macregval = (((uint32_t)macconf->TransmitFlowControl << 1) |
 8021362:	ea43 0342 	orr.w	r3, r3, r2, lsl #1
               ((uint32_t)((macconf->ZeroQuantaPause == DISABLE) ? 1U : 0U) << 7) |
 8021366:	f891 204c 	ldrb.w	r2, [r1, #76]	@ 0x4c
 802136a:	2a00      	cmp	r2, #0
 802136c:	d145      	bne.n	80213fa <ETH_SetMACConfig+0x1a2>
 802136e:	2280      	movs	r2, #128	@ 0x80
               macconf->PauseLowThreshold |
 8021370:	4313      	orrs	r3, r2
               (macconf->PauseTime << 16));
 8021372:	6c8a      	ldr	r2, [r1, #72]	@ 0x48
  macregval = (((uint32_t)macconf->TransmitFlowControl << 1) |
 8021374:	ea43 4302 	orr.w	r3, r3, r2, lsl #16

  /* Write to MACTFCR */
  MODIFY_REG(heth->Instance->MACTFCR, ETH_MACTFCR_MASK, macregval);
 8021378:	6804      	ldr	r4, [r0, #0]
 802137a:	6f22      	ldr	r2, [r4, #112]	@ 0x70
 802137c:	f022 02f2 	bic.w	r2, r2, #242	@ 0xf2
 8021380:	0412      	lsls	r2, r2, #16
 8021382:	0c12      	lsrs	r2, r2, #16
 8021384:	4313      	orrs	r3, r2
 8021386:	6723      	str	r3, [r4, #112]	@ 0x70

  /*------------------------ MACRFCR Configuration --------------------*/
  macregval = ((uint32_t)macconf->ReceiveFlowControl |
 8021388:	f891 2056 	ldrb.w	r2, [r1, #86]	@ 0x56
               ((uint32_t)macconf->UnicastPausePacketDetect << 1));
 802138c:	f891 3055 	ldrb.w	r3, [r1, #85]	@ 0x55
  macregval = ((uint32_t)macconf->ReceiveFlowControl |
 8021390:	ea42 0243 	orr.w	r2, r2, r3, lsl #1

  /* Write to MACRFCR */
  MODIFY_REG(heth->Instance->MACRFCR, ETH_MACRFCR_MASK, macregval);
 8021394:	6804      	ldr	r4, [r0, #0]
 8021396:	f8d4 3090 	ldr.w	r3, [r4, #144]	@ 0x90
 802139a:	f023 0303 	bic.w	r3, r3, #3
 802139e:	4313      	orrs	r3, r2
 80213a0:	f8c4 3090 	str.w	r3, [r4, #144]	@ 0x90

  /*------------------------ MTLTQOMR Configuration --------------------*/
  /* Write to MTLTQOMR */
  MODIFY_REG(heth->Instance->MTLTQOMR, ETH_MTLTQOMR_MASK, macconf->TransmitQueueMode);
 80213a4:	6802      	ldr	r2, [r0, #0]
 80213a6:	f8d2 3d00 	ldr.w	r3, [r2, #3328]	@ 0xd00
 80213aa:	f023 0372 	bic.w	r3, r3, #114	@ 0x72
 80213ae:	6d8c      	ldr	r4, [r1, #88]	@ 0x58
 80213b0:	4323      	orrs	r3, r4
 80213b2:	f8c2 3d00 	str.w	r3, [r2, #3328]	@ 0xd00

  /*------------------------ MTLRQOMR Configuration --------------------*/
  macregval = (macconf->ReceiveQueueMode |
 80213b6:	6dcb      	ldr	r3, [r1, #92]	@ 0x5c
               ((uint32_t)((macconf->DropTCPIPChecksumErrorPacket == DISABLE) ? 1U : 0U) << 6) |
 80213b8:	f891 2060 	ldrb.w	r2, [r1, #96]	@ 0x60
 80213bc:	b9fa      	cbnz	r2, 80213fe <ETH_SetMACConfig+0x1a6>
 80213be:	2240      	movs	r2, #64	@ 0x40
  macregval = (macconf->ReceiveQueueMode |
 80213c0:	4313      	orrs	r3, r2
               ((uint32_t)macconf->ForwardRxErrorPacket << 4) |
 80213c2:	f891 2061 	ldrb.w	r2, [r1, #97]	@ 0x61
               ((uint32_t)((macconf->DropTCPIPChecksumErrorPacket == DISABLE) ? 1U : 0U) << 6) |
 80213c6:	ea43 1302 	orr.w	r3, r3, r2, lsl #4
               ((uint32_t)macconf->ForwardRxUndersizedGoodPacket << 3));
 80213ca:	f891 2062 	ldrb.w	r2, [r1, #98]	@ 0x62
  macregval = (macconf->ReceiveQueueMode |
 80213ce:	ea43 03c2 	orr.w	r3, r3, r2, lsl #3

  /* Write to MTLRQOMR */
  MODIFY_REG(heth->Instance->MTLRQOMR, ETH_MTLRQOMR_MASK, macregval);
 80213d2:	6801      	ldr	r1, [r0, #0]
 80213d4:	f8d1 2d30 	ldr.w	r2, [r1, #3376]	@ 0xd30
 80213d8:	f022 027b 	bic.w	r2, r2, #123	@ 0x7b
 80213dc:	4313      	orrs	r3, r2
 80213de:	f8c1 3d30 	str.w	r3, [r1, #3376]	@ 0xd30
}
 80213e2:	bc30      	pop	{r4, r5}
 80213e4:	4770      	bx	lr
               ((uint32_t)((macconf->Watchdog == DISABLE) ? 1U : 0U) << 19) |
 80213e6:	2200      	movs	r2, #0
 80213e8:	e74f      	b.n	802128a <ETH_SetMACConfig+0x32>
               ((uint32_t)((macconf->Jabber == DISABLE) ? 1U : 0U) << 17) |
 80213ea:	2200      	movs	r2, #0
 80213ec:	e754      	b.n	8021298 <ETH_SetMACConfig+0x40>
               ((uint32_t)((macconf->ReceiveOwn == DISABLE) ? 1U : 0U) << 10) |
 80213ee:	2200      	movs	r2, #0
 80213f0:	e766      	b.n	80212c0 <ETH_SetMACConfig+0x68>
               ((uint32_t)((macconf->RetryTransmission == DISABLE) ? 1U : 0U) << 8) |
 80213f2:	2200      	movs	r2, #0
 80213f4:	e76f      	b.n	80212d6 <ETH_SetMACConfig+0x7e>
               ((uint32_t)((macconf->CRCCheckingRxPackets == DISABLE) ? 1U : 0U) << 16) |
 80213f6:	2200      	movs	r2, #0
 80213f8:	e796      	b.n	8021328 <ETH_SetMACConfig+0xd0>
               ((uint32_t)((macconf->ZeroQuantaPause == DISABLE) ? 1U : 0U) << 7) |
 80213fa:	2200      	movs	r2, #0
 80213fc:	e7b8      	b.n	8021370 <ETH_SetMACConfig+0x118>
               ((uint32_t)((macconf->DropTCPIPChecksumErrorPacket == DISABLE) ? 1U : 0U) << 6) |
 80213fe:	2200      	movs	r2, #0
 8021400:	e7de      	b.n	80213c0 <ETH_SetMACConfig+0x168>
 8021402:	bf00      	nop
 8021404:	fffffef0 	.word	0xfffffef0

08021408 <ETH_SetDMAConfig>:

static void ETH_SetDMAConfig(ETH_HandleTypeDef *heth, const ETH_DMAConfigTypeDef *dmaconf)
{
 8021408:	b410      	push	{r4}
  uint32_t dmaregval;

  /*------------------------ DMAMR Configuration --------------------*/
  MODIFY_REG(heth->Instance->DMAMR, ETH_DMAMR_MASK, dmaconf->DMAArbitration);
 802140a:	6802      	ldr	r2, [r0, #0]
 802140c:	f502 5280 	add.w	r2, r2, #4096	@ 0x1000
 8021410:	6814      	ldr	r4, [r2, #0]
 8021412:	4b23      	ldr	r3, [pc, #140]	@ (80214a0 <ETH_SetDMAConfig+0x98>)
 8021414:	4023      	ands	r3, r4
 8021416:	680c      	ldr	r4, [r1, #0]
 8021418:	4323      	orrs	r3, r4
 802141a:	6013      	str	r3, [r2, #0]

  /*------------------------ DMASBMR Configuration --------------------*/
  dmaregval = (((uint32_t)dmaconf->AddressAlignedBeats << 12) |
 802141c:	790a      	ldrb	r2, [r1, #4]
               dmaconf->BurstMode |
 802141e:	688b      	ldr	r3, [r1, #8]
  dmaregval = (((uint32_t)dmaconf->AddressAlignedBeats << 12) |
 8021420:	ea43 3302 	orr.w	r3, r3, r2, lsl #12
               ((uint32_t)dmaconf->RebuildINCRxBurst << 15));
 8021424:	7b0a      	ldrb	r2, [r1, #12]
  dmaregval = (((uint32_t)dmaconf->AddressAlignedBeats << 12) |
 8021426:	ea43 32c2 	orr.w	r2, r3, r2, lsl #15

  MODIFY_REG(heth->Instance->DMASBMR, ETH_DMASBMR_MASK, dmaregval);
 802142a:	6803      	ldr	r3, [r0, #0]
 802142c:	f503 5c80 	add.w	ip, r3, #4096	@ 0x1000
 8021430:	f8dc 4004 	ldr.w	r4, [ip, #4]
 8021434:	4b1b      	ldr	r3, [pc, #108]	@ (80214a4 <ETH_SetDMAConfig+0x9c>)
 8021436:	4023      	ands	r3, r4
 8021438:	4313      	orrs	r3, r2
 802143a:	f8cc 3004 	str.w	r3, [ip, #4]

  /*------------------------ DMACCR Configuration --------------------*/
  dmaregval = (((uint32_t)dmaconf->PBLx8Mode << 16) |
 802143e:	7b4a      	ldrb	r2, [r1, #13]
               dmaconf->MaximumSegmentSize);
 8021440:	6a0b      	ldr	r3, [r1, #32]
  dmaregval = (((uint32_t)dmaconf->PBLx8Mode << 16) |
 8021442:	ea43 4c02 	orr.w	ip, r3, r2, lsl #16
  MODIFY_REG(heth->Instance->DMACCR, ETH_DMACCR_MASK, dmaregval);
 8021446:	6802      	ldr	r2, [r0, #0]
 8021448:	f502 5280 	add.w	r2, r2, #4096	@ 0x1000
 802144c:	f8d2 4100 	ldr.w	r4, [r2, #256]	@ 0x100
 8021450:	4b15      	ldr	r3, [pc, #84]	@ (80214a8 <ETH_SetDMAConfig+0xa0>)
 8021452:	4023      	ands	r3, r4
 8021454:	ea43 030c 	orr.w	r3, r3, ip
 8021458:	f8c2 3100 	str.w	r3, [r2, #256]	@ 0x100

  /*------------------------ DMACTCR Configuration --------------------*/
  dmaregval = (dmaconf->TxDMABurstLength |
 802145c:	690b      	ldr	r3, [r1, #16]
               ((uint32_t)dmaconf->SecondPacketOperate << 4) |
 802145e:	7d0a      	ldrb	r2, [r1, #20]
  dmaregval = (dmaconf->TxDMABurstLength |
 8021460:	ea43 1302 	orr.w	r3, r3, r2, lsl #4
               ((uint32_t)dmaconf->TCPSegmentation << 12));
 8021464:	7f4a      	ldrb	r2, [r1, #29]
  dmaregval = (dmaconf->TxDMABurstLength |
 8021466:	ea43 3202 	orr.w	r2, r3, r2, lsl #12

  MODIFY_REG(heth->Instance->DMACTCR, ETH_DMACTCR_MASK, dmaregval);
 802146a:	6803      	ldr	r3, [r0, #0]
 802146c:	f503 5c80 	add.w	ip, r3, #4096	@ 0x1000
 8021470:	f8dc 4104 	ldr.w	r4, [ip, #260]	@ 0x104
 8021474:	4b0d      	ldr	r3, [pc, #52]	@ (80214ac <ETH_SetDMAConfig+0xa4>)
 8021476:	4023      	ands	r3, r4
 8021478:	4313      	orrs	r3, r2
 802147a:	f8cc 3104 	str.w	r3, [ip, #260]	@ 0x104

  /*------------------------ DMACRCR Configuration --------------------*/
  dmaregval = (((uint32_t)dmaconf->FlushRxPacket  << 31) |
 802147e:	7f0b      	ldrb	r3, [r1, #28]
               dmaconf->RxDMABurstLength);
 8021480:	6989      	ldr	r1, [r1, #24]
  dmaregval = (((uint32_t)dmaconf->FlushRxPacket  << 31) |
 8021482:	ea41 71c3 	orr.w	r1, r1, r3, lsl #31

  /* Write to DMACRCR */
  MODIFY_REG(heth->Instance->DMACRCR, ETH_DMACRCR_MASK, dmaregval);
 8021486:	6802      	ldr	r2, [r0, #0]
 8021488:	f502 5280 	add.w	r2, r2, #4096	@ 0x1000
 802148c:	f8d2 0108 	ldr.w	r0, [r2, #264]	@ 0x108
 8021490:	4b07      	ldr	r3, [pc, #28]	@ (80214b0 <ETH_SetDMAConfig+0xa8>)
 8021492:	4003      	ands	r3, r0
 8021494:	430b      	orrs	r3, r1
 8021496:	f8c2 3108 	str.w	r3, [r2, #264]	@ 0x108
}
 802149a:	f85d 4b04 	ldr.w	r4, [sp], #4
 802149e:	4770      	bx	lr
 80214a0:	ffff87fd 	.word	0xffff87fd
 80214a4:	ffff2ffe 	.word	0xffff2ffe
 80214a8:	fffec000 	.word	0xfffec000
 80214ac:	ffc0efef 	.word	0xffc0efef
 80214b0:	7fc0ffff 	.word	0x7fc0ffff

080214b4 <ETH_MACDMAConfig>:
  * @param  heth: pointer to a ETH_HandleTypeDef structure that contains
  *         the configuration information for ETHERNET module
  * @retval HAL status
  */
static void ETH_MACDMAConfig(ETH_HandleTypeDef *heth)
{
 80214b4:	b570      	push	{r4, r5, r6, lr}
 80214b6:	b0a2      	sub	sp, #136	@ 0x88
 80214b8:	4606      	mov	r6, r0
  ETH_MACConfigTypeDef macDefaultConf;
  ETH_DMAConfigTypeDef dmaDefaultConf;

  /*--------------- ETHERNET MAC registers default Configuration --------------*/
  macDefaultConf.AutomaticPadCRCStrip = ENABLE;
 80214ba:	2501      	movs	r5, #1
 80214bc:	f88d 5033 	strb.w	r5, [sp, #51]	@ 0x33
  macDefaultConf.BackOffLimit = ETH_BACKOFFLIMIT_10;
 80214c0:	2400      	movs	r4, #0
 80214c2:	9412      	str	r4, [sp, #72]	@ 0x48
  macDefaultConf.CarrierSenseBeforeTransmit = DISABLE;
 80214c4:	f88d 4041 	strb.w	r4, [sp, #65]	@ 0x41
  macDefaultConf.CarrierSenseDuringTransmit = DISABLE;
 80214c8:	f88d 4043 	strb.w	r4, [sp, #67]	@ 0x43
  macDefaultConf.ChecksumOffload = ENABLE;
 80214cc:	f88d 5028 	strb.w	r5, [sp, #40]	@ 0x28
  macDefaultConf.CRCCheckingRxPackets = ENABLE;
 80214d0:	f88d 5056 	strb.w	r5, [sp, #86]	@ 0x56
  macDefaultConf.CRCStripTypePacket = ENABLE;
 80214d4:	f88d 5032 	strb.w	r5, [sp, #50]	@ 0x32
  macDefaultConf.DeferralCheck = DISABLE;
 80214d8:	f88d 404c 	strb.w	r4, [sp, #76]	@ 0x4c
  macDefaultConf.DropTCPIPChecksumErrorPacket = ENABLE;
 80214dc:	f88d 5084 	strb.w	r5, [sp, #132]	@ 0x84
  macDefaultConf.DuplexMode = ETH_FULLDUPLEX_MODE;
 80214e0:	f44f 5300 	mov.w	r3, #8192	@ 0x2000
 80214e4:	930f      	str	r3, [sp, #60]	@ 0x3c
  macDefaultConf.ExtendedInterPacketGap = DISABLE;
 80214e6:	f88d 405c 	strb.w	r4, [sp, #92]	@ 0x5c
  macDefaultConf.ExtendedInterPacketGapVal = 0x0U;
 80214ea:	9418      	str	r4, [sp, #96]	@ 0x60
  macDefaultConf.ForwardRxErrorPacket = DISABLE;
 80214ec:	f88d 4085 	strb.w	r4, [sp, #133]	@ 0x85
  macDefaultConf.ForwardRxUndersizedGoodPacket = DISABLE;
 80214f0:	f88d 4086 	strb.w	r4, [sp, #134]	@ 0x86
  macDefaultConf.GiantPacketSizeLimit = 0x618U;
 80214f4:	f44f 63c3 	mov.w	r3, #1560	@ 0x618
 80214f8:	9316      	str	r3, [sp, #88]	@ 0x58
  macDefaultConf.GiantPacketSizeLimitControl = DISABLE;
 80214fa:	f88d 4030 	strb.w	r4, [sp, #48]	@ 0x30
  macDefaultConf.InterPacketGapVal = ETH_INTERPACKETGAP_96BIT;
 80214fe:	940b      	str	r4, [sp, #44]	@ 0x2c
  macDefaultConf.Jabber = ENABLE;
 8021500:	f88d 5035 	strb.w	r5, [sp, #53]	@ 0x35
  macDefaultConf.JumboPacket = DISABLE;
 8021504:	f88d 4036 	strb.w	r4, [sp, #54]	@ 0x36
  macDefaultConf.LoopbackMode = DISABLE;
 8021508:	f88d 4040 	strb.w	r4, [sp, #64]	@ 0x40
  macDefaultConf.PauseLowThreshold = ETH_PAUSELOWTHRESHOLD_MINUS_4;
 802150c:	941d      	str	r4, [sp, #116]	@ 0x74
  macDefaultConf.PauseTime = 0x0U;
 802150e:	941b      	str	r4, [sp, #108]	@ 0x6c
  macDefaultConf.PreambleLength = ETH_PREAMBLELENGTH_7;
 8021510:	9414      	str	r4, [sp, #80]	@ 0x50
  macDefaultConf.ProgrammableWatchdog = DISABLE;
 8021512:	f88d 4064 	strb.w	r4, [sp, #100]	@ 0x64
  macDefaultConf.ReceiveFlowControl = DISABLE;
 8021516:	f88d 407a 	strb.w	r4, [sp, #122]	@ 0x7a
  macDefaultConf.ReceiveOwn = ENABLE;
 802151a:	f88d 5042 	strb.w	r5, [sp, #66]	@ 0x42
  macDefaultConf.ReceiveQueueMode = ETH_RECEIVESTOREFORWARD;
 802151e:	2320      	movs	r3, #32
 8021520:	9320      	str	r3, [sp, #128]	@ 0x80
  macDefaultConf.RetryTransmission = ENABLE;
 8021522:	f88d 5044 	strb.w	r5, [sp, #68]	@ 0x44
  macDefaultConf.SlowProtocolDetect = DISABLE;
 8021526:	f88d 4055 	strb.w	r4, [sp, #85]	@ 0x55
  macDefaultConf.SourceAddrControl = ETH_SOURCEADDRESS_REPLACE_ADDR0;
 802152a:	f04f 5340 	mov.w	r3, #805306368	@ 0x30000000
 802152e:	9309      	str	r3, [sp, #36]	@ 0x24
  macDefaultConf.Speed = ETH_SPEED_100M;
 8021530:	f44f 4380 	mov.w	r3, #16384	@ 0x4000
 8021534:	930e      	str	r3, [sp, #56]	@ 0x38
  macDefaultConf.Support2KPacket = DISABLE;
 8021536:	f88d 4031 	strb.w	r4, [sp, #49]	@ 0x31
  macDefaultConf.TransmitQueueMode = ETH_TRANSMITSTOREFORWARD;
 802153a:	2302      	movs	r3, #2
 802153c:	931f      	str	r3, [sp, #124]	@ 0x7c
  macDefaultConf.TransmitFlowControl = DISABLE;
 802153e:	f88d 4078 	strb.w	r4, [sp, #120]	@ 0x78
  macDefaultConf.UnicastPausePacketDetect = DISABLE;
 8021542:	f88d 4079 	strb.w	r4, [sp, #121]	@ 0x79
  macDefaultConf.UnicastSlowProtocolPacketDetect = DISABLE;
 8021546:	f88d 4054 	strb.w	r4, [sp, #84]	@ 0x54
  macDefaultConf.Watchdog = ENABLE;
 802154a:	f88d 5034 	strb.w	r5, [sp, #52]	@ 0x34
  macDefaultConf.WatchdogTimeout =  ETH_MACWTR_WTO_2KB;
 802154e:	941a      	str	r4, [sp, #104]	@ 0x68
  macDefaultConf.ZeroQuantaPause = ENABLE;
 8021550:	f88d 5070 	strb.w	r5, [sp, #112]	@ 0x70

  /* MAC default configuration */
  ETH_SetMACConfig(heth, &macDefaultConf);
 8021554:	a909      	add	r1, sp, #36	@ 0x24
 8021556:	f7ff fe7f 	bl	8021258 <ETH_SetMACConfig>

  /*--------------- ETHERNET DMA registers default Configuration --------------*/
  dmaDefaultConf.AddressAlignedBeats = ENABLE;
 802155a:	f88d 5004 	strb.w	r5, [sp, #4]
  dmaDefaultConf.BurstMode = ETH_BURSTLENGTH_FIXED;
 802155e:	9502      	str	r5, [sp, #8]
  dmaDefaultConf.DMAArbitration = ETH_DMAARBITRATION_RX1_TX1;
 8021560:	9400      	str	r4, [sp, #0]
  dmaDefaultConf.FlushRxPacket = DISABLE;
 8021562:	f88d 401c 	strb.w	r4, [sp, #28]
  dmaDefaultConf.PBLx8Mode = DISABLE;
 8021566:	f88d 400d 	strb.w	r4, [sp, #13]
  dmaDefaultConf.RebuildINCRxBurst = DISABLE;
 802156a:	f88d 400c 	strb.w	r4, [sp, #12]
  dmaDefaultConf.RxDMABurstLength = ETH_RXDMABURSTLENGTH_32BEAT;
 802156e:	f44f 1300 	mov.w	r3, #2097152	@ 0x200000
 8021572:	9306      	str	r3, [sp, #24]
  dmaDefaultConf.SecondPacketOperate = DISABLE;
 8021574:	f88d 4014 	strb.w	r4, [sp, #20]
  dmaDefaultConf.TxDMABurstLength = ETH_TXDMABURSTLENGTH_32BEAT;
 8021578:	9304      	str	r3, [sp, #16]
  dmaDefaultConf.TCPSegmentation = DISABLE;
 802157a:	f88d 401d 	strb.w	r4, [sp, #29]
  dmaDefaultConf.MaximumSegmentSize = ETH_SEGMENT_SIZE_DEFAULT;
 802157e:	f44f 7306 	mov.w	r3, #536	@ 0x218
 8021582:	9308      	str	r3, [sp, #32]

  /* DMA default configuration */
  ETH_SetDMAConfig(heth, &dmaDefaultConf);
 8021584:	4669      	mov	r1, sp
 8021586:	4630      	mov	r0, r6
 8021588:	f7ff ff3e 	bl	8021408 <ETH_SetDMAConfig>
}
 802158c:	b022      	add	sp, #136	@ 0x88
 802158e:	bd70      	pop	{r4, r5, r6, pc}

08021590 <ETH_DMATxDescListInit>:
  * @param  heth: pointer to a ETH_HandleTypeDef structure that contains
  *         the configuration information for ETHERNET module
  * @retval None
  */
static void ETH_DMATxDescListInit(ETH_HandleTypeDef *heth)
{
 8021590:	b410      	push	{r4}
  ETH_DMADescTypeDef *dmatxdesc;
  uint32_t i;

  /* Fill each DMATxDesc descriptor with the right values */
  for (i = 0; i < (uint32_t)ETH_TX_DESC_CNT; i++)
 8021592:	2200      	movs	r2, #0
 8021594:	e010      	b.n	80215b8 <ETH_DMATxDescListInit+0x28>
  {
    dmatxdesc = heth->Init.TxDesc + i;
 8021596:	68c4      	ldr	r4, [r0, #12]
 8021598:	eb02 0342 	add.w	r3, r2, r2, lsl #1
 802159c:	ea4f 0cc3 	mov.w	ip, r3, lsl #3
 80215a0:	eb04 03c3 	add.w	r3, r4, r3, lsl #3

    WRITE_REG(dmatxdesc->DESC0, 0x0U);
 80215a4:	2100      	movs	r1, #0
 80215a6:	f844 100c 	str.w	r1, [r4, ip]
    WRITE_REG(dmatxdesc->DESC1, 0x0U);
 80215aa:	6059      	str	r1, [r3, #4]
    WRITE_REG(dmatxdesc->DESC2, 0x0U);
 80215ac:	6099      	str	r1, [r3, #8]
    WRITE_REG(dmatxdesc->DESC3, 0x0U);
 80215ae:	60d9      	str	r1, [r3, #12]

    WRITE_REG(heth->TxDescList.TxDesc[i], (uint32_t)dmatxdesc);
 80215b0:	1d91      	adds	r1, r2, #6
 80215b2:	f840 3021 	str.w	r3, [r0, r1, lsl #2]
  for (i = 0; i < (uint32_t)ETH_TX_DESC_CNT; i++)
 80215b6:	3201      	adds	r2, #1
 80215b8:	2a03      	cmp	r2, #3
 80215ba:	d9ec      	bls.n	8021596 <ETH_DMATxDescListInit+0x6>

  }

  heth->TxDescList.CurTxDesc = 0;
 80215bc:	2300      	movs	r3, #0
 80215be:	6283      	str	r3, [r0, #40]	@ 0x28

  /* Set Transmit Descriptor Ring Length */
  WRITE_REG(heth->Instance->DMACTDRLR, (ETH_TX_DESC_CNT - 1U));
 80215c0:	6803      	ldr	r3, [r0, #0]
 80215c2:	f503 5380 	add.w	r3, r3, #4096	@ 0x1000
 80215c6:	2203      	movs	r2, #3
 80215c8:	f8c3 212c 	str.w	r2, [r3, #300]	@ 0x12c

  /* Set Transmit Descriptor List Address */
  WRITE_REG(heth->Instance->DMACTDLAR, (uint32_t) heth->Init.TxDesc);
 80215cc:	68c2      	ldr	r2, [r0, #12]
 80215ce:	6803      	ldr	r3, [r0, #0]
 80215d0:	f503 5380 	add.w	r3, r3, #4096	@ 0x1000
 80215d4:	f8c3 2114 	str.w	r2, [r3, #276]	@ 0x114

  /* Set Transmit Descriptor Tail pointer */
  WRITE_REG(heth->Instance->DMACTDTPR, (uint32_t) heth->Init.TxDesc);
 80215d8:	68c2      	ldr	r2, [r0, #12]
 80215da:	6803      	ldr	r3, [r0, #0]
 80215dc:	f503 5380 	add.w	r3, r3, #4096	@ 0x1000
 80215e0:	f8c3 2120 	str.w	r2, [r3, #288]	@ 0x120
}
 80215e4:	f85d 4b04 	ldr.w	r4, [sp], #4
 80215e8:	4770      	bx	lr

080215ea <ETH_DMARxDescListInit>:
  * @param  heth: pointer to a ETH_HandleTypeDef structure that contains
  *         the configuration information for ETHERNET module
  * @retval None
  */
static void ETH_DMARxDescListInit(ETH_HandleTypeDef *heth)
{
 80215ea:	b410      	push	{r4}
  ETH_DMADescTypeDef *dmarxdesc;
  uint32_t i;

  for (i = 0; i < (uint32_t)ETH_RX_DESC_CNT; i++)
 80215ec:	2100      	movs	r1, #0
 80215ee:	e013      	b.n	8021618 <ETH_DMARxDescListInit+0x2e>
  {
    dmarxdesc =  heth->Init.RxDesc + i;
 80215f0:	6904      	ldr	r4, [r0, #16]
 80215f2:	eb01 0341 	add.w	r3, r1, r1, lsl #1
 80215f6:	ea4f 0cc3 	mov.w	ip, r3, lsl #3
 80215fa:	eb04 03c3 	add.w	r3, r4, r3, lsl #3

    WRITE_REG(dmarxdesc->DESC0, 0x0U);
 80215fe:	2200      	movs	r2, #0
 8021600:	f844 200c 	str.w	r2, [r4, ip]
    WRITE_REG(dmarxdesc->DESC1, 0x0U);
 8021604:	605a      	str	r2, [r3, #4]
    WRITE_REG(dmarxdesc->DESC2, 0x0U);
 8021606:	609a      	str	r2, [r3, #8]
    WRITE_REG(dmarxdesc->DESC3, 0x0U);
 8021608:	60da      	str	r2, [r3, #12]
    WRITE_REG(dmarxdesc->BackupAddr0, 0x0U);
 802160a:	611a      	str	r2, [r3, #16]
    WRITE_REG(dmarxdesc->BackupAddr1, 0x0U);
 802160c:	615a      	str	r2, [r3, #20]

    /* Set Rx descritors addresses */
    WRITE_REG(heth->RxDescList.RxDesc[i], (uint32_t)dmarxdesc);
 802160e:	f101 0212 	add.w	r2, r1, #18
 8021612:	f840 3022 	str.w	r3, [r0, r2, lsl #2]
  for (i = 0; i < (uint32_t)ETH_RX_DESC_CNT; i++)
 8021616:	3101      	adds	r1, #1
 8021618:	2903      	cmp	r1, #3
 802161a:	d9e9      	bls.n	80215f0 <ETH_DMARxDescListInit+0x6>

  }

  WRITE_REG(heth->RxDescList.RxDescIdx, 0U);
 802161c:	2300      	movs	r3, #0
 802161e:	65c3      	str	r3, [r0, #92]	@ 0x5c
  WRITE_REG(heth->RxDescList.RxDescCnt, 0U);
 8021620:	6603      	str	r3, [r0, #96]	@ 0x60
  WRITE_REG(heth->RxDescList.RxBuildDescIdx, 0U);
 8021622:	6683      	str	r3, [r0, #104]	@ 0x68
  WRITE_REG(heth->RxDescList.RxBuildDescCnt, 0U);
 8021624:	66c3      	str	r3, [r0, #108]	@ 0x6c
  WRITE_REG(heth->RxDescList.ItMode, 0U);
 8021626:	6583      	str	r3, [r0, #88]	@ 0x58

  /* Set Receive Descriptor Ring Length */
  WRITE_REG(heth->Instance->DMACRDRLR, ((uint32_t)(ETH_RX_DESC_CNT - 1U)));
 8021628:	6803      	ldr	r3, [r0, #0]
 802162a:	f503 5380 	add.w	r3, r3, #4096	@ 0x1000
 802162e:	2203      	movs	r2, #3
 8021630:	f8c3 2130 	str.w	r2, [r3, #304]	@ 0x130

  /* Set Receive Descriptor List Address */
  WRITE_REG(heth->Instance->DMACRDLAR, (uint32_t) heth->Init.RxDesc);
 8021634:	6902      	ldr	r2, [r0, #16]
 8021636:	6803      	ldr	r3, [r0, #0]
 8021638:	f503 5380 	add.w	r3, r3, #4096	@ 0x1000
 802163c:	f8c3 211c 	str.w	r2, [r3, #284]	@ 0x11c

  /* Set Receive Descriptor Tail pointer Address */
  WRITE_REG(heth->Instance->DMACRDTPR, ((uint32_t)(heth->Init.RxDesc + (uint32_t)(ETH_RX_DESC_CNT - 1U))));
 8021640:	6903      	ldr	r3, [r0, #16]
 8021642:	f103 0248 	add.w	r2, r3, #72	@ 0x48
 8021646:	6803      	ldr	r3, [r0, #0]
 8021648:	f503 5380 	add.w	r3, r3, #4096	@ 0x1000
 802164c:	f8c3 2128 	str.w	r2, [r3, #296]	@ 0x128
}
 8021650:	f85d 4b04 	ldr.w	r4, [sp], #4
 8021654:	4770      	bx	lr
	...

08021658 <ETH_Prepare_Tx_Descriptors>:
  * @param  ItMode: Enable or disable Tx EOT interrupt
  * @retval Status
  */
static uint32_t ETH_Prepare_Tx_Descriptors(ETH_HandleTypeDef *heth, const ETH_TxPacketConfigTypeDef *pTxConfig,
                                           uint32_t ItMode)
{
 8021658:	e92d 41f0 	stmdb	sp!, {r4, r5, r6, r7, r8, lr}
 802165c:	4690      	mov	r8, r2
  ETH_TxDescListTypeDef *dmatxdesclist = &heth->TxDescList;
  uint32_t descidx = dmatxdesclist->CurTxDesc;
 802165e:	6a84      	ldr	r4, [r0, #40]	@ 0x28
  uint32_t firstdescidx = dmatxdesclist->CurTxDesc;
  uint32_t idx;
  uint32_t descnbr = 0;
  ETH_DMADescTypeDef *dmatxdesc = (ETH_DMADescTypeDef *)dmatxdesclist->TxDesc[descidx];
 8021660:	eb00 0384 	add.w	r3, r0, r4, lsl #2
 8021664:	699b      	ldr	r3, [r3, #24]

  ETH_BufferTypeDef  *txbuffer = pTxConfig->TxBuffer;
 8021666:	f8d1 c008 	ldr.w	ip, [r1, #8]
  uint32_t           bd_count = 0;
  uint32_t primask_bit;

  /* Current Tx Descriptor Owned by DMA: cannot be used by the application  */
  if ((READ_BIT(dmatxdesc->DESC3, ETH_DMATXNDESCWBF_OWN) == ETH_DMATXNDESCWBF_OWN)
 802166a:	68da      	ldr	r2, [r3, #12]
 802166c:	2a00      	cmp	r2, #0
 802166e:	f2c0 8192 	blt.w	8021996 <ETH_Prepare_Tx_Descriptors+0x33e>
      || (dmatxdesclist->PacketAddress[descidx] != NULL))
 8021672:	1d22      	adds	r2, r4, #4
 8021674:	eb00 0282 	add.w	r2, r0, r2, lsl #2
 8021678:	69d2      	ldr	r2, [r2, #28]
 802167a:	2a00      	cmp	r2, #0
 802167c:	f040 818d 	bne.w	802199a <ETH_Prepare_Tx_Descriptors+0x342>

  /***************************************************************************/
  /*****************    Context descriptor configuration (Optional) **********/
  /***************************************************************************/
  /* If VLAN tag is enabled for this packet */
  if (READ_BIT(pTxConfig->Attributes, ETH_TX_PACKETS_FEATURES_VLANTAG) != (uint32_t)RESET)
 8021680:	680a      	ldr	r2, [r1, #0]
 8021682:	f012 0f04 	tst.w	r2, #4
 8021686:	d02c      	beq.n	80216e2 <ETH_Prepare_Tx_Descriptors+0x8a>
  {
    /* Set vlan tag value */
    MODIFY_REG(dmatxdesc->DESC3, ETH_DMATXCDESC_VT, pTxConfig->VlanTag);
 8021688:	68da      	ldr	r2, [r3, #12]
 802168a:	f36f 020f 	bfc	r2, #0, #16
 802168e:	6a4d      	ldr	r5, [r1, #36]	@ 0x24
 8021690:	432a      	orrs	r2, r5
 8021692:	60da      	str	r2, [r3, #12]
    /* Set vlan tag valid bit */
    SET_BIT(dmatxdesc->DESC3, ETH_DMATXCDESC_VLTV);
 8021694:	68da      	ldr	r2, [r3, #12]
 8021696:	f442 3280 	orr.w	r2, r2, #65536	@ 0x10000
 802169a:	60da      	str	r2, [r3, #12]
    /* Set the descriptor as the vlan input source */
    SET_BIT(heth->Instance->MACVIR, ETH_MACVIR_VLTI);
 802169c:	6805      	ldr	r5, [r0, #0]
 802169e:	6e2a      	ldr	r2, [r5, #96]	@ 0x60
 80216a0:	f442 1280 	orr.w	r2, r2, #1048576	@ 0x100000
 80216a4:	662a      	str	r2, [r5, #96]	@ 0x60

    /* if inner VLAN is enabled */
    if (READ_BIT(pTxConfig->Attributes, ETH_TX_PACKETS_FEATURES_INNERVLANTAG) != (uint32_t)RESET)
 80216a6:	680a      	ldr	r2, [r1, #0]
 80216a8:	f012 0f08 	tst.w	r2, #8
 80216ac:	d019      	beq.n	80216e2 <ETH_Prepare_Tx_Descriptors+0x8a>
    {
      /* Set inner vlan tag value */
      MODIFY_REG(dmatxdesc->DESC2, ETH_DMATXCDESC_IVT, (pTxConfig->InnerVlanTag << 16));
 80216ae:	689a      	ldr	r2, [r3, #8]
 80216b0:	b292      	uxth	r2, r2
 80216b2:	6acd      	ldr	r5, [r1, #44]	@ 0x2c
 80216b4:	ea42 4205 	orr.w	r2, r2, r5, lsl #16
 80216b8:	609a      	str	r2, [r3, #8]
      /* Set inner vlan tag valid bit */
      SET_BIT(dmatxdesc->DESC3, ETH_DMATXCDESC_IVLTV);
 80216ba:	68da      	ldr	r2, [r3, #12]
 80216bc:	f442 3200 	orr.w	r2, r2, #131072	@ 0x20000
 80216c0:	60da      	str	r2, [r3, #12]

      /* Set Vlan Tag control */
      MODIFY_REG(dmatxdesc->DESC3, ETH_DMATXCDESC_IVTIR, pTxConfig->InnerVlanCtrl);
 80216c2:	68da      	ldr	r2, [r3, #12]
 80216c4:	f422 2240 	bic.w	r2, r2, #786432	@ 0xc0000
 80216c8:	6b0d      	ldr	r5, [r1, #48]	@ 0x30
 80216ca:	432a      	orrs	r2, r5
 80216cc:	60da      	str	r2, [r3, #12]

      /* Set the descriptor as the inner vlan input source */
      SET_BIT(heth->Instance->MACIVIR, ETH_MACIVIR_VLTI);
 80216ce:	6805      	ldr	r5, [r0, #0]
 80216d0:	6e6a      	ldr	r2, [r5, #100]	@ 0x64
 80216d2:	f442 1280 	orr.w	r2, r2, #1048576	@ 0x100000
 80216d6:	666a      	str	r2, [r5, #100]	@ 0x64
      /* Enable double VLAN processing */
      SET_BIT(heth->Instance->MACVTR, ETH_MACVTR_EDVLP);
 80216d8:	6805      	ldr	r5, [r0, #0]
 80216da:	6d2a      	ldr	r2, [r5, #80]	@ 0x50
 80216dc:	f042 6280 	orr.w	r2, r2, #67108864	@ 0x4000000
 80216e0:	652a      	str	r2, [r5, #80]	@ 0x50
    }
  }

  /* if tcp segmentation is enabled for this packet */
  if (READ_BIT(pTxConfig->Attributes, ETH_TX_PACKETS_FEATURES_TSO) != (uint32_t)RESET)
 80216e2:	680a      	ldr	r2, [r1, #0]
 80216e4:	f012 0f10 	tst.w	r2, #16
 80216e8:	d009      	beq.n	80216fe <ETH_Prepare_Tx_Descriptors+0xa6>
  {
    /* Set MSS value */
    MODIFY_REG(dmatxdesc->DESC2, ETH_DMATXCDESC_MSS, pTxConfig->MaxSegmentSize);
 80216ea:	689a      	ldr	r2, [r3, #8]
 80216ec:	f36f 020d 	bfc	r2, #0, #14
 80216f0:	698d      	ldr	r5, [r1, #24]
 80216f2:	432a      	orrs	r2, r5
 80216f4:	609a      	str	r2, [r3, #8]
    /* Set MSS valid bit */
    SET_BIT(dmatxdesc->DESC3, ETH_DMATXCDESC_TCMSSV);
 80216f6:	68da      	ldr	r2, [r3, #12]
 80216f8:	f042 6280 	orr.w	r2, r2, #67108864	@ 0x4000000
 80216fc:	60da      	str	r2, [r3, #12]
  }

  if ((READ_BIT(pTxConfig->Attributes, ETH_TX_PACKETS_FEATURES_VLANTAG) != (uint32_t)RESET)
      || (READ_BIT(pTxConfig->Attributes, ETH_TX_PACKETS_FEATURES_TSO) != (uint32_t)RESET))
 80216fe:	680a      	ldr	r2, [r1, #0]
  if ((READ_BIT(pTxConfig->Attributes, ETH_TX_PACKETS_FEATURES_VLANTAG) != (uint32_t)RESET)
 8021700:	f012 0214 	ands.w	r2, r2, #20
 8021704:	d020      	beq.n	8021748 <ETH_Prepare_Tx_Descriptors+0xf0>
  {
    /* Set as context descriptor */
    SET_BIT(dmatxdesc->DESC3, ETH_DMATXCDESC_CTXT);
 8021706:	68da      	ldr	r2, [r3, #12]
 8021708:	f042 4280 	orr.w	r2, r2, #1073741824	@ 0x40000000
 802170c:	60da      	str	r2, [r3, #12]
 802170e:	f3bf 8f5f 	dmb	sy
    /* Ensure rest of descriptor is written to RAM before the OWN bit */
    __DMB();
    /* Set own bit */
    SET_BIT(dmatxdesc->DESC3, ETH_DMATXCDESC_OWN);
 8021712:	68da      	ldr	r2, [r3, #12]
 8021714:	f042 4200 	orr.w	r2, r2, #2147483648	@ 0x80000000
 8021718:	60da      	str	r2, [r3, #12]
    /* Increment current tx descriptor index */
    INCR_TX_DESC_INDEX(descidx, 1U);
 802171a:	1c66      	adds	r6, r4, #1
 802171c:	2e03      	cmp	r6, #3
 802171e:	d900      	bls.n	8021722 <ETH_Prepare_Tx_Descriptors+0xca>
 8021720:	1ee6      	subs	r6, r4, #3
    /* Get current descriptor address */
    dmatxdesc = (ETH_DMADescTypeDef *)dmatxdesclist->TxDesc[descidx];
 8021722:	eb00 0386 	add.w	r3, r0, r6, lsl #2
 8021726:	699b      	ldr	r3, [r3, #24]

    descnbr += 1U;

    /* Current Tx Descriptor Owned by DMA: cannot be used by the application  */
    if (READ_BIT(dmatxdesc->DESC3, ETH_DMATXNDESCWBF_OWN) == ETH_DMATXNDESCWBF_OWN)
 8021728:	68da      	ldr	r2, [r3, #12]
 802172a:	2a00      	cmp	r2, #0
 802172c:	db01      	blt.n	8021732 <ETH_Prepare_Tx_Descriptors+0xda>
    descnbr += 1U;
 802172e:	2201      	movs	r2, #1
 8021730:	e00b      	b.n	802174a <ETH_Prepare_Tx_Descriptors+0xf2>
    {
      dmatxdesc = (ETH_DMADescTypeDef *)dmatxdesclist->TxDesc[firstdescidx];
 8021732:	eb00 0484 	add.w	r4, r0, r4, lsl #2
 8021736:	69a2      	ldr	r2, [r4, #24]
 8021738:	f3bf 8f5f 	dmb	sy
      /* Ensure rest of descriptor is written to RAM before the OWN bit */
      __DMB();
      /* Clear own bit */
      CLEAR_BIT(dmatxdesc->DESC3, ETH_DMATXCDESC_OWN);
 802173c:	68d3      	ldr	r3, [r2, #12]
 802173e:	f023 4300 	bic.w	r3, r3, #2147483648	@ 0x80000000
 8021742:	60d3      	str	r3, [r2, #12]

      return HAL_ETH_ERROR_BUSY;
 8021744:	2002      	movs	r0, #2
 8021746:	e129      	b.n	802199c <ETH_Prepare_Tx_Descriptors+0x344>
  uint32_t descidx = dmatxdesclist->CurTxDesc;
 8021748:	4626      	mov	r6, r4

  /***************************************************************************/
  /*****************    Normal descriptors configuration     *****************/
  /***************************************************************************/

  descnbr += 1U;
 802174a:	f102 0e01 	add.w	lr, r2, #1

  /* Set header or buffer 1 address */
  WRITE_REG(dmatxdesc->DESC0, (uint32_t)txbuffer->buffer);
 802174e:	f8dc 2000 	ldr.w	r2, [ip]
 8021752:	601a      	str	r2, [r3, #0]
  /* Set header or buffer 1 Length */
  MODIFY_REG(dmatxdesc->DESC2, ETH_DMATXNDESCRF_B1L, txbuffer->len);
 8021754:	689a      	ldr	r2, [r3, #8]
 8021756:	f36f 020d 	bfc	r2, #0, #14
 802175a:	f8dc 5004 	ldr.w	r5, [ip, #4]
 802175e:	432a      	orrs	r2, r5
 8021760:	609a      	str	r2, [r3, #8]

  if (txbuffer->next != NULL)
 8021762:	f8dc 2008 	ldr.w	r2, [ip, #8]
 8021766:	2a00      	cmp	r2, #0
 8021768:	d048      	beq.n	80217fc <ETH_Prepare_Tx_Descriptors+0x1a4>
  {
    txbuffer = txbuffer->next;
    /* Set buffer 2 address */
    WRITE_REG(dmatxdesc->DESC1, (uint32_t)txbuffer->buffer);
 802176a:	6815      	ldr	r5, [r2, #0]
 802176c:	605d      	str	r5, [r3, #4]
    /* Set buffer 2 Length */
    MODIFY_REG(dmatxdesc->DESC2, ETH_DMATXNDESCRF_B2L, (txbuffer->len << 16));
 802176e:	689d      	ldr	r5, [r3, #8]
 8021770:	f8df c22c 	ldr.w	ip, [pc, #556]	@ 80219a0 <ETH_Prepare_Tx_Descriptors+0x348>
 8021774:	ea05 0c0c 	and.w	ip, r5, ip
 8021778:	6855      	ldr	r5, [r2, #4]
 802177a:	ea4c 4505 	orr.w	r5, ip, r5, lsl #16
 802177e:	609d      	str	r5, [r3, #8]
    WRITE_REG(dmatxdesc->DESC1, 0x0U);
    /* Set buffer 2 Length */
    MODIFY_REG(dmatxdesc->DESC2, ETH_DMATXNDESCRF_B2L, 0x0U);
  }

  if (READ_BIT(pTxConfig->Attributes, ETH_TX_PACKETS_FEATURES_TSO) != (uint32_t)RESET)
 8021780:	680d      	ldr	r5, [r1, #0]
 8021782:	f015 0f10 	tst.w	r5, #16
 8021786:	d041      	beq.n	802180c <ETH_Prepare_Tx_Descriptors+0x1b4>
  {
    /* Set TCP Header length */
    MODIFY_REG(dmatxdesc->DESC3, ETH_DMATXNDESCRF_THL, (pTxConfig->TCPHeaderLen << 19));
 8021788:	68dd      	ldr	r5, [r3, #12]
 802178a:	f425 0cf0 	bic.w	ip, r5, #7864320	@ 0x780000
 802178e:	6a0d      	ldr	r5, [r1, #32]
 8021790:	ea4c 45c5 	orr.w	r5, ip, r5, lsl #19
 8021794:	60dd      	str	r5, [r3, #12]
    /* Set TCP payload length */
    MODIFY_REG(dmatxdesc->DESC3, ETH_DMATXNDESCRF_TPL, pTxConfig->PayloadLen);
 8021796:	68dd      	ldr	r5, [r3, #12]
 8021798:	f8df c208 	ldr.w	ip, [pc, #520]	@ 80219a4 <ETH_Prepare_Tx_Descriptors+0x34c>
 802179c:	ea05 0c0c 	and.w	ip, r5, ip
 80217a0:	69cd      	ldr	r5, [r1, #28]
 80217a2:	ea4c 0505 	orr.w	r5, ip, r5
 80217a6:	60dd      	str	r5, [r3, #12]
    /* Set TCP Segmentation Enabled bit */
    SET_BIT(dmatxdesc->DESC3, ETH_DMATXNDESCRF_TSE);
 80217a8:	68dd      	ldr	r5, [r3, #12]
 80217aa:	f445 2580 	orr.w	r5, r5, #262144	@ 0x40000
 80217ae:	60dd      	str	r5, [r3, #12]
    {
      MODIFY_REG(dmatxdesc->DESC3, ETH_DMATXNDESCRF_CPC, pTxConfig->CRCPadCtrl);
    }
  }

  if (READ_BIT(pTxConfig->Attributes, ETH_TX_PACKETS_FEATURES_VLANTAG) != (uint32_t)RESET)
 80217b0:	680d      	ldr	r5, [r1, #0]
 80217b2:	f015 0f04 	tst.w	r5, #4
 80217b6:	d006      	beq.n	80217c6 <ETH_Prepare_Tx_Descriptors+0x16e>
  {
    /* Set Vlan Tag control */
    MODIFY_REG(dmatxdesc->DESC2, ETH_DMATXNDESCRF_VTIR, pTxConfig->VlanCtrl);
 80217b8:	689d      	ldr	r5, [r3, #8]
 80217ba:	f425 4c40 	bic.w	ip, r5, #49152	@ 0xc000
 80217be:	6a8d      	ldr	r5, [r1, #40]	@ 0x28
 80217c0:	ea4c 0505 	orr.w	r5, ip, r5
 80217c4:	609d      	str	r5, [r3, #8]
  }

  /* Mark it as First Descriptor */
  SET_BIT(dmatxdesc->DESC3, ETH_DMATXNDESCRF_FD);
 80217c6:	68dd      	ldr	r5, [r3, #12]
 80217c8:	f045 5500 	orr.w	r5, r5, #536870912	@ 0x20000000
 80217cc:	60dd      	str	r5, [r3, #12]
  /* Mark it as NORMAL descriptor */
  CLEAR_BIT(dmatxdesc->DESC3, ETH_DMATXNDESCRF_CTXT);
 80217ce:	68dd      	ldr	r5, [r3, #12]
 80217d0:	f025 4580 	bic.w	r5, r5, #1073741824	@ 0x40000000
 80217d4:	60dd      	str	r5, [r3, #12]
 80217d6:	f3bf 8f5f 	dmb	sy
  /* Ensure rest of descriptor is written to RAM before the OWN bit */
  __DMB();
  /* set OWN bit of FIRST descriptor */
  SET_BIT(dmatxdesc->DESC3, ETH_DMATXNDESCRF_OWN);
 80217da:	68dd      	ldr	r5, [r3, #12]
 80217dc:	f045 4500 	orr.w	r5, r5, #2147483648	@ 0x80000000
 80217e0:	60dd      	str	r5, [r3, #12]

  /* If source address insertion/replacement is enabled for this packet */
  if (READ_BIT(pTxConfig->Attributes, ETH_TX_PACKETS_FEATURES_SAIC) != (uint32_t)RESET)
 80217e2:	680d      	ldr	r5, [r1, #0]
 80217e4:	f015 0f02 	tst.w	r5, #2
 80217e8:	d006      	beq.n	80217f8 <ETH_Prepare_Tx_Descriptors+0x1a0>
  {
    MODIFY_REG(dmatxdesc->DESC3, ETH_DMATXNDESCRF_SAIC, pTxConfig->SrcAddrCtrl);
 80217ea:	68dd      	ldr	r5, [r3, #12]
 80217ec:	f025 7c60 	bic.w	ip, r5, #58720256	@ 0x3800000
 80217f0:	68cd      	ldr	r5, [r1, #12]
 80217f2:	ea4c 0505 	orr.w	r5, ip, r5
 80217f6:	60dd      	str	r5, [r3, #12]
    }

    descnbr += 1U;

    /* Get the next Tx buffer in the list */
    txbuffer = txbuffer->next;
 80217f8:	2500      	movs	r5, #0
 80217fa:	e064      	b.n	80218c6 <ETH_Prepare_Tx_Descriptors+0x26e>
    WRITE_REG(dmatxdesc->DESC1, 0x0U);
 80217fc:	2200      	movs	r2, #0
 80217fe:	605a      	str	r2, [r3, #4]
    MODIFY_REG(dmatxdesc->DESC2, ETH_DMATXNDESCRF_B2L, 0x0U);
 8021800:	689a      	ldr	r2, [r3, #8]
 8021802:	f36f 421d 	bfc	r2, #16, #14
 8021806:	609a      	str	r2, [r3, #8]
  ETH_BufferTypeDef  *txbuffer = pTxConfig->TxBuffer;
 8021808:	4662      	mov	r2, ip
 802180a:	e7b9      	b.n	8021780 <ETH_Prepare_Tx_Descriptors+0x128>
    MODIFY_REG(dmatxdesc->DESC3, ETH_DMATXNDESCRF_FL, pTxConfig->Length);
 802180c:	68dd      	ldr	r5, [r3, #12]
 802180e:	f8df c198 	ldr.w	ip, [pc, #408]	@ 80219a8 <ETH_Prepare_Tx_Descriptors+0x350>
 8021812:	ea05 0c0c 	and.w	ip, r5, ip
 8021816:	684d      	ldr	r5, [r1, #4]
 8021818:	ea4c 0505 	orr.w	r5, ip, r5
 802181c:	60dd      	str	r5, [r3, #12]
    if (READ_BIT(pTxConfig->Attributes, ETH_TX_PACKETS_FEATURES_CSUM) != (uint32_t)RESET)
 802181e:	680d      	ldr	r5, [r1, #0]
 8021820:	f015 0f01 	tst.w	r5, #1
 8021824:	d006      	beq.n	8021834 <ETH_Prepare_Tx_Descriptors+0x1dc>
      MODIFY_REG(dmatxdesc->DESC3, ETH_DMATXNDESCRF_CIC, pTxConfig->ChecksumCtrl);
 8021826:	68dd      	ldr	r5, [r3, #12]
 8021828:	f425 3c40 	bic.w	ip, r5, #196608	@ 0x30000
 802182c:	694d      	ldr	r5, [r1, #20]
 802182e:	ea4c 0505 	orr.w	r5, ip, r5
 8021832:	60dd      	str	r5, [r3, #12]
    if (READ_BIT(pTxConfig->Attributes, ETH_TX_PACKETS_FEATURES_CRCPAD) != (uint32_t)RESET)
 8021834:	680d      	ldr	r5, [r1, #0]
 8021836:	f015 0f20 	tst.w	r5, #32
 802183a:	d0b9      	beq.n	80217b0 <ETH_Prepare_Tx_Descriptors+0x158>
      MODIFY_REG(dmatxdesc->DESC3, ETH_DMATXNDESCRF_CPC, pTxConfig->CRCPadCtrl);
 802183c:	68dd      	ldr	r5, [r3, #12]
 802183e:	f025 6c40 	bic.w	ip, r5, #201326592	@ 0xc000000
 8021842:	690d      	ldr	r5, [r1, #16]
 8021844:	ea4c 0505 	orr.w	r5, ip, r5
 8021848:	60dd      	str	r5, [r3, #12]
 802184a:	e7b1      	b.n	80217b0 <ETH_Prepare_Tx_Descriptors+0x158>
      dmatxdesc = (ETH_DMADescTypeDef *)dmatxdesclist->TxDesc[descidx];
 802184c:	eb00 0384 	add.w	r3, r0, r4, lsl #2
 8021850:	6999      	ldr	r1, [r3, #24]
      for (idx = 0; idx < descnbr; idx ++)
 8021852:	2200      	movs	r2, #0
 8021854:	e004      	b.n	8021860 <ETH_Prepare_Tx_Descriptors+0x208>
        dmatxdesc = (ETH_DMADescTypeDef *)dmatxdesclist->TxDesc[descidx];
 8021856:	eb00 0183 	add.w	r1, r0, r3, lsl #2
 802185a:	6989      	ldr	r1, [r1, #24]
      for (idx = 0; idx < descnbr; idx ++)
 802185c:	3201      	adds	r2, #1
 802185e:	461c      	mov	r4, r3
 8021860:	4572      	cmp	r2, lr
 8021862:	d20a      	bcs.n	802187a <ETH_Prepare_Tx_Descriptors+0x222>
 8021864:	f3bf 8f5f 	dmb	sy
        CLEAR_BIT(dmatxdesc->DESC3, ETH_DMATXNDESCRF_OWN);
 8021868:	68cb      	ldr	r3, [r1, #12]
 802186a:	f023 4300 	bic.w	r3, r3, #2147483648	@ 0x80000000
 802186e:	60cb      	str	r3, [r1, #12]
        INCR_TX_DESC_INDEX(descidx, 1U);
 8021870:	1c63      	adds	r3, r4, #1
 8021872:	2b03      	cmp	r3, #3
 8021874:	d9ef      	bls.n	8021856 <ETH_Prepare_Tx_Descriptors+0x1fe>
 8021876:	1ee3      	subs	r3, r4, #3
 8021878:	e7ed      	b.n	8021856 <ETH_Prepare_Tx_Descriptors+0x1fe>
      return HAL_ETH_ERROR_BUSY;
 802187a:	2002      	movs	r0, #2
 802187c:	e08e      	b.n	802199c <ETH_Prepare_Tx_Descriptors+0x344>
      /* Set buffer 2 Length */
      MODIFY_REG(dmatxdesc->DESC2, ETH_DMATXNDESCRF_B2L, (txbuffer->len << 16));
    }
    else
    {
      WRITE_REG(dmatxdesc->DESC1, 0x0U);
 802187e:	2200      	movs	r2, #0
 8021880:	605a      	str	r2, [r3, #4]
      /* Set buffer 2 Length */
      MODIFY_REG(dmatxdesc->DESC2, ETH_DMATXNDESCRF_B2L, 0x0U);
 8021882:	689a      	ldr	r2, [r3, #8]
 8021884:	f36f 421d 	bfc	r2, #16, #14
 8021888:	609a      	str	r2, [r3, #8]
    txbuffer = txbuffer->next;
 802188a:	463a      	mov	r2, r7
 802188c:	e051      	b.n	8021932 <ETH_Prepare_Tx_Descriptors+0x2da>
      SET_BIT(dmatxdesc->DESC3, ETH_DMATXNDESCRF_TSE);
    }
    else
    {
      /* Set the packet length */
      MODIFY_REG(dmatxdesc->DESC3, ETH_DMATXNDESCRF_FL, pTxConfig->Length);
 802188e:	68de      	ldr	r6, [r3, #12]
 8021890:	f36f 060e 	bfc	r6, #0, #15
 8021894:	684f      	ldr	r7, [r1, #4]
 8021896:	433e      	orrs	r6, r7
 8021898:	60de      	str	r6, [r3, #12]

      if (READ_BIT(pTxConfig->Attributes, ETH_TX_PACKETS_FEATURES_CSUM) != (uint32_t)RESET)
 802189a:	680e      	ldr	r6, [r1, #0]
 802189c:	f016 0f01 	tst.w	r6, #1
 80218a0:	d005      	beq.n	80218ae <ETH_Prepare_Tx_Descriptors+0x256>
      {
        /* Checksum Insertion Control */
        MODIFY_REG(dmatxdesc->DESC3, ETH_DMATXNDESCRF_CIC, pTxConfig->ChecksumCtrl);
 80218a2:	68de      	ldr	r6, [r3, #12]
 80218a4:	f426 3640 	bic.w	r6, r6, #196608	@ 0x30000
 80218a8:	694f      	ldr	r7, [r1, #20]
 80218aa:	433e      	orrs	r6, r7
 80218ac:	60de      	str	r6, [r3, #12]
      }
    }

    bd_count += 1U;
 80218ae:	3501      	adds	r5, #1
 80218b0:	f3bf 8f5f 	dmb	sy

    /* Ensure rest of descriptor is written to RAM before the OWN bit */
    __DMB();
    /* Set Own bit */
    SET_BIT(dmatxdesc->DESC3, ETH_DMATXNDESCRF_OWN);
 80218b4:	68de      	ldr	r6, [r3, #12]
 80218b6:	f046 4600 	orr.w	r6, r6, #2147483648	@ 0x80000000
 80218ba:	60de      	str	r6, [r3, #12]
    /* Mark it as NORMAL descriptor */
    CLEAR_BIT(dmatxdesc->DESC3, ETH_DMATXNDESCRF_CTXT);
 80218bc:	68de      	ldr	r6, [r3, #12]
 80218be:	f026 4680 	bic.w	r6, r6, #1073741824	@ 0x40000000
 80218c2:	60de      	str	r6, [r3, #12]
 80218c4:	4666      	mov	r6, ip
  while (txbuffer->next != NULL)
 80218c6:	6897      	ldr	r7, [r2, #8]
 80218c8:	2f00      	cmp	r7, #0
 80218ca:	d041      	beq.n	8021950 <ETH_Prepare_Tx_Descriptors+0x2f8>
    CLEAR_BIT(dmatxdesc->DESC3, ETH_DMATXNDESCRF_LD);
 80218cc:	68df      	ldr	r7, [r3, #12]
 80218ce:	f027 5780 	bic.w	r7, r7, #268435456	@ 0x10000000
 80218d2:	60df      	str	r7, [r3, #12]
    INCR_TX_DESC_INDEX(descidx, 1U);
 80218d4:	f106 0c01 	add.w	ip, r6, #1
 80218d8:	f1bc 0f03 	cmp.w	ip, #3
 80218dc:	d901      	bls.n	80218e2 <ETH_Prepare_Tx_Descriptors+0x28a>
 80218de:	f1a6 0c03 	sub.w	ip, r6, #3
    dmatxdesc = (ETH_DMADescTypeDef *)dmatxdesclist->TxDesc[descidx];
 80218e2:	eb00 038c 	add.w	r3, r0, ip, lsl #2
 80218e6:	699b      	ldr	r3, [r3, #24]
    CLEAR_BIT(dmatxdesc->DESC3, ETH_DMATXNDESCRF_FD);
 80218e8:	68de      	ldr	r6, [r3, #12]
 80218ea:	f026 5600 	bic.w	r6, r6, #536870912	@ 0x20000000
 80218ee:	60de      	str	r6, [r3, #12]
    if ((READ_BIT(dmatxdesc->DESC3, ETH_DMATXNDESCRF_OWN) == ETH_DMATXNDESCRF_OWN)
 80218f0:	68de      	ldr	r6, [r3, #12]
 80218f2:	2e00      	cmp	r6, #0
 80218f4:	dbaa      	blt.n	802184c <ETH_Prepare_Tx_Descriptors+0x1f4>
        || (dmatxdesclist->PacketAddress[descidx] != NULL))
 80218f6:	f10c 0604 	add.w	r6, ip, #4
 80218fa:	eb00 0686 	add.w	r6, r0, r6, lsl #2
 80218fe:	69f6      	ldr	r6, [r6, #28]
 8021900:	2e00      	cmp	r6, #0
 8021902:	d1a3      	bne.n	802184c <ETH_Prepare_Tx_Descriptors+0x1f4>
    descnbr += 1U;
 8021904:	f10e 0e01 	add.w	lr, lr, #1
    txbuffer = txbuffer->next;
 8021908:	6897      	ldr	r7, [r2, #8]
    WRITE_REG(dmatxdesc->DESC0, (uint32_t)txbuffer->buffer);
 802190a:	683a      	ldr	r2, [r7, #0]
 802190c:	601a      	str	r2, [r3, #0]
    MODIFY_REG(dmatxdesc->DESC2, ETH_DMATXNDESCRF_B1L, txbuffer->len);
 802190e:	689e      	ldr	r6, [r3, #8]
 8021910:	f36f 060d 	bfc	r6, #0, #14
 8021914:	687a      	ldr	r2, [r7, #4]
 8021916:	4332      	orrs	r2, r6
 8021918:	609a      	str	r2, [r3, #8]
    if (txbuffer->next != NULL)
 802191a:	68ba      	ldr	r2, [r7, #8]
 802191c:	2a00      	cmp	r2, #0
 802191e:	d0ae      	beq.n	802187e <ETH_Prepare_Tx_Descriptors+0x226>
      WRITE_REG(dmatxdesc->DESC1, (uint32_t)txbuffer->buffer);
 8021920:	6816      	ldr	r6, [r2, #0]
 8021922:	605e      	str	r6, [r3, #4]
      MODIFY_REG(dmatxdesc->DESC2, ETH_DMATXNDESCRF_B2L, (txbuffer->len << 16));
 8021924:	689e      	ldr	r6, [r3, #8]
 8021926:	f36f 461d 	bfc	r6, #16, #14
 802192a:	6857      	ldr	r7, [r2, #4]
 802192c:	ea46 4607 	orr.w	r6, r6, r7, lsl #16
 8021930:	609e      	str	r6, [r3, #8]
    if (READ_BIT(pTxConfig->Attributes, ETH_TX_PACKETS_FEATURES_TSO) != (uint32_t)RESET)
 8021932:	680e      	ldr	r6, [r1, #0]
 8021934:	f016 0f10 	tst.w	r6, #16
 8021938:	d0a9      	beq.n	802188e <ETH_Prepare_Tx_Descriptors+0x236>
      MODIFY_REG(dmatxdesc->DESC3, ETH_DMATXNDESCRF_TPL, pTxConfig->PayloadLen);
 802193a:	68de      	ldr	r6, [r3, #12]
 802193c:	f36f 0611 	bfc	r6, #0, #18
 8021940:	69cf      	ldr	r7, [r1, #28]
 8021942:	433e      	orrs	r6, r7
 8021944:	60de      	str	r6, [r3, #12]
      SET_BIT(dmatxdesc->DESC3, ETH_DMATXNDESCRF_TSE);
 8021946:	68de      	ldr	r6, [r3, #12]
 8021948:	f446 2680 	orr.w	r6, r6, #262144	@ 0x40000
 802194c:	60de      	str	r6, [r3, #12]
 802194e:	e7ae      	b.n	80218ae <ETH_Prepare_Tx_Descriptors+0x256>
  }

  if (ItMode != ((uint32_t)RESET))
 8021950:	f1b8 0f00 	cmp.w	r8, #0
 8021954:	d01a      	beq.n	802198c <ETH_Prepare_Tx_Descriptors+0x334>
  {
    /* Set Interrupt on completion bit */
    SET_BIT(dmatxdesc->DESC2, ETH_DMATXNDESCRF_IOC);
 8021956:	689a      	ldr	r2, [r3, #8]
 8021958:	f042 4200 	orr.w	r2, r2, #2147483648	@ 0x80000000
 802195c:	609a      	str	r2, [r3, #8]
    /* Clear Interrupt on completion bit */
    CLEAR_BIT(dmatxdesc->DESC2, ETH_DMATXNDESCRF_IOC);
  }

  /* Mark it as LAST descriptor */
  SET_BIT(dmatxdesc->DESC3, ETH_DMATXNDESCRF_LD);
 802195e:	68da      	ldr	r2, [r3, #12]
 8021960:	f042 5280 	orr.w	r2, r2, #268435456	@ 0x10000000
 8021964:	60da      	str	r2, [r3, #12]
  /* Save the current packet address to expose it to the application */
  dmatxdesclist->PacketAddress[descidx] = dmatxdesclist->CurrentPacketAddress;
 8021966:	6bc2      	ldr	r2, [r0, #60]	@ 0x3c
 8021968:	1d33      	adds	r3, r6, #4
 802196a:	eb00 0383 	add.w	r3, r0, r3, lsl #2
 802196e:	61da      	str	r2, [r3, #28]

  dmatxdesclist->CurTxDesc = descidx;
 8021970:	6286      	str	r6, [r0, #40]	@ 0x28
 */
__STATIC_FORCEINLINE uint32_t __get_PRIMASK(void)
{
  uint32_t result;

  __ASM volatile ("MRS %0, primask" : "=r" (result) );
 8021972:	f3ef 8210 	mrs	r2, PRIMASK
  \details Assigns the given value to the Priority Mask Register.
  \param [in]    priMask  Priority Mask
 */
__STATIC_FORCEINLINE void __set_PRIMASK(uint32_t priMask)
{
  __ASM volatile ("MSR primask, %0" : : "r" (priMask) : "memory");
 8021976:	2301      	movs	r3, #1
 8021978:	f383 8810 	msr	PRIMASK, r3

  /* Enter critical section */
  primask_bit = __get_PRIMASK();
  __set_PRIMASK(1);

  dmatxdesclist->BuffersInUse += bd_count + 1U;
 802197c:	6c03      	ldr	r3, [r0, #64]	@ 0x40
 802197e:	442b      	add	r3, r5
 8021980:	3301      	adds	r3, #1
 8021982:	6403      	str	r3, [r0, #64]	@ 0x40
 8021984:	f382 8810 	msr	PRIMASK, r2

  /* Exit critical section: restore previous priority mask */
  __set_PRIMASK(primask_bit);

  /* Return function status */
  return HAL_ETH_ERROR_NONE;
 8021988:	2000      	movs	r0, #0
 802198a:	e007      	b.n	802199c <ETH_Prepare_Tx_Descriptors+0x344>
    CLEAR_BIT(dmatxdesc->DESC2, ETH_DMATXNDESCRF_IOC);
 802198c:	689a      	ldr	r2, [r3, #8]
 802198e:	f022 4200 	bic.w	r2, r2, #2147483648	@ 0x80000000
 8021992:	609a      	str	r2, [r3, #8]
 8021994:	e7e3      	b.n	802195e <ETH_Prepare_Tx_Descriptors+0x306>
    return HAL_ETH_ERROR_BUSY;
 8021996:	2002      	movs	r0, #2
 8021998:	e000      	b.n	802199c <ETH_Prepare_Tx_Descriptors+0x344>
 802199a:	2002      	movs	r0, #2
}
 802199c:	e8bd 81f0 	ldmia.w	sp!, {r4, r5, r6, r7, r8, pc}
 80219a0:	c000ffff 	.word	0xc000ffff
 80219a4:	fffc0000 	.word	0xfffc0000
 80219a8:	ffff8000 	.word	0xffff8000

080219ac <HAL_ETH_Start>:
  if (heth->gState == HAL_ETH_STATE_READY)
 80219ac:	f8d0 3084 	ldr.w	r3, [r0, #132]	@ 0x84
 80219b0:	2b10      	cmp	r3, #16
 80219b2:	d001      	beq.n	80219b8 <HAL_ETH_Start+0xc>
    return HAL_ERROR;
 80219b4:	2001      	movs	r0, #1
}
 80219b6:	4770      	bx	lr
{
 80219b8:	b510      	push	{r4, lr}
 80219ba:	4604      	mov	r4, r0
    heth->gState = HAL_ETH_STATE_BUSY;
 80219bc:	2320      	movs	r3, #32
 80219be:	f8c0 3084 	str.w	r3, [r0, #132]	@ 0x84
    heth->RxDescList.RxBuildDescCnt = ETH_RX_DESC_CNT;
 80219c2:	2304      	movs	r3, #4
 80219c4:	66c3      	str	r3, [r0, #108]	@ 0x6c
    ETH_UpdateDescriptor(heth);
 80219c6:	f7ff fbf5 	bl	80211b4 <ETH_UpdateDescriptor>
    SET_BIT(heth->Instance->MACCR, ETH_MACCR_TE);
 80219ca:	6822      	ldr	r2, [r4, #0]
 80219cc:	6813      	ldr	r3, [r2, #0]
 80219ce:	f043 0302 	orr.w	r3, r3, #2
 80219d2:	6013      	str	r3, [r2, #0]
    SET_BIT(heth->Instance->MACCR, ETH_MACCR_RE);
 80219d4:	6822      	ldr	r2, [r4, #0]
 80219d6:	6813      	ldr	r3, [r2, #0]
 80219d8:	f043 0301 	orr.w	r3, r3, #1
 80219dc:	6013      	str	r3, [r2, #0]
    SET_BIT(heth->Instance->MTLTQOMR, ETH_MTLTQOMR_FTQ);
 80219de:	6822      	ldr	r2, [r4, #0]
 80219e0:	f8d2 3d00 	ldr.w	r3, [r2, #3328]	@ 0xd00
 80219e4:	f043 0301 	orr.w	r3, r3, #1
 80219e8:	f8c2 3d00 	str.w	r3, [r2, #3328]	@ 0xd00
    SET_BIT(heth->Instance->DMACTCR, ETH_DMACTCR_ST);
 80219ec:	6823      	ldr	r3, [r4, #0]
 80219ee:	f503 5380 	add.w	r3, r3, #4096	@ 0x1000
 80219f2:	f8d3 2104 	ldr.w	r2, [r3, #260]	@ 0x104
 80219f6:	f042 0201 	orr.w	r2, r2, #1
 80219fa:	f8c3 2104 	str.w	r2, [r3, #260]	@ 0x104
    SET_BIT(heth->Instance->DMACRCR, ETH_DMACRCR_SR);
 80219fe:	6823      	ldr	r3, [r4, #0]
 8021a00:	f503 5380 	add.w	r3, r3, #4096	@ 0x1000
 8021a04:	f8d3 2108 	ldr.w	r2, [r3, #264]	@ 0x108
 8021a08:	f042 0201 	orr.w	r2, r2, #1
 8021a0c:	f8c3 2108 	str.w	r2, [r3, #264]	@ 0x108
    heth->Instance->DMACSR |= (ETH_DMACSR_TPS | ETH_DMACSR_RPS);
 8021a10:	6823      	ldr	r3, [r4, #0]
 8021a12:	f503 5380 	add.w	r3, r3, #4096	@ 0x1000
 8021a16:	f8d3 2160 	ldr.w	r2, [r3, #352]	@ 0x160
 8021a1a:	f442 7281 	orr.w	r2, r2, #258	@ 0x102
 8021a1e:	f8c3 2160 	str.w	r2, [r3, #352]	@ 0x160
    heth->gState = HAL_ETH_STATE_STARTED;
 8021a22:	2340      	movs	r3, #64	@ 0x40
 8021a24:	f8c4 3084 	str.w	r3, [r4, #132]	@ 0x84
    return HAL_OK;
 8021a28:	2000      	movs	r0, #0
}
 8021a2a:	bd10      	pop	{r4, pc}

08021a2c <HAL_ETH_Transmit>:
{
 8021a2c:	b5f8      	push	{r3, r4, r5, r6, r7, lr}
 8021a2e:	4604      	mov	r4, r0
  if (pTxConfig == NULL)
 8021a30:	b131      	cbz	r1, 8021a40 <HAL_ETH_Transmit+0x14>
 8021a32:	4615      	mov	r5, r2
  if (heth->gState == HAL_ETH_STATE_STARTED)
 8021a34:	f8d4 3084 	ldr.w	r3, [r4, #132]	@ 0x84
 8021a38:	2b40      	cmp	r3, #64	@ 0x40
 8021a3a:	d009      	beq.n	8021a50 <HAL_ETH_Transmit+0x24>
    return HAL_ERROR;
 8021a3c:	2001      	movs	r0, #1
}
 8021a3e:	bdf8      	pop	{r3, r4, r5, r6, r7, pc}
    heth->ErrorCode |= HAL_ETH_ERROR_PARAM;
 8021a40:	f8d0 3088 	ldr.w	r3, [r0, #136]	@ 0x88
 8021a44:	f043 0301 	orr.w	r3, r3, #1
 8021a48:	f8c0 3088 	str.w	r3, [r0, #136]	@ 0x88
    return HAL_ERROR;
 8021a4c:	2001      	movs	r0, #1
 8021a4e:	e7f6      	b.n	8021a3e <HAL_ETH_Transmit+0x12>
    if (ETH_Prepare_Tx_Descriptors(heth, pTxConfig, 0) != HAL_ETH_ERROR_NONE)
 8021a50:	2200      	movs	r2, #0
 8021a52:	4620      	mov	r0, r4
 8021a54:	f7ff fe00 	bl	8021658 <ETH_Prepare_Tx_Descriptors>
 8021a58:	2800      	cmp	r0, #0
 8021a5a:	d137      	bne.n	8021acc <HAL_ETH_Transmit+0xa0>
  __ASM volatile ("dsb 0xF":::"memory");
 8021a5c:	f3bf 8f4f 	dsb	sy
    dmatxdesc = (ETH_DMADescTypeDef *)(&heth->TxDescList)->TxDesc[heth->TxDescList.CurTxDesc];
 8021a60:	6aa3      	ldr	r3, [r4, #40]	@ 0x28
 8021a62:	1d9a      	adds	r2, r3, #6
 8021a64:	f854 6022 	ldr.w	r6, [r4, r2, lsl #2]
    INCR_TX_DESC_INDEX(heth->TxDescList.CurTxDesc, 1U);
 8021a68:	1c5a      	adds	r2, r3, #1
 8021a6a:	62a2      	str	r2, [r4, #40]	@ 0x28
 8021a6c:	2a03      	cmp	r2, #3
 8021a6e:	d901      	bls.n	8021a74 <HAL_ETH_Transmit+0x48>
 8021a70:	3b03      	subs	r3, #3
 8021a72:	62a3      	str	r3, [r4, #40]	@ 0x28
    WRITE_REG(heth->Instance->DMACTDTPR, (uint32_t)(heth->TxDescList.TxDesc[heth->TxDescList.CurTxDesc]));
 8021a74:	6aa2      	ldr	r2, [r4, #40]	@ 0x28
 8021a76:	6823      	ldr	r3, [r4, #0]
 8021a78:	3206      	adds	r2, #6
 8021a7a:	f854 2022 	ldr.w	r2, [r4, r2, lsl #2]
 8021a7e:	f503 5380 	add.w	r3, r3, #4096	@ 0x1000
 8021a82:	f8c3 2120 	str.w	r2, [r3, #288]	@ 0x120
    tickstart = HAL_GetTick();
 8021a86:	f7ff facf 	bl	8021028 <HAL_GetTick>
 8021a8a:	4607      	mov	r7, r0
    while ((dmatxdesc->DESC3 & ETH_DMATXNDESCWBF_OWN) != (uint32_t)RESET)
 8021a8c:	68f3      	ldr	r3, [r6, #12]
 8021a8e:	2b00      	cmp	r3, #0
 8021a90:	da32      	bge.n	8021af8 <HAL_ETH_Transmit+0xcc>
      if ((heth->Instance->DMACSR & ETH_DMACSR_FBE) != (uint32_t)RESET)
 8021a92:	6823      	ldr	r3, [r4, #0]
 8021a94:	f503 5280 	add.w	r2, r3, #4096	@ 0x1000
 8021a98:	f8d2 2160 	ldr.w	r2, [r2, #352]	@ 0x160
 8021a9c:	f412 5f80 	tst.w	r2, #4096	@ 0x1000
 8021aa0:	d11c      	bne.n	8021adc <HAL_ETH_Transmit+0xb0>
      if (Timeout != HAL_MAX_DELAY)
 8021aa2:	f1b5 3fff 	cmp.w	r5, #4294967295
 8021aa6:	d0f1      	beq.n	8021a8c <HAL_ETH_Transmit+0x60>
        if (((HAL_GetTick() - tickstart) > Timeout) || (Timeout == 0U))
 8021aa8:	f7ff fabe 	bl	8021028 <HAL_GetTick>
 8021aac:	1bc0      	subs	r0, r0, r7
 8021aae:	42a8      	cmp	r0, r5
 8021ab0:	d801      	bhi.n	8021ab6 <HAL_ETH_Transmit+0x8a>
 8021ab2:	2d00      	cmp	r5, #0
 8021ab4:	d1ea      	bne.n	8021a8c <HAL_ETH_Transmit+0x60>
          heth->ErrorCode |= HAL_ETH_ERROR_TIMEOUT;
 8021ab6:	f8d4 3088 	ldr.w	r3, [r4, #136]	@ 0x88
 8021aba:	f043 0304 	orr.w	r3, r3, #4
 8021abe:	f8c4 3088 	str.w	r3, [r4, #136]	@ 0x88
          dmatxdesc->DESC3 = (ETH_DMATXNDESCWBF_FD | ETH_DMATXNDESCWBF_LD);
 8021ac2:	f04f 5340 	mov.w	r3, #805306368	@ 0x30000000
 8021ac6:	60f3      	str	r3, [r6, #12]
          return HAL_ERROR;
 8021ac8:	2001      	movs	r0, #1
 8021aca:	e7b8      	b.n	8021a3e <HAL_ETH_Transmit+0x12>
      heth->ErrorCode |= HAL_ETH_ERROR_BUSY;
 8021acc:	f8d4 3088 	ldr.w	r3, [r4, #136]	@ 0x88
 8021ad0:	f043 0302 	orr.w	r3, r3, #2
 8021ad4:	f8c4 3088 	str.w	r3, [r4, #136]	@ 0x88
      return HAL_ERROR;
 8021ad8:	2001      	movs	r0, #1
 8021ada:	e7b0      	b.n	8021a3e <HAL_ETH_Transmit+0x12>
        heth->ErrorCode |= HAL_ETH_ERROR_DMA;
 8021adc:	f8d4 2088 	ldr.w	r2, [r4, #136]	@ 0x88
 8021ae0:	f042 0208 	orr.w	r2, r2, #8
 8021ae4:	f8c4 2088 	str.w	r2, [r4, #136]	@ 0x88
        heth->DMAErrorCode = heth->Instance->DMACSR;
 8021ae8:	f503 5380 	add.w	r3, r3, #4096	@ 0x1000
 8021aec:	f8d3 3160 	ldr.w	r3, [r3, #352]	@ 0x160
 8021af0:	f8c4 308c 	str.w	r3, [r4, #140]	@ 0x8c
        return HAL_ERROR;
 8021af4:	2001      	movs	r0, #1
 8021af6:	e7a2      	b.n	8021a3e <HAL_ETH_Transmit+0x12>
    return HAL_OK;
 8021af8:	2000      	movs	r0, #0
 8021afa:	e7a0      	b.n	8021a3e <HAL_ETH_Transmit+0x12>

08021afc <HAL_ETH_ReadData>:
{
 8021afc:	e92d 4ff8 	stmdb	sp!, {r3, r4, r5, r6, r7, r8, r9, sl, fp, lr}
 8021b00:	4604      	mov	r4, r0
  if (pAppBuff == NULL)
 8021b02:	b191      	cbz	r1, 8021b2a <HAL_ETH_ReadData+0x2e>
 8021b04:	468b      	mov	fp, r1
  if (heth->gState != HAL_ETH_STATE_STARTED)
 8021b06:	f8d0 3084 	ldr.w	r3, [r0, #132]	@ 0x84
 8021b0a:	2b40      	cmp	r3, #64	@ 0x40
 8021b0c:	f040 8085 	bne.w	8021c1a <HAL_ETH_ReadData+0x11e>
  descidx = heth->RxDescList.RxDescIdx;
 8021b10:	f8d0 805c 	ldr.w	r8, [r0, #92]	@ 0x5c
  dmarxdesc = (ETH_DMADescTypeDef *)heth->RxDescList.RxDesc[descidx];
 8021b14:	f108 0312 	add.w	r3, r8, #18
 8021b18:	f850 5023 	ldr.w	r5, [r0, r3, lsl #2]
  desccntmax = ETH_RX_DESC_CNT - heth->RxDescList.RxBuildDescCnt;
 8021b1c:	6ec3      	ldr	r3, [r0, #108]	@ 0x6c
 8021b1e:	f1c3 0a04 	rsb	sl, r3, #4
  uint8_t rxdataready = 0U;
 8021b22:	f04f 0900 	mov.w	r9, #0
  uint32_t desccnt = 0U;
 8021b26:	464f      	mov	r7, r9
  while ((READ_BIT(dmarxdesc->DESC3, ETH_DMARXNDESCWBF_OWN) == (uint32_t)RESET) && (desccnt < desccntmax)
 8021b28:	e025      	b.n	8021b76 <HAL_ETH_ReadData+0x7a>
    heth->ErrorCode |= HAL_ETH_ERROR_PARAM;
 8021b2a:	f8d0 3088 	ldr.w	r3, [r0, #136]	@ 0x88
 8021b2e:	f043 0301 	orr.w	r3, r3, #1
 8021b32:	f8c0 3088 	str.w	r3, [r0, #136]	@ 0x88
    return HAL_ERROR;
 8021b36:	2001      	movs	r0, #1
 8021b38:	e070      	b.n	8021c1c <HAL_ETH_ReadData+0x120>
        rxdataready = 1;
 8021b3a:	f04f 0901 	mov.w	r9, #1
      HAL_ETH_RxLinkCallback(&heth->RxDescList.pRxStart, &heth->RxDescList.pRxEnd,
 8021b3e:	b2b3      	uxth	r3, r6
 8021b40:	692a      	ldr	r2, [r5, #16]
 8021b42:	f104 0180 	add.w	r1, r4, #128	@ 0x80
 8021b46:	f104 007c 	add.w	r0, r4, #124	@ 0x7c
 8021b4a:	f003 fcdf 	bl	802550c <HAL_ETH_RxLinkCallback>
      heth->RxDescList.RxDescCnt++;
 8021b4e:	6e23      	ldr	r3, [r4, #96]	@ 0x60
 8021b50:	3301      	adds	r3, #1
 8021b52:	6623      	str	r3, [r4, #96]	@ 0x60
      heth->RxDescList.RxDataLength += bufflength;
 8021b54:	6e63      	ldr	r3, [r4, #100]	@ 0x64
 8021b56:	4433      	add	r3, r6
 8021b58:	6663      	str	r3, [r4, #100]	@ 0x64
      dmarxdesc->BackupAddr0 = 0;
 8021b5a:	2300      	movs	r3, #0
 8021b5c:	612b      	str	r3, [r5, #16]
    INCR_RX_DESC_INDEX(descidx, 1U);
 8021b5e:	f108 0301 	add.w	r3, r8, #1
 8021b62:	2b03      	cmp	r3, #3
 8021b64:	d901      	bls.n	8021b6a <HAL_ETH_ReadData+0x6e>
 8021b66:	f1a8 0303 	sub.w	r3, r8, #3
    dmarxdesc = (ETH_DMADescTypeDef *)heth->RxDescList.RxDesc[descidx];
 8021b6a:	f103 0212 	add.w	r2, r3, #18
 8021b6e:	f854 5022 	ldr.w	r5, [r4, r2, lsl #2]
    desccnt++;
 8021b72:	3701      	adds	r7, #1
 8021b74:	4698      	mov	r8, r3
  while ((READ_BIT(dmarxdesc->DESC3, ETH_DMARXNDESCWBF_OWN) == (uint32_t)RESET) && (desccnt < desccntmax)
 8021b76:	68eb      	ldr	r3, [r5, #12]
         && (rxdataready == 0U))
 8021b78:	2b00      	cmp	r3, #0
 8021b7a:	db39      	blt.n	8021bf0 <HAL_ETH_ReadData+0xf4>
 8021b7c:	f089 0301 	eor.w	r3, r9, #1
 8021b80:	4557      	cmp	r7, sl
 8021b82:	d235      	bcs.n	8021bf0 <HAL_ETH_ReadData+0xf4>
 8021b84:	2b00      	cmp	r3, #0
 8021b86:	d033      	beq.n	8021bf0 <HAL_ETH_ReadData+0xf4>
    if ((READ_BIT(dmarxdesc->DESC3, ETH_DMARXNDESCWBF_FD) != (uint32_t)RESET) ||
 8021b88:	68eb      	ldr	r3, [r5, #12]
 8021b8a:	f013 5f00 	tst.w	r3, #536870912	@ 0x20000000
 8021b8e:	d102      	bne.n	8021b96 <HAL_ETH_ReadData+0x9a>
        (heth->RxDescList.pRxStart != NULL))
 8021b90:	6fe3      	ldr	r3, [r4, #124]	@ 0x7c
    if ((READ_BIT(dmarxdesc->DESC3, ETH_DMARXNDESCWBF_FD) != (uint32_t)RESET) ||
 8021b92:	2b00      	cmp	r3, #0
 8021b94:	d0e3      	beq.n	8021b5e <HAL_ETH_ReadData+0x62>
      if (READ_BIT(dmarxdesc->DESC3, ETH_DMARXNDESCWBF_FD) != (uint32_t)RESET)
 8021b96:	68eb      	ldr	r3, [r5, #12]
 8021b98:	f013 5f00 	tst.w	r3, #536870912	@ 0x20000000
 8021b9c:	d002      	beq.n	8021ba4 <HAL_ETH_ReadData+0xa8>
        heth->RxDescList.RxDescCnt = 0;
 8021b9e:	2300      	movs	r3, #0
 8021ba0:	6623      	str	r3, [r4, #96]	@ 0x60
        heth->RxDescList.RxDataLength = 0;
 8021ba2:	6663      	str	r3, [r4, #100]	@ 0x64
      bufflength = READ_BIT(dmarxdesc->DESC3, ETH_DMARXNDESCWBF_PL) - heth->RxDescList.RxDataLength;
 8021ba4:	68ee      	ldr	r6, [r5, #12]
 8021ba6:	f3c6 060e 	ubfx	r6, r6, #0, #15
 8021baa:	6e63      	ldr	r3, [r4, #100]	@ 0x64
 8021bac:	1af6      	subs	r6, r6, r3
      if (READ_BIT(dmarxdesc->DESC3, ETH_DMARXNDESCWBF_LD) != (uint32_t)RESET)
 8021bae:	68eb      	ldr	r3, [r5, #12]
 8021bb0:	f013 5f80 	tst.w	r3, #268435456	@ 0x10000000
 8021bb4:	d0c3      	beq.n	8021b3e <HAL_ETH_ReadData+0x42>
        heth->RxDescList.pRxLastRxDesc = dmarxdesc->DESC3;
 8021bb6:	68eb      	ldr	r3, [r5, #12]
 8021bb8:	6723      	str	r3, [r4, #112]	@ 0x70
        if (READ_BIT(dmarxdesc->DESC1, ETH_DMARXNDESCWBF_TSA) != (uint32_t)RESET)
 8021bba:	686b      	ldr	r3, [r5, #4]
 8021bbc:	f413 4f80 	tst.w	r3, #16384	@ 0x4000
 8021bc0:	d0bb      	beq.n	8021b3a <HAL_ETH_ReadData+0x3e>
          INCR_RX_DESC_INDEX(descidx_next, 1U);
 8021bc2:	f108 0301 	add.w	r3, r8, #1
 8021bc6:	2b03      	cmp	r3, #3
 8021bc8:	d901      	bls.n	8021bce <HAL_ETH_ReadData+0xd2>
 8021bca:	f1a8 0303 	sub.w	r3, r8, #3
          dmarxdesc_next = (ETH_DMADescTypeDef *)heth->RxDescList.RxDesc[descidx_next];
 8021bce:	3312      	adds	r3, #18
 8021bd0:	f854 3023 	ldr.w	r3, [r4, r3, lsl #2]
          if (READ_BIT(dmarxdesc_next->DESC3, ETH_DMARXNDESCWBF_CTXT) != (uint32_t)RESET)
 8021bd4:	68da      	ldr	r2, [r3, #12]
 8021bd6:	f012 4f80 	tst.w	r2, #1073741824	@ 0x40000000
 8021bda:	d006      	beq.n	8021bea <HAL_ETH_ReadData+0xee>
            heth->RxDescList.TimeStamp.TimeStampHigh = dmarxdesc_next->DESC1;
 8021bdc:	685a      	ldr	r2, [r3, #4]
 8021bde:	67a2      	str	r2, [r4, #120]	@ 0x78
            heth->RxDescList.TimeStamp.TimeStampLow  = dmarxdesc_next->DESC0;
 8021be0:	681b      	ldr	r3, [r3, #0]
 8021be2:	6763      	str	r3, [r4, #116]	@ 0x74
        rxdataready = 1;
 8021be4:	f04f 0901 	mov.w	r9, #1
 8021be8:	e7a9      	b.n	8021b3e <HAL_ETH_ReadData+0x42>
 8021bea:	f04f 0901 	mov.w	r9, #1
 8021bee:	e7a6      	b.n	8021b3e <HAL_ETH_ReadData+0x42>
  heth->RxDescList.RxBuildDescCnt += desccnt;
 8021bf0:	6ee3      	ldr	r3, [r4, #108]	@ 0x6c
 8021bf2:	443b      	add	r3, r7
 8021bf4:	66e3      	str	r3, [r4, #108]	@ 0x6c
  if ((heth->RxDescList.RxBuildDescCnt) != 0U)
 8021bf6:	b933      	cbnz	r3, 8021c06 <HAL_ETH_ReadData+0x10a>
  heth->RxDescList.RxDescIdx = descidx;
 8021bf8:	f8c4 805c 	str.w	r8, [r4, #92]	@ 0x5c
  if (rxdataready == 1U)
 8021bfc:	f1b9 0f00 	cmp.w	r9, #0
 8021c00:	d105      	bne.n	8021c0e <HAL_ETH_ReadData+0x112>
  return HAL_ERROR;
 8021c02:	2001      	movs	r0, #1
 8021c04:	e00a      	b.n	8021c1c <HAL_ETH_ReadData+0x120>
    ETH_UpdateDescriptor(heth);
 8021c06:	4620      	mov	r0, r4
 8021c08:	f7ff fad4 	bl	80211b4 <ETH_UpdateDescriptor>
 8021c0c:	e7f4      	b.n	8021bf8 <HAL_ETH_ReadData+0xfc>
    *pAppBuff = heth->RxDescList.pRxStart;
 8021c0e:	6fe3      	ldr	r3, [r4, #124]	@ 0x7c
 8021c10:	f8cb 3000 	str.w	r3, [fp]
    heth->RxDescList.pRxStart = NULL;
 8021c14:	2000      	movs	r0, #0
 8021c16:	67e0      	str	r0, [r4, #124]	@ 0x7c
    return HAL_OK;
 8021c18:	e000      	b.n	8021c1c <HAL_ETH_ReadData+0x120>
    return HAL_ERROR;
 8021c1a:	2001      	movs	r0, #1
}
 8021c1c:	e8bd 8ff8 	ldmia.w	sp!, {r3, r4, r5, r6, r7, r8, r9, sl, fp, pc}

08021c20 <HAL_ETH_ReadPHYRegister>:
{
 8021c20:	b570      	push	{r4, r5, r6, lr}
 8021c22:	4604      	mov	r4, r0
 8021c24:	461d      	mov	r5, r3
  if (READ_BIT(heth->Instance->MACMDIOAR, ETH_MACMDIOAR_MB) != (uint32_t)RESET)
 8021c26:	6800      	ldr	r0, [r0, #0]
 8021c28:	f8d0 3200 	ldr.w	r3, [r0, #512]	@ 0x200
 8021c2c:	f013 0f01 	tst.w	r3, #1
 8021c30:	d001      	beq.n	8021c36 <HAL_ETH_ReadPHYRegister+0x16>
    return HAL_ERROR;
 8021c32:	2001      	movs	r0, #1
}
 8021c34:	bd70      	pop	{r4, r5, r6, pc}
  WRITE_REG(tmpreg, heth->Instance->MACMDIOAR);
 8021c36:	f8d0 3200 	ldr.w	r3, [r0, #512]	@ 0x200
  MODIFY_REG(tmpreg, ETH_MACMDIOAR_PA, (PHYAddr << 21));
 8021c3a:	f023 7378 	bic.w	r3, r3, #65011712	@ 0x3e00000
 8021c3e:	ea43 5141 	orr.w	r1, r3, r1, lsl #21
  MODIFY_REG(tmpreg, ETH_MACMDIOAR_RDA, (PHYReg << 16));
 8021c42:	f421 13f8 	bic.w	r3, r1, #2031616	@ 0x1f0000
 8021c46:	ea43 4202 	orr.w	r2, r3, r2, lsl #16
  SET_BIT(tmpreg, ETH_MACMDIOAR_MB);
 8021c4a:	f042 020d 	orr.w	r2, r2, #13
  WRITE_REG(heth->Instance->MACMDIOAR, tmpreg);
 8021c4e:	f8c0 2200 	str.w	r2, [r0, #512]	@ 0x200
  tickstart = HAL_GetTick();
 8021c52:	f7ff f9e9 	bl	8021028 <HAL_GetTick>
 8021c56:	4606      	mov	r6, r0
  while (READ_BIT(heth->Instance->MACMDIOAR, ETH_MACMDIOAR_MB) > 0U)
 8021c58:	6822      	ldr	r2, [r4, #0]
 8021c5a:	f8d2 1200 	ldr.w	r1, [r2, #512]	@ 0x200
 8021c5e:	f011 0f01 	tst.w	r1, #1
 8021c62:	d007      	beq.n	8021c74 <HAL_ETH_ReadPHYRegister+0x54>
    if (((HAL_GetTick() - tickstart) > ETH_MDIO_BUS_TIMEOUT))
 8021c64:	f7ff f9e0 	bl	8021028 <HAL_GetTick>
 8021c68:	1b82      	subs	r2, r0, r6
 8021c6a:	f5b2 7f7a 	cmp.w	r2, #1000	@ 0x3e8
 8021c6e:	d9f3      	bls.n	8021c58 <HAL_ETH_ReadPHYRegister+0x38>
      return HAL_ERROR;
 8021c70:	2001      	movs	r0, #1
 8021c72:	e7df      	b.n	8021c34 <HAL_ETH_ReadPHYRegister+0x14>
  WRITE_REG(*pRegValue, (uint16_t)heth->Instance->MACMDIODR);
 8021c74:	f8d2 3204 	ldr.w	r3, [r2, #516]	@ 0x204
 8021c78:	b29b      	uxth	r3, r3
 8021c7a:	602b      	str	r3, [r5, #0]
  return HAL_OK;
 8021c7c:	2000      	movs	r0, #0
 8021c7e:	e7d9      	b.n	8021c34 <HAL_ETH_ReadPHYRegister+0x14>

08021c80 <HAL_ETH_WritePHYRegister>:
{
 8021c80:	b538      	push	{r3, r4, r5, lr}
 8021c82:	4604      	mov	r4, r0
  if (READ_BIT(heth->Instance->MACMDIOAR, ETH_MACMDIOAR_MB) != (uint32_t)RESET)
 8021c84:	6800      	ldr	r0, [r0, #0]
 8021c86:	f8d0 5200 	ldr.w	r5, [r0, #512]	@ 0x200
 8021c8a:	f015 0f01 	tst.w	r5, #1
 8021c8e:	d001      	beq.n	8021c94 <HAL_ETH_WritePHYRegister+0x14>
    return HAL_ERROR;
 8021c90:	2001      	movs	r0, #1
}
 8021c92:	bd38      	pop	{r3, r4, r5, pc}
  WRITE_REG(tmpreg, heth->Instance->MACMDIOAR);
 8021c94:	f8d0 0200 	ldr.w	r0, [r0, #512]	@ 0x200
  MODIFY_REG(tmpreg, ETH_MACMDIOAR_PA, (PHYAddr << 21));
 8021c98:	f020 7078 	bic.w	r0, r0, #65011712	@ 0x3e00000
 8021c9c:	ea40 5141 	orr.w	r1, r0, r1, lsl #21
  MODIFY_REG(tmpreg, ETH_MACMDIOAR_RDA, (PHYReg << 16));
 8021ca0:	f421 11f8 	bic.w	r1, r1, #2031616	@ 0x1f0000
 8021ca4:	ea41 4202 	orr.w	r2, r1, r2, lsl #16
  MODIFY_REG(tmpreg, ETH_MACMDIOAR_MOC, ETH_MACMDIOAR_MOC_WR);
 8021ca8:	f022 020c 	bic.w	r2, r2, #12
  SET_BIT(tmpreg, ETH_MACMDIOAR_MB);
 8021cac:	f042 0205 	orr.w	r2, r2, #5
  WRITE_REG(ETH->MACMDIODR, (uint16_t)RegValue);
 8021cb0:	b29b      	uxth	r3, r3
 8021cb2:	490c      	ldr	r1, [pc, #48]	@ (8021ce4 <HAL_ETH_WritePHYRegister+0x64>)
 8021cb4:	f8c1 3204 	str.w	r3, [r1, #516]	@ 0x204
  WRITE_REG(ETH->MACMDIOAR, tmpreg);
 8021cb8:	f8c1 2200 	str.w	r2, [r1, #512]	@ 0x200
  tickstart = HAL_GetTick();
 8021cbc:	f7ff f9b4 	bl	8021028 <HAL_GetTick>
 8021cc0:	4605      	mov	r5, r0
  while (READ_BIT(heth->Instance->MACMDIOAR, ETH_MACMDIOAR_MB) > 0U)
 8021cc2:	6823      	ldr	r3, [r4, #0]
 8021cc4:	f8d3 3200 	ldr.w	r3, [r3, #512]	@ 0x200
 8021cc8:	f013 0f01 	tst.w	r3, #1
 8021ccc:	d007      	beq.n	8021cde <HAL_ETH_WritePHYRegister+0x5e>
    if (((HAL_GetTick() - tickstart) > ETH_MDIO_BUS_TIMEOUT))
 8021cce:	f7ff f9ab 	bl	8021028 <HAL_GetTick>
 8021cd2:	1b43      	subs	r3, r0, r5
 8021cd4:	f5b3 7f7a 	cmp.w	r3, #1000	@ 0x3e8
 8021cd8:	d9f3      	bls.n	8021cc2 <HAL_ETH_WritePHYRegister+0x42>
      return HAL_ERROR;
 8021cda:	2001      	movs	r0, #1
 8021cdc:	e7d9      	b.n	8021c92 <HAL_ETH_WritePHYRegister+0x12>
  return HAL_OK;
 8021cde:	2000      	movs	r0, #0
 8021ce0:	e7d7      	b.n	8021c92 <HAL_ETH_WritePHYRegister+0x12>
 8021ce2:	bf00      	nop
 8021ce4:	40028000 	.word	0x40028000

08021ce8 <HAL_ETH_GetMACConfig>:
  if (macconf == NULL)
 8021ce8:	2900      	cmp	r1, #0
 8021cea:	f000 80ee 	beq.w	8021eca <HAL_ETH_GetMACConfig+0x1e2>
  macconf->PreambleLength = READ_BIT(heth->Instance->MACCR, ETH_MACCR_PRELEN);
 8021cee:	6802      	ldr	r2, [r0, #0]
 8021cf0:	6812      	ldr	r2, [r2, #0]
 8021cf2:	f002 020c 	and.w	r2, r2, #12
 8021cf6:	62ca      	str	r2, [r1, #44]	@ 0x2c
  macconf->DeferralCheck = ((READ_BIT(heth->Instance->MACCR, ETH_MACCR_DC) >> 4) > 0U) ? ENABLE : DISABLE;
 8021cf8:	6802      	ldr	r2, [r0, #0]
 8021cfa:	6812      	ldr	r2, [r2, #0]
 8021cfc:	f3c2 1200 	ubfx	r2, r2, #4, #1
 8021d00:	f881 2028 	strb.w	r2, [r1, #40]	@ 0x28
  macconf->BackOffLimit = READ_BIT(heth->Instance->MACCR, ETH_MACCR_BL);
 8021d04:	6802      	ldr	r2, [r0, #0]
 8021d06:	6812      	ldr	r2, [r2, #0]
 8021d08:	f002 0260 	and.w	r2, r2, #96	@ 0x60
 8021d0c:	624a      	str	r2, [r1, #36]	@ 0x24
  macconf->RetryTransmission = ((READ_BIT(heth->Instance->MACCR, ETH_MACCR_DR) >> 8) == 0U) ? ENABLE : DISABLE;
 8021d0e:	6802      	ldr	r2, [r0, #0]
 8021d10:	6812      	ldr	r2, [r2, #0]
 8021d12:	f402 7280 	and.w	r2, r2, #256	@ 0x100
 8021d16:	fab2 f282 	clz	r2, r2
 8021d1a:	0952      	lsrs	r2, r2, #5
 8021d1c:	f881 2020 	strb.w	r2, [r1, #32]
  macconf->CarrierSenseDuringTransmit = ((READ_BIT(heth->Instance->MACCR, ETH_MACCR_DCRS) >> 9) > 0U)
 8021d20:	6802      	ldr	r2, [r0, #0]
 8021d22:	6812      	ldr	r2, [r2, #0]
                                        ? ENABLE : DISABLE;
 8021d24:	f3c2 2240 	ubfx	r2, r2, #9, #1
  macconf->CarrierSenseDuringTransmit = ((READ_BIT(heth->Instance->MACCR, ETH_MACCR_DCRS) >> 9) > 0U)
 8021d28:	77ca      	strb	r2, [r1, #31]
  macconf->ReceiveOwn = ((READ_BIT(heth->Instance->MACCR, ETH_MACCR_DO) >> 10) == 0U) ? ENABLE : DISABLE;
 8021d2a:	6802      	ldr	r2, [r0, #0]
 8021d2c:	6812      	ldr	r2, [r2, #0]
 8021d2e:	f402 6280 	and.w	r2, r2, #1024	@ 0x400
 8021d32:	fab2 f282 	clz	r2, r2
 8021d36:	0952      	lsrs	r2, r2, #5
 8021d38:	778a      	strb	r2, [r1, #30]
  macconf->CarrierSenseBeforeTransmit = ((READ_BIT(heth->Instance->MACCR,
 8021d3a:	6802      	ldr	r2, [r0, #0]
 8021d3c:	6812      	ldr	r2, [r2, #0]
                                                   ETH_MACCR_ECRSFD) >> 11) > 0U) ? ENABLE : DISABLE;
 8021d3e:	f3c2 22c0 	ubfx	r2, r2, #11, #1
  macconf->CarrierSenseBeforeTransmit = ((READ_BIT(heth->Instance->MACCR,
 8021d42:	774a      	strb	r2, [r1, #29]
  macconf->LoopbackMode = ((READ_BIT(heth->Instance->MACCR, ETH_MACCR_LM) >> 12) > 0U) ? ENABLE : DISABLE;
 8021d44:	6802      	ldr	r2, [r0, #0]
 8021d46:	6812      	ldr	r2, [r2, #0]
 8021d48:	f3c2 3200 	ubfx	r2, r2, #12, #1
 8021d4c:	770a      	strb	r2, [r1, #28]
  macconf->DuplexMode = READ_BIT(heth->Instance->MACCR, ETH_MACCR_DM);
 8021d4e:	6802      	ldr	r2, [r0, #0]
 8021d50:	6812      	ldr	r2, [r2, #0]
 8021d52:	f402 5200 	and.w	r2, r2, #8192	@ 0x2000
 8021d56:	618a      	str	r2, [r1, #24]
  macconf->Speed = READ_BIT(heth->Instance->MACCR, ETH_MACCR_FES);
 8021d58:	6802      	ldr	r2, [r0, #0]
 8021d5a:	6812      	ldr	r2, [r2, #0]
 8021d5c:	f402 4280 	and.w	r2, r2, #16384	@ 0x4000
 8021d60:	614a      	str	r2, [r1, #20]
  macconf->JumboPacket = ((READ_BIT(heth->Instance->MACCR, ETH_MACCR_JE) >> 16) > 0U) ? ENABLE : DISABLE;
 8021d62:	6802      	ldr	r2, [r0, #0]
 8021d64:	6812      	ldr	r2, [r2, #0]
 8021d66:	f3c2 4200 	ubfx	r2, r2, #16, #1
 8021d6a:	748a      	strb	r2, [r1, #18]
  macconf->Jabber = ((READ_BIT(heth->Instance->MACCR, ETH_MACCR_JD) >> 17) == 0U) ? ENABLE : DISABLE;
 8021d6c:	6802      	ldr	r2, [r0, #0]
 8021d6e:	6812      	ldr	r2, [r2, #0]
 8021d70:	f402 3200 	and.w	r2, r2, #131072	@ 0x20000
 8021d74:	fab2 f282 	clz	r2, r2
 8021d78:	0952      	lsrs	r2, r2, #5
 8021d7a:	744a      	strb	r2, [r1, #17]
  macconf->Watchdog = ((READ_BIT(heth->Instance->MACCR, ETH_MACCR_WD) >> 19) == 0U) ? ENABLE : DISABLE;
 8021d7c:	6802      	ldr	r2, [r0, #0]
 8021d7e:	6812      	ldr	r2, [r2, #0]
 8021d80:	f402 2200 	and.w	r2, r2, #524288	@ 0x80000
 8021d84:	fab2 f282 	clz	r2, r2
 8021d88:	0952      	lsrs	r2, r2, #5
 8021d8a:	740a      	strb	r2, [r1, #16]
  macconf->AutomaticPadCRCStrip = ((READ_BIT(heth->Instance->MACCR, ETH_MACCR_ACS) >> 20) > 0U) ? ENABLE : DISABLE;
 8021d8c:	6802      	ldr	r2, [r0, #0]
 8021d8e:	6812      	ldr	r2, [r2, #0]
 8021d90:	f3c2 5200 	ubfx	r2, r2, #20, #1
 8021d94:	73ca      	strb	r2, [r1, #15]
  macconf->CRCStripTypePacket = ((READ_BIT(heth->Instance->MACCR, ETH_MACCR_CST) >> 21) > 0U) ? ENABLE : DISABLE;
 8021d96:	6802      	ldr	r2, [r0, #0]
 8021d98:	6812      	ldr	r2, [r2, #0]
 8021d9a:	f3c2 5240 	ubfx	r2, r2, #21, #1
 8021d9e:	738a      	strb	r2, [r1, #14]
  macconf->Support2KPacket = ((READ_BIT(heth->Instance->MACCR, ETH_MACCR_S2KP) >> 22) > 0U) ? ENABLE : DISABLE;
 8021da0:	6802      	ldr	r2, [r0, #0]
 8021da2:	6812      	ldr	r2, [r2, #0]
 8021da4:	f3c2 5280 	ubfx	r2, r2, #22, #1
 8021da8:	734a      	strb	r2, [r1, #13]
  macconf->GiantPacketSizeLimitControl = ((READ_BIT(heth->Instance->MACCR,
 8021daa:	6802      	ldr	r2, [r0, #0]
 8021dac:	6812      	ldr	r2, [r2, #0]
                                                    ETH_MACCR_GPSLCE) >> 23) > 0U) ? ENABLE : DISABLE;
 8021dae:	f3c2 52c0 	ubfx	r2, r2, #23, #1
  macconf->GiantPacketSizeLimitControl = ((READ_BIT(heth->Instance->MACCR,
 8021db2:	730a      	strb	r2, [r1, #12]
  macconf->InterPacketGapVal = READ_BIT(heth->Instance->MACCR, ETH_MACCR_IPG);
 8021db4:	6802      	ldr	r2, [r0, #0]
 8021db6:	6812      	ldr	r2, [r2, #0]
 8021db8:	f002 62e0 	and.w	r2, r2, #117440512	@ 0x7000000
 8021dbc:	608a      	str	r2, [r1, #8]
  macconf->ChecksumOffload = ((READ_BIT(heth->Instance->MACCR, ETH_MACCR_IPC) >> 27) > 0U) ? ENABLE : DISABLE;
 8021dbe:	6802      	ldr	r2, [r0, #0]
 8021dc0:	6812      	ldr	r2, [r2, #0]
 8021dc2:	f3c2 62c0 	ubfx	r2, r2, #27, #1
 8021dc6:	710a      	strb	r2, [r1, #4]
  macconf->SourceAddrControl = READ_BIT(heth->Instance->MACCR, ETH_MACCR_SARC);
 8021dc8:	6802      	ldr	r2, [r0, #0]
 8021dca:	6812      	ldr	r2, [r2, #0]
 8021dcc:	f002 42e0 	and.w	r2, r2, #1879048192	@ 0x70000000
 8021dd0:	600a      	str	r2, [r1, #0]
  macconf->GiantPacketSizeLimit = READ_BIT(heth->Instance->MACECR, ETH_MACECR_GPSL);
 8021dd2:	6802      	ldr	r2, [r0, #0]
 8021dd4:	6852      	ldr	r2, [r2, #4]
 8021dd6:	f3c2 020d 	ubfx	r2, r2, #0, #14
 8021dda:	634a      	str	r2, [r1, #52]	@ 0x34
  macconf->CRCCheckingRxPackets = ((READ_BIT(heth->Instance->MACECR, ETH_MACECR_DCRCC) >> 16) == 0U) ? ENABLE : DISABLE;
 8021ddc:	6802      	ldr	r2, [r0, #0]
 8021dde:	6852      	ldr	r2, [r2, #4]
 8021de0:	f402 3280 	and.w	r2, r2, #65536	@ 0x10000
 8021de4:	fab2 f282 	clz	r2, r2
 8021de8:	0952      	lsrs	r2, r2, #5
 8021dea:	f881 2032 	strb.w	r2, [r1, #50]	@ 0x32
  macconf->SlowProtocolDetect = ((READ_BIT(heth->Instance->MACECR, ETH_MACECR_SPEN) >> 17) > 0U) ? ENABLE : DISABLE;
 8021dee:	6802      	ldr	r2, [r0, #0]
 8021df0:	6852      	ldr	r2, [r2, #4]
 8021df2:	f3c2 4240 	ubfx	r2, r2, #17, #1
 8021df6:	f881 2031 	strb.w	r2, [r1, #49]	@ 0x31
  macconf->UnicastSlowProtocolPacketDetect = ((READ_BIT(heth->Instance->MACECR,
 8021dfa:	6802      	ldr	r2, [r0, #0]
 8021dfc:	6852      	ldr	r2, [r2, #4]
                                                        ETH_MACECR_USP) >> 18) > 0U) ? ENABLE : DISABLE;
 8021dfe:	f3c2 4280 	ubfx	r2, r2, #18, #1
  macconf->UnicastSlowProtocolPacketDetect = ((READ_BIT(heth->Instance->MACECR,
 8021e02:	f881 2030 	strb.w	r2, [r1, #48]	@ 0x30
  macconf->ExtendedInterPacketGap = ((READ_BIT(heth->Instance->MACECR, ETH_MACECR_EIPGEN) >> 24) > 0U)
 8021e06:	6802      	ldr	r2, [r0, #0]
 8021e08:	6852      	ldr	r2, [r2, #4]
                                    ? ENABLE : DISABLE;
 8021e0a:	f3c2 6200 	ubfx	r2, r2, #24, #1
  macconf->ExtendedInterPacketGap = ((READ_BIT(heth->Instance->MACECR, ETH_MACECR_EIPGEN) >> 24) > 0U)
 8021e0e:	f881 2038 	strb.w	r2, [r1, #56]	@ 0x38
  macconf->ExtendedInterPacketGapVal = READ_BIT(heth->Instance->MACECR, ETH_MACECR_EIPG) >> 25;
 8021e12:	6802      	ldr	r2, [r0, #0]
 8021e14:	6852      	ldr	r2, [r2, #4]
 8021e16:	f3c2 6244 	ubfx	r2, r2, #25, #5
 8021e1a:	63ca      	str	r2, [r1, #60]	@ 0x3c
  macconf->ProgrammableWatchdog = ((READ_BIT(heth->Instance->MACWTR, ETH_MACWTR_PWE) >> 8) > 0U) ? ENABLE : DISABLE;
 8021e1c:	6802      	ldr	r2, [r0, #0]
 8021e1e:	68d2      	ldr	r2, [r2, #12]
 8021e20:	f3c2 2200 	ubfx	r2, r2, #8, #1
 8021e24:	f881 2040 	strb.w	r2, [r1, #64]	@ 0x40
  macconf->WatchdogTimeout = READ_BIT(heth->Instance->MACWTR, ETH_MACWTR_WTO);
 8021e28:	6802      	ldr	r2, [r0, #0]
 8021e2a:	68d2      	ldr	r2, [r2, #12]
 8021e2c:	f002 020f 	and.w	r2, r2, #15
 8021e30:	644a      	str	r2, [r1, #68]	@ 0x44
  macconf->TransmitFlowControl = ((READ_BIT(heth->Instance->MACTFCR, ETH_MACTFCR_TFE) >> 1) > 0U) ? ENABLE : DISABLE;
 8021e32:	6802      	ldr	r2, [r0, #0]
 8021e34:	6f12      	ldr	r2, [r2, #112]	@ 0x70
 8021e36:	f3c2 0240 	ubfx	r2, r2, #1, #1
 8021e3a:	f881 2054 	strb.w	r2, [r1, #84]	@ 0x54
  macconf->ZeroQuantaPause = ((READ_BIT(heth->Instance->MACTFCR, ETH_MACTFCR_DZPQ) >> 7) == 0U) ? ENABLE : DISABLE;
 8021e3e:	6802      	ldr	r2, [r0, #0]
 8021e40:	6f12      	ldr	r2, [r2, #112]	@ 0x70
 8021e42:	f002 0280 	and.w	r2, r2, #128	@ 0x80
 8021e46:	fab2 f282 	clz	r2, r2
 8021e4a:	0952      	lsrs	r2, r2, #5
 8021e4c:	f881 204c 	strb.w	r2, [r1, #76]	@ 0x4c
  macconf->PauseLowThreshold = READ_BIT(heth->Instance->MACTFCR, ETH_MACTFCR_PLT);
 8021e50:	6802      	ldr	r2, [r0, #0]
 8021e52:	6f12      	ldr	r2, [r2, #112]	@ 0x70
 8021e54:	f002 0270 	and.w	r2, r2, #112	@ 0x70
 8021e58:	650a      	str	r2, [r1, #80]	@ 0x50
  macconf->PauseTime = (READ_BIT(heth->Instance->MACTFCR, ETH_MACTFCR_PT) >> 16);
 8021e5a:	6802      	ldr	r2, [r0, #0]
 8021e5c:	6f12      	ldr	r2, [r2, #112]	@ 0x70
 8021e5e:	0c12      	lsrs	r2, r2, #16
 8021e60:	648a      	str	r2, [r1, #72]	@ 0x48
  macconf->ReceiveFlowControl = (READ_BIT(heth->Instance->MACRFCR, ETH_MACRFCR_RFE) > 0U) ? ENABLE : DISABLE;
 8021e62:	6802      	ldr	r2, [r0, #0]
 8021e64:	f8d2 2090 	ldr.w	r2, [r2, #144]	@ 0x90
 8021e68:	f002 0201 	and.w	r2, r2, #1
 8021e6c:	f881 2056 	strb.w	r2, [r1, #86]	@ 0x56
  macconf->UnicastPausePacketDetect = ((READ_BIT(heth->Instance->MACRFCR, ETH_MACRFCR_UP) >> 1) > 0U)
 8021e70:	6802      	ldr	r2, [r0, #0]
 8021e72:	f8d2 2090 	ldr.w	r2, [r2, #144]	@ 0x90
                                      ? ENABLE : DISABLE;
 8021e76:	f3c2 0240 	ubfx	r2, r2, #1, #1
  macconf->UnicastPausePacketDetect = ((READ_BIT(heth->Instance->MACRFCR, ETH_MACRFCR_UP) >> 1) > 0U)
 8021e7a:	f881 2055 	strb.w	r2, [r1, #85]	@ 0x55
  macconf->TransmitQueueMode = READ_BIT(heth->Instance->MTLTQOMR, (ETH_MTLTQOMR_TTC | ETH_MTLTQOMR_TSF));
 8021e7e:	6802      	ldr	r2, [r0, #0]
 8021e80:	f8d2 2d00 	ldr.w	r2, [r2, #3328]	@ 0xd00
 8021e84:	f002 0272 	and.w	r2, r2, #114	@ 0x72
 8021e88:	658a      	str	r2, [r1, #88]	@ 0x58
  macconf->ReceiveQueueMode = READ_BIT(heth->Instance->MTLRQOMR, (ETH_MTLRQOMR_RTC | ETH_MTLRQOMR_RSF));
 8021e8a:	6802      	ldr	r2, [r0, #0]
 8021e8c:	f8d2 2d30 	ldr.w	r2, [r2, #3376]	@ 0xd30
 8021e90:	f002 0223 	and.w	r2, r2, #35	@ 0x23
 8021e94:	65ca      	str	r2, [r1, #92]	@ 0x5c
  macconf->ForwardRxUndersizedGoodPacket = ((READ_BIT(heth->Instance->MTLRQOMR,
 8021e96:	6802      	ldr	r2, [r0, #0]
 8021e98:	f8d2 2d30 	ldr.w	r2, [r2, #3376]	@ 0xd30
                                                      ETH_MTLRQOMR_FUP) >> 3) > 0U) ? ENABLE : DISABLE;
 8021e9c:	f3c2 02c0 	ubfx	r2, r2, #3, #1
  macconf->ForwardRxUndersizedGoodPacket = ((READ_BIT(heth->Instance->MTLRQOMR,
 8021ea0:	f881 2062 	strb.w	r2, [r1, #98]	@ 0x62
  macconf->ForwardRxErrorPacket = ((READ_BIT(heth->Instance->MTLRQOMR, ETH_MTLRQOMR_FEP) >> 4) > 0U) ? ENABLE : DISABLE;
 8021ea4:	6802      	ldr	r2, [r0, #0]
 8021ea6:	f8d2 2d30 	ldr.w	r2, [r2, #3376]	@ 0xd30
 8021eaa:	f3c2 1200 	ubfx	r2, r2, #4, #1
 8021eae:	f881 2061 	strb.w	r2, [r1, #97]	@ 0x61
  macconf->DropTCPIPChecksumErrorPacket = ((READ_BIT(heth->Instance->MTLRQOMR,
 8021eb2:	6802      	ldr	r2, [r0, #0]
 8021eb4:	f8d2 2d30 	ldr.w	r2, [r2, #3376]	@ 0xd30
                                                     ETH_MTLRQOMR_DISTCPEF) >> 6) == 0U) ? ENABLE : DISABLE;
 8021eb8:	f002 0240 	and.w	r2, r2, #64	@ 0x40
 8021ebc:	fab2 f282 	clz	r2, r2
 8021ec0:	0952      	lsrs	r2, r2, #5
  macconf->DropTCPIPChecksumErrorPacket = ((READ_BIT(heth->Instance->MTLRQOMR,
 8021ec2:	f881 2060 	strb.w	r2, [r1, #96]	@ 0x60
  return HAL_OK;
 8021ec6:	2000      	movs	r0, #0
 8021ec8:	4770      	bx	lr
    return HAL_ERROR;
 8021eca:	2001      	movs	r0, #1
}
 8021ecc:	4770      	bx	lr

08021ece <HAL_ETH_SetMACConfig>:
  if (macconf == NULL)
 8021ece:	b151      	cbz	r1, 8021ee6 <HAL_ETH_SetMACConfig+0x18>
{
 8021ed0:	b508      	push	{r3, lr}
  if (heth->gState == HAL_ETH_STATE_READY)
 8021ed2:	f8d0 3084 	ldr.w	r3, [r0, #132]	@ 0x84
 8021ed6:	2b10      	cmp	r3, #16
 8021ed8:	d001      	beq.n	8021ede <HAL_ETH_SetMACConfig+0x10>
    return HAL_ERROR;
 8021eda:	2001      	movs	r0, #1
}
 8021edc:	bd08      	pop	{r3, pc}
    ETH_SetMACConfig(heth, macconf);
 8021ede:	f7ff f9bb 	bl	8021258 <ETH_SetMACConfig>
    return HAL_OK;
 8021ee2:	2000      	movs	r0, #0
 8021ee4:	e7fa      	b.n	8021edc <HAL_ETH_SetMACConfig+0xe>
    return HAL_ERROR;
 8021ee6:	2001      	movs	r0, #1
}
 8021ee8:	4770      	bx	lr
	...

08021eec <HAL_ETH_SetMDIOClockRange>:
{
 8021eec:	b538      	push	{r3, r4, r5, lr}
 8021eee:	4605      	mov	r5, r0
  tmpreg = (heth->Instance)->MACMDIOAR;
 8021ef0:	6803      	ldr	r3, [r0, #0]
 8021ef2:	f8d3 4200 	ldr.w	r4, [r3, #512]	@ 0x200
  tmpreg &= ~ETH_MACMDIOAR_CR;
 8021ef6:	f424 6470 	bic.w	r4, r4, #3840	@ 0xf00
  hclk = HAL_RCC_GetHCLKFreq();
 8021efa:	f001 fb75 	bl	80235e8 <HAL_RCC_GetHCLKFreq>
  if (hclk < 35000000U)
 8021efe:	4b10      	ldr	r3, [pc, #64]	@ (8021f40 <HAL_ETH_SetMDIOClockRange+0x54>)
 8021f00:	4298      	cmp	r0, r3
 8021f02:	d805      	bhi.n	8021f10 <HAL_ETH_SetMDIOClockRange+0x24>
    tmpreg |= (uint32_t)ETH_MACMDIOAR_CR_DIV16;
 8021f04:	f444 7400 	orr.w	r4, r4, #512	@ 0x200
  (heth->Instance)->MACMDIOAR = (uint32_t)tmpreg;
 8021f08:	682b      	ldr	r3, [r5, #0]
 8021f0a:	f8c3 4200 	str.w	r4, [r3, #512]	@ 0x200
}
 8021f0e:	bd38      	pop	{r3, r4, r5, pc}
  else if (hclk < 60000000U)
 8021f10:	4b0c      	ldr	r3, [pc, #48]	@ (8021f44 <HAL_ETH_SetMDIOClockRange+0x58>)
 8021f12:	4298      	cmp	r0, r3
 8021f14:	d202      	bcs.n	8021f1c <HAL_ETH_SetMDIOClockRange+0x30>
    tmpreg |= (uint32_t)ETH_MACMDIOAR_CR_DIV26;
 8021f16:	f444 7440 	orr.w	r4, r4, #768	@ 0x300
 8021f1a:	e7f5      	b.n	8021f08 <HAL_ETH_SetMDIOClockRange+0x1c>
  else if (hclk < 100000000U)
 8021f1c:	4b0a      	ldr	r3, [pc, #40]	@ (8021f48 <HAL_ETH_SetMDIOClockRange+0x5c>)
 8021f1e:	4298      	cmp	r0, r3
 8021f20:	d9f2      	bls.n	8021f08 <HAL_ETH_SetMDIOClockRange+0x1c>
  else if (hclk < 150000000U)
 8021f22:	4b0a      	ldr	r3, [pc, #40]	@ (8021f4c <HAL_ETH_SetMDIOClockRange+0x60>)
 8021f24:	4298      	cmp	r0, r3
 8021f26:	d802      	bhi.n	8021f2e <HAL_ETH_SetMDIOClockRange+0x42>
    tmpreg |= (uint32_t)ETH_MACMDIOAR_CR_DIV62;
 8021f28:	f444 7480 	orr.w	r4, r4, #256	@ 0x100
 8021f2c:	e7ec      	b.n	8021f08 <HAL_ETH_SetMDIOClockRange+0x1c>
  else if (hclk < 250000000U)
 8021f2e:	4b08      	ldr	r3, [pc, #32]	@ (8021f50 <HAL_ETH_SetMDIOClockRange+0x64>)
 8021f30:	4298      	cmp	r0, r3
 8021f32:	d802      	bhi.n	8021f3a <HAL_ETH_SetMDIOClockRange+0x4e>
    tmpreg |= (uint32_t)ETH_MACMDIOAR_CR_DIV102;
 8021f34:	f444 6480 	orr.w	r4, r4, #1024	@ 0x400
 8021f38:	e7e6      	b.n	8021f08 <HAL_ETH_SetMDIOClockRange+0x1c>
    tmpreg |= (uint32_t)(ETH_MACMDIOAR_CR_DIV124);
 8021f3a:	f444 64a0 	orr.w	r4, r4, #1280	@ 0x500
 8021f3e:	e7e3      	b.n	8021f08 <HAL_ETH_SetMDIOClockRange+0x1c>
 8021f40:	02160ebf 	.word	0x02160ebf
 8021f44:	03938700 	.word	0x03938700
 8021f48:	05f5e0ff 	.word	0x05f5e0ff
 8021f4c:	08f0d17f 	.word	0x08f0d17f
 8021f50:	0ee6b27f 	.word	0x0ee6b27f

08021f54 <HAL_ETH_Init>:
  if (heth == NULL)
 8021f54:	2800      	cmp	r0, #0
 8021f56:	f000 80a7 	beq.w	80220a8 <HAL_ETH_Init+0x154>
{
 8021f5a:	b530      	push	{r4, r5, lr}
 8021f5c:	b083      	sub	sp, #12
 8021f5e:	4604      	mov	r4, r0
  if (heth->gState == HAL_ETH_STATE_RESET)
 8021f60:	f8d0 3084 	ldr.w	r3, [r0, #132]	@ 0x84
 8021f64:	b39b      	cbz	r3, 8021fce <HAL_ETH_Init+0x7a>
  __HAL_RCC_SYSCFG_CLK_ENABLE();
 8021f66:	4b51      	ldr	r3, [pc, #324]	@ (80220ac <HAL_ETH_Init+0x158>)
 8021f68:	f8d3 20f4 	ldr.w	r2, [r3, #244]	@ 0xf4
 8021f6c:	f042 0202 	orr.w	r2, r2, #2
 8021f70:	f8c3 20f4 	str.w	r2, [r3, #244]	@ 0xf4
 8021f74:	f8d3 30f4 	ldr.w	r3, [r3, #244]	@ 0xf4
 8021f78:	f003 0302 	and.w	r3, r3, #2
 8021f7c:	9301      	str	r3, [sp, #4]
 8021f7e:	9b01      	ldr	r3, [sp, #4]
  if (heth->Init.MediaInterface == HAL_ETH_MII_MODE)
 8021f80:	7a23      	ldrb	r3, [r4, #8]
 8021f82:	bb53      	cbnz	r3, 8021fda <HAL_ETH_Init+0x86>
    HAL_SYSCFG_ETHInterfaceSelect(SYSCFG_ETH_MII);
 8021f84:	2000      	movs	r0, #0
 8021f86:	f7ff f85b 	bl	8021040 <HAL_SYSCFG_ETHInterfaceSelect>
  (void)SYSCFG->PMCR;
 8021f8a:	4b49      	ldr	r3, [pc, #292]	@ (80220b0 <HAL_ETH_Init+0x15c>)
 8021f8c:	685b      	ldr	r3, [r3, #4]
  SET_BIT(heth->Instance->DMAMR, ETH_DMAMR_SWR);
 8021f8e:	6823      	ldr	r3, [r4, #0]
 8021f90:	f503 5380 	add.w	r3, r3, #4096	@ 0x1000
 8021f94:	681a      	ldr	r2, [r3, #0]
 8021f96:	f042 0201 	orr.w	r2, r2, #1
 8021f9a:	601a      	str	r2, [r3, #0]
  tickstart = HAL_GetTick();
 8021f9c:	f7ff f844 	bl	8021028 <HAL_GetTick>
 8021fa0:	4605      	mov	r5, r0
  while (READ_BIT(heth->Instance->DMAMR, ETH_DMAMR_SWR) > 0U)
 8021fa2:	6823      	ldr	r3, [r4, #0]
 8021fa4:	f503 5380 	add.w	r3, r3, #4096	@ 0x1000
 8021fa8:	681b      	ldr	r3, [r3, #0]
 8021faa:	f013 0f01 	tst.w	r3, #1
 8021fae:	d019      	beq.n	8021fe4 <HAL_ETH_Init+0x90>
    if (((HAL_GetTick() - tickstart) > ETH_SWRESET_TIMEOUT))
 8021fb0:	f7ff f83a 	bl	8021028 <HAL_GetTick>
 8021fb4:	1b40      	subs	r0, r0, r5
 8021fb6:	f5b0 7ffa 	cmp.w	r0, #500	@ 0x1f4
 8021fba:	d9f2      	bls.n	8021fa2 <HAL_ETH_Init+0x4e>
      heth->ErrorCode = HAL_ETH_ERROR_TIMEOUT;
 8021fbc:	2304      	movs	r3, #4
 8021fbe:	f8c4 3088 	str.w	r3, [r4, #136]	@ 0x88
      heth->gState = HAL_ETH_STATE_ERROR;
 8021fc2:	23e0      	movs	r3, #224	@ 0xe0
 8021fc4:	f8c4 3084 	str.w	r3, [r4, #132]	@ 0x84
      return HAL_ERROR;
 8021fc8:	2001      	movs	r0, #1
}
 8021fca:	b003      	add	sp, #12
 8021fcc:	bd30      	pop	{r4, r5, pc}
    heth->gState = HAL_ETH_STATE_BUSY;
 8021fce:	2320      	movs	r3, #32
 8021fd0:	f8c0 3084 	str.w	r3, [r0, #132]	@ 0x84
    HAL_ETH_MspInit(heth);
 8021fd4:	f7fe fe2e 	bl	8020c34 <HAL_ETH_MspInit>
 8021fd8:	e7c5      	b.n	8021f66 <HAL_ETH_Init+0x12>
    HAL_SYSCFG_ETHInterfaceSelect(SYSCFG_ETH_RMII);
 8021fda:	f44f 0000 	mov.w	r0, #8388608	@ 0x800000
 8021fde:	f7ff f82f 	bl	8021040 <HAL_SYSCFG_ETHInterfaceSelect>
 8021fe2:	e7d2      	b.n	8021f8a <HAL_ETH_Init+0x36>
  HAL_ETH_SetMDIOClockRange(heth);
 8021fe4:	4620      	mov	r0, r4
 8021fe6:	f7ff ff81 	bl	8021eec <HAL_ETH_SetMDIOClockRange>
  WRITE_REG(heth->Instance->MAC1USTCR, (((uint32_t)HAL_RCC_GetHCLKFreq() / ETH_MAC_US_TICK) - 1U));
 8021fea:	f001 fafd 	bl	80235e8 <HAL_RCC_GetHCLKFreq>
 8021fee:	4b31      	ldr	r3, [pc, #196]	@ (80220b4 <HAL_ETH_Init+0x160>)
 8021ff0:	fba3 2300 	umull	r2, r3, r3, r0
 8021ff4:	0c9b      	lsrs	r3, r3, #18
 8021ff6:	6822      	ldr	r2, [r4, #0]
 8021ff8:	3b01      	subs	r3, #1
 8021ffa:	f8c2 30dc 	str.w	r3, [r2, #220]	@ 0xdc
  ETH_MACDMAConfig(heth);
 8021ffe:	4620      	mov	r0, r4
 8022000:	f7ff fa58 	bl	80214b4 <ETH_MACDMAConfig>
  MODIFY_REG(heth->Instance->DMACCR, ETH_DMACCR_DSL, ETH_DMACCR_DSL_64BIT);
 8022004:	6822      	ldr	r2, [r4, #0]
 8022006:	f502 5280 	add.w	r2, r2, #4096	@ 0x1000
 802200a:	f8d2 3100 	ldr.w	r3, [r2, #256]	@ 0x100
 802200e:	f423 13e0 	bic.w	r3, r3, #1835008	@ 0x1c0000
 8022012:	f443 2300 	orr.w	r3, r3, #524288	@ 0x80000
 8022016:	f8c2 3100 	str.w	r3, [r2, #256]	@ 0x100
  if ((heth->Init.RxBuffLen % 0x4U) != 0x0U)
 802201a:	6962      	ldr	r2, [r4, #20]
 802201c:	f012 0f03 	tst.w	r2, #3
 8022020:	d006      	beq.n	8022030 <HAL_ETH_Init+0xdc>
    heth->ErrorCode = HAL_ETH_ERROR_PARAM;
 8022022:	2001      	movs	r0, #1
 8022024:	f8c4 0088 	str.w	r0, [r4, #136]	@ 0x88
    heth->gState = HAL_ETH_STATE_ERROR;
 8022028:	23e0      	movs	r3, #224	@ 0xe0
 802202a:	f8c4 3084 	str.w	r3, [r4, #132]	@ 0x84
    return HAL_ERROR;
 802202e:	e7cc      	b.n	8021fca <HAL_ETH_Init+0x76>
    MODIFY_REG(heth->Instance->DMACRCR, ETH_DMACRCR_RBSZ, ((heth->Init.RxBuffLen) << 1));
 8022030:	6821      	ldr	r1, [r4, #0]
 8022032:	f501 5180 	add.w	r1, r1, #4096	@ 0x1000
 8022036:	f8d1 3108 	ldr.w	r3, [r1, #264]	@ 0x108
 802203a:	f36f 034e 	bfc	r3, #1, #14
 802203e:	ea43 0342 	orr.w	r3, r3, r2, lsl #1
 8022042:	f8c1 3108 	str.w	r3, [r1, #264]	@ 0x108
  ETH_DMATxDescListInit(heth);
 8022046:	4620      	mov	r0, r4
 8022048:	f7ff faa2 	bl	8021590 <ETH_DMATxDescListInit>
  ETH_DMARxDescListInit(heth);
 802204c:	4620      	mov	r0, r4
 802204e:	f7ff facc 	bl	80215ea <ETH_DMARxDescListInit>
  heth->Instance->MACA0HR = (((uint32_t)(heth->Init.MACAddr[5]) << 8) | (uint32_t)heth->Init.MACAddr[4]);
 8022052:	6863      	ldr	r3, [r4, #4]
 8022054:	7959      	ldrb	r1, [r3, #5]
 8022056:	791b      	ldrb	r3, [r3, #4]
 8022058:	6822      	ldr	r2, [r4, #0]
 802205a:	ea43 2301 	orr.w	r3, r3, r1, lsl #8
 802205e:	f8c2 3300 	str.w	r3, [r2, #768]	@ 0x300
  heth->Instance->MACA0LR = (((uint32_t)(heth->Init.MACAddr[3]) << 24) | ((uint32_t)(heth->Init.MACAddr[2]) << 16) |
 8022062:	6862      	ldr	r2, [r4, #4]
 8022064:	78d1      	ldrb	r1, [r2, #3]
 8022066:	7893      	ldrb	r3, [r2, #2]
 8022068:	041b      	lsls	r3, r3, #16
 802206a:	ea43 6301 	orr.w	r3, r3, r1, lsl #24
                             ((uint32_t)(heth->Init.MACAddr[1]) << 8) | (uint32_t)heth->Init.MACAddr[0]);
 802206e:	7851      	ldrb	r1, [r2, #1]
  heth->Instance->MACA0LR = (((uint32_t)(heth->Init.MACAddr[3]) << 24) | ((uint32_t)(heth->Init.MACAddr[2]) << 16) |
 8022070:	ea43 2301 	orr.w	r3, r3, r1, lsl #8
                             ((uint32_t)(heth->Init.MACAddr[1]) << 8) | (uint32_t)heth->Init.MACAddr[0]);
 8022074:	7811      	ldrb	r1, [r2, #0]
  heth->Instance->MACA0LR = (((uint32_t)(heth->Init.MACAddr[3]) << 24) | ((uint32_t)(heth->Init.MACAddr[2]) << 16) |
 8022076:	6822      	ldr	r2, [r4, #0]
                             ((uint32_t)(heth->Init.MACAddr[1]) << 8) | (uint32_t)heth->Init.MACAddr[0]);
 8022078:	430b      	orrs	r3, r1
  heth->Instance->MACA0LR = (((uint32_t)(heth->Init.MACAddr[3]) << 24) | ((uint32_t)(heth->Init.MACAddr[2]) << 16) |
 802207a:	f8c2 3304 	str.w	r3, [r2, #772]	@ 0x304
  SET_BIT(heth->Instance->MMCRIMR, ETH_MMCRIMR_RXLPITRCIM | ETH_MMCRIMR_RXLPIUSCIM | \
 802207e:	6822      	ldr	r2, [r4, #0]
 8022080:	f8d2 170c 	ldr.w	r1, [r2, #1804]	@ 0x70c
 8022084:	4b0c      	ldr	r3, [pc, #48]	@ (80220b8 <HAL_ETH_Init+0x164>)
 8022086:	430b      	orrs	r3, r1
 8022088:	f8c2 370c 	str.w	r3, [r2, #1804]	@ 0x70c
  SET_BIT(heth->Instance->MMCTIMR, ETH_MMCTIMR_TXLPITRCIM | ETH_MMCTIMR_TXLPIUSCIM | \
 802208c:	6822      	ldr	r2, [r4, #0]
 802208e:	f8d2 1710 	ldr.w	r1, [r2, #1808]	@ 0x710
 8022092:	4b0a      	ldr	r3, [pc, #40]	@ (80220bc <HAL_ETH_Init+0x168>)
 8022094:	430b      	orrs	r3, r1
 8022096:	f8c2 3710 	str.w	r3, [r2, #1808]	@ 0x710
  heth->ErrorCode = HAL_ETH_ERROR_NONE;
 802209a:	2000      	movs	r0, #0
 802209c:	f8c4 0088 	str.w	r0, [r4, #136]	@ 0x88
  heth->gState = HAL_ETH_STATE_READY;
 80220a0:	2310      	movs	r3, #16
 80220a2:	f8c4 3084 	str.w	r3, [r4, #132]	@ 0x84
  return HAL_OK;
 80220a6:	e790      	b.n	8021fca <HAL_ETH_Init+0x76>
    return HAL_ERROR;
 80220a8:	2001      	movs	r0, #1
}
 80220aa:	4770      	bx	lr
 80220ac:	58024400 	.word	0x58024400
 80220b0:	58000400 	.word	0x58000400
 80220b4:	431bde83 	.word	0x431bde83
 80220b8:	0c020060 	.word	0x0c020060
 80220bc:	0c20c000 	.word	0x0c20c000

080220c0 <FDCAN_CalculateRamBlockAddresses>:
  * @param  hfdcan pointer to an FDCAN_HandleTypeDef structure that contains
  *         the configuration information for the specified FDCAN.
  * @retval HAL status
 */
static HAL_StatusTypeDef FDCAN_CalculateRamBlockAddresses(FDCAN_HandleTypeDef *hfdcan)
{
 80220c0:	b430      	push	{r4, r5}
  uint32_t RAMcounter;
  uint32_t StartAddress;

  StartAddress = hfdcan->Init.MessageRAMOffset;
 80220c2:	6b41      	ldr	r1, [r0, #52]	@ 0x34

  /* Standard filter list start address */
  MODIFY_REG(hfdcan->Instance->SIDFC, FDCAN_SIDFC_FLSSA, (StartAddress << FDCAN_SIDFC_FLSSA_Pos));
 80220c4:	6804      	ldr	r4, [r0, #0]
 80220c6:	f8d4 3084 	ldr.w	r3, [r4, #132]	@ 0x84
 80220ca:	4a6f      	ldr	r2, [pc, #444]	@ (8022288 <FDCAN_CalculateRamBlockAddresses+0x1c8>)
 80220cc:	4013      	ands	r3, r2
 80220ce:	ea43 0381 	orr.w	r3, r3, r1, lsl #2
 80220d2:	f8c4 3084 	str.w	r3, [r4, #132]	@ 0x84

  /* Standard filter elements number */
  MODIFY_REG(hfdcan->Instance->SIDFC, FDCAN_SIDFC_LSS, (hfdcan->Init.StdFiltersNbr << FDCAN_SIDFC_LSS_Pos));
 80220d6:	6804      	ldr	r4, [r0, #0]
 80220d8:	f8d4 3084 	ldr.w	r3, [r4, #132]	@ 0x84
 80220dc:	f423 037f 	bic.w	r3, r3, #16711680	@ 0xff0000
 80220e0:	6b85      	ldr	r5, [r0, #56]	@ 0x38
 80220e2:	ea43 4305 	orr.w	r3, r3, r5, lsl #16
 80220e6:	f8c4 3084 	str.w	r3, [r4, #132]	@ 0x84

  /* Extended filter list start address */
  StartAddress += hfdcan->Init.StdFiltersNbr;
 80220ea:	6b83      	ldr	r3, [r0, #56]	@ 0x38
 80220ec:	440b      	add	r3, r1
  MODIFY_REG(hfdcan->Instance->XIDFC, FDCAN_XIDFC_FLESA, (StartAddress << FDCAN_XIDFC_FLESA_Pos));
 80220ee:	6804      	ldr	r4, [r0, #0]
 80220f0:	f8d4 1088 	ldr.w	r1, [r4, #136]	@ 0x88
 80220f4:	4011      	ands	r1, r2
 80220f6:	ea41 0183 	orr.w	r1, r1, r3, lsl #2
 80220fa:	f8c4 1088 	str.w	r1, [r4, #136]	@ 0x88

  /* Extended filter elements number */
  MODIFY_REG(hfdcan->Instance->XIDFC, FDCAN_XIDFC_LSE, (hfdcan->Init.ExtFiltersNbr << FDCAN_XIDFC_LSE_Pos));
 80220fe:	6804      	ldr	r4, [r0, #0]
 8022100:	f8d4 1088 	ldr.w	r1, [r4, #136]	@ 0x88
 8022104:	f421 01fe 	bic.w	r1, r1, #8323072	@ 0x7f0000
 8022108:	6bc5      	ldr	r5, [r0, #60]	@ 0x3c
 802210a:	ea41 4105 	orr.w	r1, r1, r5, lsl #16
 802210e:	f8c4 1088 	str.w	r1, [r4, #136]	@ 0x88

  /* Rx FIFO 0 start address */
  StartAddress += (hfdcan->Init.ExtFiltersNbr * 2U);
 8022112:	6bc1      	ldr	r1, [r0, #60]	@ 0x3c
 8022114:	eb03 0341 	add.w	r3, r3, r1, lsl #1
  MODIFY_REG(hfdcan->Instance->RXF0C, FDCAN_RXF0C_F0SA, (StartAddress << FDCAN_RXF0C_F0SA_Pos));
 8022118:	6804      	ldr	r4, [r0, #0]
 802211a:	f8d4 10a0 	ldr.w	r1, [r4, #160]	@ 0xa0
 802211e:	4011      	ands	r1, r2
 8022120:	ea41 0183 	orr.w	r1, r1, r3, lsl #2
 8022124:	f8c4 10a0 	str.w	r1, [r4, #160]	@ 0xa0

  /* Rx FIFO 0 elements number */
  MODIFY_REG(hfdcan->Instance->RXF0C, FDCAN_RXF0C_F0S, (hfdcan->Init.RxFifo0ElmtsNbr << FDCAN_RXF0C_F0S_Pos));
 8022128:	6804      	ldr	r4, [r0, #0]
 802212a:	f8d4 10a0 	ldr.w	r1, [r4, #160]	@ 0xa0
 802212e:	f421 01fe 	bic.w	r1, r1, #8323072	@ 0x7f0000
 8022132:	6c05      	ldr	r5, [r0, #64]	@ 0x40
 8022134:	ea41 4105 	orr.w	r1, r1, r5, lsl #16
 8022138:	f8c4 10a0 	str.w	r1, [r4, #160]	@ 0xa0

  /* Rx FIFO 1 start address */
  StartAddress += (hfdcan->Init.RxFifo0ElmtsNbr * hfdcan->Init.RxFifo0ElmtSize);
 802213c:	6c01      	ldr	r1, [r0, #64]	@ 0x40
 802213e:	6c44      	ldr	r4, [r0, #68]	@ 0x44
 8022140:	fb04 3301 	mla	r3, r4, r1, r3
  MODIFY_REG(hfdcan->Instance->RXF1C, FDCAN_RXF1C_F1SA, (StartAddress << FDCAN_RXF1C_F1SA_Pos));
 8022144:	6804      	ldr	r4, [r0, #0]
 8022146:	f8d4 10b0 	ldr.w	r1, [r4, #176]	@ 0xb0
 802214a:	4011      	ands	r1, r2
 802214c:	ea41 0183 	orr.w	r1, r1, r3, lsl #2
 8022150:	f8c4 10b0 	str.w	r1, [r4, #176]	@ 0xb0

  /* Rx FIFO 1 elements number */
  MODIFY_REG(hfdcan->Instance->RXF1C, FDCAN_RXF1C_F1S, (hfdcan->Init.RxFifo1ElmtsNbr << FDCAN_RXF1C_F1S_Pos));
 8022154:	6804      	ldr	r4, [r0, #0]
 8022156:	f8d4 10b0 	ldr.w	r1, [r4, #176]	@ 0xb0
 802215a:	f421 01fe 	bic.w	r1, r1, #8323072	@ 0x7f0000
 802215e:	6c85      	ldr	r5, [r0, #72]	@ 0x48
 8022160:	ea41 4105 	orr.w	r1, r1, r5, lsl #16
 8022164:	f8c4 10b0 	str.w	r1, [r4, #176]	@ 0xb0

  /* Rx buffer list start address */
  StartAddress += (hfdcan->Init.RxFifo1ElmtsNbr * hfdcan->Init.RxFifo1ElmtSize);
 8022168:	6c81      	ldr	r1, [r0, #72]	@ 0x48
 802216a:	6cc4      	ldr	r4, [r0, #76]	@ 0x4c
 802216c:	fb04 3301 	mla	r3, r4, r1, r3
  MODIFY_REG(hfdcan->Instance->RXBC, FDCAN_RXBC_RBSA, (StartAddress << FDCAN_RXBC_RBSA_Pos));
 8022170:	6804      	ldr	r4, [r0, #0]
 8022172:	f8d4 10ac 	ldr.w	r1, [r4, #172]	@ 0xac
 8022176:	4011      	ands	r1, r2
 8022178:	ea41 0183 	orr.w	r1, r1, r3, lsl #2
 802217c:	f8c4 10ac 	str.w	r1, [r4, #172]	@ 0xac

  /* Tx event FIFO start address */
  StartAddress += (hfdcan->Init.RxBuffersNbr * hfdcan->Init.RxBufferSize);
 8022180:	6d01      	ldr	r1, [r0, #80]	@ 0x50
 8022182:	6d44      	ldr	r4, [r0, #84]	@ 0x54
 8022184:	fb04 3301 	mla	r3, r4, r1, r3
  MODIFY_REG(hfdcan->Instance->TXEFC, FDCAN_TXEFC_EFSA, (StartAddress << FDCAN_TXEFC_EFSA_Pos));
 8022188:	6804      	ldr	r4, [r0, #0]
 802218a:	f8d4 10f0 	ldr.w	r1, [r4, #240]	@ 0xf0
 802218e:	4011      	ands	r1, r2
 8022190:	ea41 0183 	orr.w	r1, r1, r3, lsl #2
 8022194:	f8c4 10f0 	str.w	r1, [r4, #240]	@ 0xf0

  /* Tx event FIFO elements number */
  MODIFY_REG(hfdcan->Instance->TXEFC, FDCAN_TXEFC_EFS, (hfdcan->Init.TxEventsNbr << FDCAN_TXEFC_EFS_Pos));
 8022198:	6804      	ldr	r4, [r0, #0]
 802219a:	f8d4 10f0 	ldr.w	r1, [r4, #240]	@ 0xf0
 802219e:	f421 117c 	bic.w	r1, r1, #4128768	@ 0x3f0000
 80221a2:	6d85      	ldr	r5, [r0, #88]	@ 0x58
 80221a4:	ea41 4105 	orr.w	r1, r1, r5, lsl #16
 80221a8:	f8c4 10f0 	str.w	r1, [r4, #240]	@ 0xf0

  /* Tx buffer list start address */
  StartAddress += (hfdcan->Init.TxEventsNbr * 2U);
 80221ac:	6d81      	ldr	r1, [r0, #88]	@ 0x58
 80221ae:	eb03 0341 	add.w	r3, r3, r1, lsl #1
  MODIFY_REG(hfdcan->Instance->TXBC, FDCAN_TXBC_TBSA, (StartAddress << FDCAN_TXBC_TBSA_Pos));
 80221b2:	6804      	ldr	r4, [r0, #0]
 80221b4:	f8d4 10c0 	ldr.w	r1, [r4, #192]	@ 0xc0
 80221b8:	400a      	ands	r2, r1
 80221ba:	ea42 0383 	orr.w	r3, r2, r3, lsl #2
 80221be:	f8c4 30c0 	str.w	r3, [r4, #192]	@ 0xc0

  /* Dedicated Tx buffers number */
  MODIFY_REG(hfdcan->Instance->TXBC, FDCAN_TXBC_NDTB, (hfdcan->Init.TxBuffersNbr << FDCAN_TXBC_NDTB_Pos));
 80221c2:	6802      	ldr	r2, [r0, #0]
 80221c4:	f8d2 30c0 	ldr.w	r3, [r2, #192]	@ 0xc0
 80221c8:	f423 137c 	bic.w	r3, r3, #4128768	@ 0x3f0000
 80221cc:	6dc1      	ldr	r1, [r0, #92]	@ 0x5c
 80221ce:	ea43 4301 	orr.w	r3, r3, r1, lsl #16
 80221d2:	f8c2 30c0 	str.w	r3, [r2, #192]	@ 0xc0

  /* Tx FIFO/queue elements number */
  MODIFY_REG(hfdcan->Instance->TXBC, FDCAN_TXBC_TFQS, (hfdcan->Init.TxFifoQueueElmtsNbr << FDCAN_TXBC_TFQS_Pos));
 80221d6:	6802      	ldr	r2, [r0, #0]
 80221d8:	f8d2 30c0 	ldr.w	r3, [r2, #192]	@ 0xc0
 80221dc:	f023 537c 	bic.w	r3, r3, #1056964608	@ 0x3f000000
 80221e0:	6e01      	ldr	r1, [r0, #96]	@ 0x60
 80221e2:	ea43 6301 	orr.w	r3, r3, r1, lsl #24
 80221e6:	f8c2 30c0 	str.w	r3, [r2, #192]	@ 0xc0

  hfdcan->msgRam.StandardFilterSA = SRAMCAN_BASE + (hfdcan->Init.MessageRAMOffset * 4U);
 80221ea:	6b43      	ldr	r3, [r0, #52]	@ 0x34
 80221ec:	4a27      	ldr	r2, [pc, #156]	@ (802228c <FDCAN_CalculateRamBlockAddresses+0x1cc>)
 80221ee:	441a      	add	r2, r3
 80221f0:	0092      	lsls	r2, r2, #2
 80221f2:	66c2      	str	r2, [r0, #108]	@ 0x6c
  hfdcan->msgRam.ExtendedFilterSA = hfdcan->msgRam.StandardFilterSA + (hfdcan->Init.StdFiltersNbr * 4U);
 80221f4:	6b83      	ldr	r3, [r0, #56]	@ 0x38
 80221f6:	eb02 0383 	add.w	r3, r2, r3, lsl #2
 80221fa:	6703      	str	r3, [r0, #112]	@ 0x70
  hfdcan->msgRam.RxFIFO0SA = hfdcan->msgRam.ExtendedFilterSA + (hfdcan->Init.ExtFiltersNbr * 2U * 4U);
 80221fc:	6bc1      	ldr	r1, [r0, #60]	@ 0x3c
 80221fe:	eb03 03c1 	add.w	r3, r3, r1, lsl #3
 8022202:	6743      	str	r3, [r0, #116]	@ 0x74
  hfdcan->msgRam.RxFIFO1SA = hfdcan->msgRam.RxFIFO0SA +
                             (hfdcan->Init.RxFifo0ElmtsNbr * hfdcan->Init.RxFifo0ElmtSize * 4U);
 8022204:	6c01      	ldr	r1, [r0, #64]	@ 0x40
 8022206:	6c44      	ldr	r4, [r0, #68]	@ 0x44
 8022208:	fb04 f101 	mul.w	r1, r4, r1
  hfdcan->msgRam.RxFIFO1SA = hfdcan->msgRam.RxFIFO0SA +
 802220c:	eb03 0381 	add.w	r3, r3, r1, lsl #2
 8022210:	6783      	str	r3, [r0, #120]	@ 0x78
  hfdcan->msgRam.RxBufferSA = hfdcan->msgRam.RxFIFO1SA +
                              (hfdcan->Init.RxFifo1ElmtsNbr * hfdcan->Init.RxFifo1ElmtSize * 4U);
 8022212:	6c81      	ldr	r1, [r0, #72]	@ 0x48
 8022214:	6cc4      	ldr	r4, [r0, #76]	@ 0x4c
 8022216:	fb04 f101 	mul.w	r1, r4, r1
  hfdcan->msgRam.RxBufferSA = hfdcan->msgRam.RxFIFO1SA +
 802221a:	eb03 0381 	add.w	r3, r3, r1, lsl #2
 802221e:	67c3      	str	r3, [r0, #124]	@ 0x7c
  hfdcan->msgRam.TxEventFIFOSA = hfdcan->msgRam.RxBufferSA +
                                 (hfdcan->Init.RxBuffersNbr * hfdcan->Init.RxBufferSize * 4U);
 8022220:	6d01      	ldr	r1, [r0, #80]	@ 0x50
 8022222:	6d44      	ldr	r4, [r0, #84]	@ 0x54
 8022224:	fb04 f101 	mul.w	r1, r4, r1
  hfdcan->msgRam.TxEventFIFOSA = hfdcan->msgRam.RxBufferSA +
 8022228:	eb03 0381 	add.w	r3, r3, r1, lsl #2
 802222c:	f8c0 3080 	str.w	r3, [r0, #128]	@ 0x80
  hfdcan->msgRam.TxBufferSA = hfdcan->msgRam.TxEventFIFOSA + (hfdcan->Init.TxEventsNbr * 2U * 4U);
 8022230:	6d81      	ldr	r1, [r0, #88]	@ 0x58
 8022232:	eb03 03c1 	add.w	r3, r3, r1, lsl #3
 8022236:	f8c0 3084 	str.w	r3, [r0, #132]	@ 0x84
  hfdcan->msgRam.TxFIFOQSA = hfdcan->msgRam.TxBufferSA + (hfdcan->Init.TxBuffersNbr * hfdcan->Init.TxElmtSize * 4U);
 802223a:	6e81      	ldr	r1, [r0, #104]	@ 0x68
 802223c:	6dc4      	ldr	r4, [r0, #92]	@ 0x5c
 802223e:	fb01 fc04 	mul.w	ip, r1, r4
 8022242:	eb03 038c 	add.w	r3, r3, ip, lsl #2
 8022246:	f8c0 3088 	str.w	r3, [r0, #136]	@ 0x88

  hfdcan->msgRam.EndAddress = hfdcan->msgRam.TxFIFOQSA +
                              (hfdcan->Init.TxFifoQueueElmtsNbr * hfdcan->Init.TxElmtSize * 4U);
 802224a:	6e04      	ldr	r4, [r0, #96]	@ 0x60
 802224c:	fb04 f101 	mul.w	r1, r4, r1
  hfdcan->msgRam.EndAddress = hfdcan->msgRam.TxFIFOQSA +
 8022250:	eb03 0381 	add.w	r3, r3, r1, lsl #2
 8022254:	f8c0 3090 	str.w	r3, [r0, #144]	@ 0x90

  if (hfdcan->msgRam.EndAddress > FDCAN_MESSAGE_RAM_END_ADDRESS) /* Last address of the Message RAM */
 8022258:	490d      	ldr	r1, [pc, #52]	@ (8022290 <FDCAN_CalculateRamBlockAddresses+0x1d0>)
 802225a:	428b      	cmp	r3, r1
 802225c:	d90d      	bls.n	802227a <FDCAN_CalculateRamBlockAddresses+0x1ba>
  {
    /* Update error code.
       Message RAM overflow */
    hfdcan->ErrorCode |= HAL_FDCAN_ERROR_PARAM;
 802225e:	f8d0 309c 	ldr.w	r3, [r0, #156]	@ 0x9c
 8022262:	f043 0320 	orr.w	r3, r3, #32
 8022266:	f8c0 309c 	str.w	r3, [r0, #156]	@ 0x9c

    /* Change FDCAN state */
    hfdcan->State = HAL_FDCAN_STATE_ERROR;
 802226a:	2303      	movs	r3, #3
 802226c:	f880 3098 	strb.w	r3, [r0, #152]	@ 0x98

    return HAL_ERROR;
 8022270:	2001      	movs	r0, #1
 8022272:	e007      	b.n	8022284 <FDCAN_CalculateRamBlockAddresses+0x1c4>
  else
  {
    /* Flush the allocated Message RAM area */
    for (RAMcounter = hfdcan->msgRam.StandardFilterSA; RAMcounter < hfdcan->msgRam.EndAddress; RAMcounter += 4U)
    {
      *(uint32_t *)(RAMcounter) = 0x00000000;
 8022274:	2300      	movs	r3, #0
 8022276:	f842 3b04 	str.w	r3, [r2], #4
    for (RAMcounter = hfdcan->msgRam.StandardFilterSA; RAMcounter < hfdcan->msgRam.EndAddress; RAMcounter += 4U)
 802227a:	f8d0 3090 	ldr.w	r3, [r0, #144]	@ 0x90
 802227e:	4293      	cmp	r3, r2
 8022280:	d8f8      	bhi.n	8022274 <FDCAN_CalculateRamBlockAddresses+0x1b4>
    }
  }

  /* Return function status */
  return HAL_OK;
 8022282:	2000      	movs	r0, #0
}
 8022284:	bc30      	pop	{r4, r5}
 8022286:	4770      	bx	lr
 8022288:	ffff0003 	.word	0xffff0003
 802228c:	10002b00 	.word	0x10002b00
 8022290:	4000d3fc 	.word	0x4000d3fc

08022294 <HAL_FDCAN_Init>:
{
 8022294:	b530      	push	{r4, r5, lr}
 8022296:	b095      	sub	sp, #84	@ 0x54
 8022298:	4604      	mov	r4, r0
  const uint32_t CvtEltSize[] = {0, 0, 0, 0, 0, 1, 2, 3, 4, 0, 5, 0, 0, 0, 6, 0, 0, 0, 7};
 802229a:	224c      	movs	r2, #76	@ 0x4c
 802229c:	49a0      	ldr	r1, [pc, #640]	@ (8022520 <HAL_FDCAN_Init+0x28c>)
 802229e:	a801      	add	r0, sp, #4
 80222a0:	f004 fd9e 	bl	8026de0 <memcpy>
  if (hfdcan == NULL)
 80222a4:	2c00      	cmp	r4, #0
 80222a6:	f000 8138 	beq.w	802251a <HAL_FDCAN_Init+0x286>
  if (hfdcan->Instance == FDCAN1)
 80222aa:	6823      	ldr	r3, [r4, #0]
 80222ac:	4a9d      	ldr	r2, [pc, #628]	@ (8022524 <HAL_FDCAN_Init+0x290>)
 80222ae:	4293      	cmp	r3, r2
 80222b0:	d020      	beq.n	80222f4 <HAL_FDCAN_Init+0x60>
  if (hfdcan->State == HAL_FDCAN_STATE_RESET)
 80222b2:	f894 3098 	ldrb.w	r3, [r4, #152]	@ 0x98
 80222b6:	b30b      	cbz	r3, 80222fc <HAL_FDCAN_Init+0x68>
  CLEAR_BIT(hfdcan->Instance->CCCR, FDCAN_CCCR_CSR);
 80222b8:	6822      	ldr	r2, [r4, #0]
 80222ba:	6993      	ldr	r3, [r2, #24]
 80222bc:	f023 0310 	bic.w	r3, r3, #16
 80222c0:	6193      	str	r3, [r2, #24]
  tickstart = HAL_GetTick();
 80222c2:	f7fe feb1 	bl	8021028 <HAL_GetTick>
 80222c6:	4605      	mov	r5, r0
  while ((hfdcan->Instance->CCCR & FDCAN_CCCR_CSA) == FDCAN_CCCR_CSA)
 80222c8:	6823      	ldr	r3, [r4, #0]
 80222ca:	699a      	ldr	r2, [r3, #24]
 80222cc:	f012 0f08 	tst.w	r2, #8
 80222d0:	d01a      	beq.n	8022308 <HAL_FDCAN_Init+0x74>
    if ((HAL_GetTick() - tickstart) > FDCAN_TIMEOUT_VALUE)
 80222d2:	f7fe fea9 	bl	8021028 <HAL_GetTick>
 80222d6:	1b43      	subs	r3, r0, r5
 80222d8:	2b0a      	cmp	r3, #10
 80222da:	d9f5      	bls.n	80222c8 <HAL_FDCAN_Init+0x34>
      hfdcan->ErrorCode |= HAL_FDCAN_ERROR_TIMEOUT;
 80222dc:	f8d4 309c 	ldr.w	r3, [r4, #156]	@ 0x9c
 80222e0:	f043 0301 	orr.w	r3, r3, #1
 80222e4:	f8c4 309c 	str.w	r3, [r4, #156]	@ 0x9c
      hfdcan->State = HAL_FDCAN_STATE_ERROR;
 80222e8:	2303      	movs	r3, #3
 80222ea:	f884 3098 	strb.w	r3, [r4, #152]	@ 0x98
      return HAL_ERROR;
 80222ee:	2001      	movs	r0, #1
}
 80222f0:	b015      	add	sp, #84	@ 0x54
 80222f2:	bd30      	pop	{r4, r5, pc}
    hfdcan->ttcan = (TTCAN_TypeDef *)((uint32_t)hfdcan->Instance + 0x100U);
 80222f4:	f503 7380 	add.w	r3, r3, #256	@ 0x100
 80222f8:	6063      	str	r3, [r4, #4]
 80222fa:	e7da      	b.n	80222b2 <HAL_FDCAN_Init+0x1e>
    hfdcan->Lock = HAL_UNLOCKED;
 80222fc:	f884 3099 	strb.w	r3, [r4, #153]	@ 0x99
    HAL_FDCAN_MspInit(hfdcan);
 8022300:	4620      	mov	r0, r4
 8022302:	f7fe fd35 	bl	8020d70 <HAL_FDCAN_MspInit>
 8022306:	e7d7      	b.n	80222b8 <HAL_FDCAN_Init+0x24>
  SET_BIT(hfdcan->Instance->CCCR, FDCAN_CCCR_INIT);
 8022308:	699a      	ldr	r2, [r3, #24]
 802230a:	f042 0201 	orr.w	r2, r2, #1
 802230e:	619a      	str	r2, [r3, #24]
  tickstart = HAL_GetTick();
 8022310:	f7fe fe8a 	bl	8021028 <HAL_GetTick>
 8022314:	4605      	mov	r5, r0
  while ((hfdcan->Instance->CCCR & FDCAN_CCCR_INIT) == 0U)
 8022316:	6823      	ldr	r3, [r4, #0]
 8022318:	699a      	ldr	r2, [r3, #24]
 802231a:	f012 0f01 	tst.w	r2, #1
 802231e:	d10f      	bne.n	8022340 <HAL_FDCAN_Init+0xac>
    if ((HAL_GetTick() - tickstart) > FDCAN_TIMEOUT_VALUE)
 8022320:	f7fe fe82 	bl	8021028 <HAL_GetTick>
 8022324:	1b40      	subs	r0, r0, r5
 8022326:	280a      	cmp	r0, #10
 8022328:	d9f5      	bls.n	8022316 <HAL_FDCAN_Init+0x82>
      hfdcan->ErrorCode |= HAL_FDCAN_ERROR_TIMEOUT;
 802232a:	f8d4 309c 	ldr.w	r3, [r4, #156]	@ 0x9c
 802232e:	f043 0301 	orr.w	r3, r3, #1
 8022332:	f8c4 309c 	str.w	r3, [r4, #156]	@ 0x9c
      hfdcan->State = HAL_FDCAN_STATE_ERROR;
 8022336:	2303      	movs	r3, #3
 8022338:	f884 3098 	strb.w	r3, [r4, #152]	@ 0x98
      return HAL_ERROR;
 802233c:	2001      	movs	r0, #1
 802233e:	e7d7      	b.n	80222f0 <HAL_FDCAN_Init+0x5c>
  SET_BIT(hfdcan->Instance->CCCR, FDCAN_CCCR_CCE);
 8022340:	699a      	ldr	r2, [r3, #24]
 8022342:	f042 0202 	orr.w	r2, r2, #2
 8022346:	619a      	str	r2, [r3, #24]
  if (hfdcan->Init.AutoRetransmission == ENABLE)
 8022348:	7c23      	ldrb	r3, [r4, #16]
 802234a:	2b01      	cmp	r3, #1
 802234c:	d040      	beq.n	80223d0 <HAL_FDCAN_Init+0x13c>
    SET_BIT(hfdcan->Instance->CCCR, FDCAN_CCCR_DAR);
 802234e:	6822      	ldr	r2, [r4, #0]
 8022350:	6993      	ldr	r3, [r2, #24]
 8022352:	f043 0340 	orr.w	r3, r3, #64	@ 0x40
 8022356:	6193      	str	r3, [r2, #24]
  if (hfdcan->Init.TransmitPause == ENABLE)
 8022358:	7c63      	ldrb	r3, [r4, #17]
 802235a:	2b01      	cmp	r3, #1
 802235c:	d03e      	beq.n	80223dc <HAL_FDCAN_Init+0x148>
    CLEAR_BIT(hfdcan->Instance->CCCR, FDCAN_CCCR_TXP);
 802235e:	6822      	ldr	r2, [r4, #0]
 8022360:	6993      	ldr	r3, [r2, #24]
 8022362:	f423 4380 	bic.w	r3, r3, #16384	@ 0x4000
 8022366:	6193      	str	r3, [r2, #24]
  if (hfdcan->Init.ProtocolException == ENABLE)
 8022368:	7ca3      	ldrb	r3, [r4, #18]
 802236a:	2b01      	cmp	r3, #1
 802236c:	d03c      	beq.n	80223e8 <HAL_FDCAN_Init+0x154>
    SET_BIT(hfdcan->Instance->CCCR, FDCAN_CCCR_PXHD);
 802236e:	6822      	ldr	r2, [r4, #0]
 8022370:	6993      	ldr	r3, [r2, #24]
 8022372:	f443 5380 	orr.w	r3, r3, #4096	@ 0x1000
 8022376:	6193      	str	r3, [r2, #24]
  MODIFY_REG(hfdcan->Instance->CCCR, FDCAN_FRAME_FD_BRS, hfdcan->Init.FrameFormat);
 8022378:	6822      	ldr	r2, [r4, #0]
 802237a:	6993      	ldr	r3, [r2, #24]
 802237c:	f423 7340 	bic.w	r3, r3, #768	@ 0x300
 8022380:	68a1      	ldr	r1, [r4, #8]
 8022382:	430b      	orrs	r3, r1
 8022384:	6193      	str	r3, [r2, #24]
  CLEAR_BIT(hfdcan->Instance->CCCR, (FDCAN_CCCR_TEST | FDCAN_CCCR_MON | FDCAN_CCCR_ASM));
 8022386:	6822      	ldr	r2, [r4, #0]
 8022388:	6993      	ldr	r3, [r2, #24]
 802238a:	f023 03a4 	bic.w	r3, r3, #164	@ 0xa4
 802238e:	6193      	str	r3, [r2, #24]
  CLEAR_BIT(hfdcan->Instance->TEST, FDCAN_TEST_LBCK);
 8022390:	6822      	ldr	r2, [r4, #0]
 8022392:	6913      	ldr	r3, [r2, #16]
 8022394:	f023 0310 	bic.w	r3, r3, #16
 8022398:	6113      	str	r3, [r2, #16]
  if (hfdcan->Init.Mode == FDCAN_MODE_RESTRICTED_OPERATION)
 802239a:	68e3      	ldr	r3, [r4, #12]
 802239c:	2b01      	cmp	r3, #1
 802239e:	d029      	beq.n	80223f4 <HAL_FDCAN_Init+0x160>
  else if (hfdcan->Init.Mode != FDCAN_MODE_NORMAL)
 80223a0:	2b00      	cmp	r3, #0
 80223a2:	d02c      	beq.n	80223fe <HAL_FDCAN_Init+0x16a>
    if (hfdcan->Init.Mode != FDCAN_MODE_BUS_MONITORING)
 80223a4:	2b02      	cmp	r3, #2
 80223a6:	f000 809b 	beq.w	80224e0 <HAL_FDCAN_Init+0x24c>
      SET_BIT(hfdcan->Instance->CCCR, FDCAN_CCCR_TEST);
 80223aa:	6822      	ldr	r2, [r4, #0]
 80223ac:	6993      	ldr	r3, [r2, #24]
 80223ae:	f043 0380 	orr.w	r3, r3, #128	@ 0x80
 80223b2:	6193      	str	r3, [r2, #24]
      SET_BIT(hfdcan->Instance->TEST, FDCAN_TEST_LBCK);
 80223b4:	6822      	ldr	r2, [r4, #0]
 80223b6:	6913      	ldr	r3, [r2, #16]
 80223b8:	f043 0310 	orr.w	r3, r3, #16
 80223bc:	6113      	str	r3, [r2, #16]
      if (hfdcan->Init.Mode == FDCAN_MODE_INTERNAL_LOOPBACK)
 80223be:	68e3      	ldr	r3, [r4, #12]
 80223c0:	2b03      	cmp	r3, #3
 80223c2:	d11c      	bne.n	80223fe <HAL_FDCAN_Init+0x16a>
        SET_BIT(hfdcan->Instance->CCCR, FDCAN_CCCR_MON);
 80223c4:	6822      	ldr	r2, [r4, #0]
 80223c6:	6993      	ldr	r3, [r2, #24]
 80223c8:	f043 0320 	orr.w	r3, r3, #32
 80223cc:	6193      	str	r3, [r2, #24]
 80223ce:	e016      	b.n	80223fe <HAL_FDCAN_Init+0x16a>
    CLEAR_BIT(hfdcan->Instance->CCCR, FDCAN_CCCR_DAR);
 80223d0:	6822      	ldr	r2, [r4, #0]
 80223d2:	6993      	ldr	r3, [r2, #24]
 80223d4:	f023 0340 	bic.w	r3, r3, #64	@ 0x40
 80223d8:	6193      	str	r3, [r2, #24]
 80223da:	e7bd      	b.n	8022358 <HAL_FDCAN_Init+0xc4>
    SET_BIT(hfdcan->Instance->CCCR, FDCAN_CCCR_TXP);
 80223dc:	6822      	ldr	r2, [r4, #0]
 80223de:	6993      	ldr	r3, [r2, #24]
 80223e0:	f443 4380 	orr.w	r3, r3, #16384	@ 0x4000
 80223e4:	6193      	str	r3, [r2, #24]
 80223e6:	e7bf      	b.n	8022368 <HAL_FDCAN_Init+0xd4>
    CLEAR_BIT(hfdcan->Instance->CCCR, FDCAN_CCCR_PXHD);
 80223e8:	6822      	ldr	r2, [r4, #0]
 80223ea:	6993      	ldr	r3, [r2, #24]
 80223ec:	f423 5380 	bic.w	r3, r3, #4096	@ 0x1000
 80223f0:	6193      	str	r3, [r2, #24]
 80223f2:	e7c1      	b.n	8022378 <HAL_FDCAN_Init+0xe4>
    SET_BIT(hfdcan->Instance->CCCR, FDCAN_CCCR_ASM);
 80223f4:	6822      	ldr	r2, [r4, #0]
 80223f6:	6993      	ldr	r3, [r2, #24]
 80223f8:	f043 0304 	orr.w	r3, r3, #4
 80223fc:	6193      	str	r3, [r2, #24]
  hfdcan->Instance->NBTP = ((((uint32_t)hfdcan->Init.NominalSyncJumpWidth - 1U) << FDCAN_NBTP_NSJW_Pos) | \
 80223fe:	69a3      	ldr	r3, [r4, #24]
 8022400:	1e5a      	subs	r2, r3, #1
                            (((uint32_t)hfdcan->Init.NominalTimeSeg1 - 1U) << FDCAN_NBTP_NTSEG1_Pos)    | \
 8022402:	69e3      	ldr	r3, [r4, #28]
 8022404:	3b01      	subs	r3, #1
 8022406:	021b      	lsls	r3, r3, #8
  hfdcan->Instance->NBTP = ((((uint32_t)hfdcan->Init.NominalSyncJumpWidth - 1U) << FDCAN_NBTP_NSJW_Pos) | \
 8022408:	ea43 6342 	orr.w	r3, r3, r2, lsl #25
                            (((uint32_t)hfdcan->Init.NominalTimeSeg2 - 1U) << FDCAN_NBTP_NTSEG2_Pos)    | \
 802240c:	6a22      	ldr	r2, [r4, #32]
 802240e:	3a01      	subs	r2, #1
                            (((uint32_t)hfdcan->Init.NominalTimeSeg1 - 1U) << FDCAN_NBTP_NTSEG1_Pos)    | \
 8022410:	4313      	orrs	r3, r2
                            (((uint32_t)hfdcan->Init.NominalPrescaler - 1U) << FDCAN_NBTP_NBRP_Pos));
 8022412:	6962      	ldr	r2, [r4, #20]
 8022414:	3a01      	subs	r2, #1
  hfdcan->Instance->NBTP = ((((uint32_t)hfdcan->Init.NominalSyncJumpWidth - 1U) << FDCAN_NBTP_NSJW_Pos) | \
 8022416:	6821      	ldr	r1, [r4, #0]
                            (((uint32_t)hfdcan->Init.NominalTimeSeg2 - 1U) << FDCAN_NBTP_NTSEG2_Pos)    | \
 8022418:	ea43 4302 	orr.w	r3, r3, r2, lsl #16
  hfdcan->Instance->NBTP = ((((uint32_t)hfdcan->Init.NominalSyncJumpWidth - 1U) << FDCAN_NBTP_NSJW_Pos) | \
 802241c:	61cb      	str	r3, [r1, #28]
  if (hfdcan->Init.FrameFormat == FDCAN_FRAME_FD_BRS)
 802241e:	68a3      	ldr	r3, [r4, #8]
 8022420:	f5b3 7f40 	cmp.w	r3, #768	@ 0x300
 8022424:	d062      	beq.n	80224ec <HAL_FDCAN_Init+0x258>
  if (hfdcan->Init.TxFifoQueueElmtsNbr > 0U)
 8022426:	6e23      	ldr	r3, [r4, #96]	@ 0x60
 8022428:	b133      	cbz	r3, 8022438 <HAL_FDCAN_Init+0x1a4>
    SET_BIT(hfdcan->Instance->TXBC, hfdcan->Init.TxFifoQueueMode);
 802242a:	6822      	ldr	r2, [r4, #0]
 802242c:	f8d2 30c0 	ldr.w	r3, [r2, #192]	@ 0xc0
 8022430:	6e61      	ldr	r1, [r4, #100]	@ 0x64
 8022432:	430b      	orrs	r3, r1
 8022434:	f8c2 30c0 	str.w	r3, [r2, #192]	@ 0xc0
  if ((hfdcan->Init.TxBuffersNbr + hfdcan->Init.TxFifoQueueElmtsNbr) > 0U)
 8022438:	6de3      	ldr	r3, [r4, #92]	@ 0x5c
 802243a:	6e22      	ldr	r2, [r4, #96]	@ 0x60
 802243c:	42d3      	cmn	r3, r2
 802243e:	d00d      	beq.n	802245c <HAL_FDCAN_Init+0x1c8>
    MODIFY_REG(hfdcan->Instance->TXESC, FDCAN_TXESC_TBDS, CvtEltSize[hfdcan->Init.TxElmtSize]);
 8022440:	6821      	ldr	r1, [r4, #0]
 8022442:	f8d1 30c8 	ldr.w	r3, [r1, #200]	@ 0xc8
 8022446:	f023 0307 	bic.w	r3, r3, #7
 802244a:	6ea2      	ldr	r2, [r4, #104]	@ 0x68
 802244c:	a814      	add	r0, sp, #80	@ 0x50
 802244e:	eb00 0282 	add.w	r2, r0, r2, lsl #2
 8022452:	f852 2c4c 	ldr.w	r2, [r2, #-76]
 8022456:	4313      	orrs	r3, r2
 8022458:	f8c1 30c8 	str.w	r3, [r1, #200]	@ 0xc8
  if (hfdcan->Init.RxFifo0ElmtsNbr > 0U)
 802245c:	6c23      	ldr	r3, [r4, #64]	@ 0x40
 802245e:	b16b      	cbz	r3, 802247c <HAL_FDCAN_Init+0x1e8>
    MODIFY_REG(hfdcan->Instance->RXESC, FDCAN_RXESC_F0DS,
 8022460:	6821      	ldr	r1, [r4, #0]
 8022462:	f8d1 30bc 	ldr.w	r3, [r1, #188]	@ 0xbc
 8022466:	f023 0307 	bic.w	r3, r3, #7
 802246a:	6c62      	ldr	r2, [r4, #68]	@ 0x44
 802246c:	a814      	add	r0, sp, #80	@ 0x50
 802246e:	eb00 0282 	add.w	r2, r0, r2, lsl #2
 8022472:	f852 2c4c 	ldr.w	r2, [r2, #-76]
 8022476:	4313      	orrs	r3, r2
 8022478:	f8c1 30bc 	str.w	r3, [r1, #188]	@ 0xbc
  if (hfdcan->Init.RxFifo1ElmtsNbr > 0U)
 802247c:	6ca3      	ldr	r3, [r4, #72]	@ 0x48
 802247e:	b173      	cbz	r3, 802249e <HAL_FDCAN_Init+0x20a>
    MODIFY_REG(hfdcan->Instance->RXESC, FDCAN_RXESC_F1DS,
 8022480:	6821      	ldr	r1, [r4, #0]
 8022482:	f8d1 30bc 	ldr.w	r3, [r1, #188]	@ 0xbc
 8022486:	f023 0370 	bic.w	r3, r3, #112	@ 0x70
 802248a:	6ce2      	ldr	r2, [r4, #76]	@ 0x4c
 802248c:	a814      	add	r0, sp, #80	@ 0x50
 802248e:	eb00 0282 	add.w	r2, r0, r2, lsl #2
 8022492:	f852 2c4c 	ldr.w	r2, [r2, #-76]
 8022496:	ea43 1302 	orr.w	r3, r3, r2, lsl #4
 802249a:	f8c1 30bc 	str.w	r3, [r1, #188]	@ 0xbc
  if (hfdcan->Init.RxBuffersNbr > 0U)
 802249e:	6d23      	ldr	r3, [r4, #80]	@ 0x50
 80224a0:	b173      	cbz	r3, 80224c0 <HAL_FDCAN_Init+0x22c>
    MODIFY_REG(hfdcan->Instance->RXESC, FDCAN_RXESC_RBDS,
 80224a2:	6821      	ldr	r1, [r4, #0]
 80224a4:	f8d1 30bc 	ldr.w	r3, [r1, #188]	@ 0xbc
 80224a8:	f423 63e0 	bic.w	r3, r3, #1792	@ 0x700
 80224ac:	6d62      	ldr	r2, [r4, #84]	@ 0x54
 80224ae:	a814      	add	r0, sp, #80	@ 0x50
 80224b0:	eb00 0282 	add.w	r2, r0, r2, lsl #2
 80224b4:	f852 2c4c 	ldr.w	r2, [r2, #-76]
 80224b8:	ea43 2302 	orr.w	r3, r3, r2, lsl #8
 80224bc:	f8c1 30bc 	str.w	r3, [r1, #188]	@ 0xbc
  if (hfdcan->Instance == FDCAN1)
 80224c0:	6822      	ldr	r2, [r4, #0]
 80224c2:	4b18      	ldr	r3, [pc, #96]	@ (8022524 <HAL_FDCAN_Init+0x290>)
 80224c4:	429a      	cmp	r2, r3
 80224c6:	d022      	beq.n	802250e <HAL_FDCAN_Init+0x27a>
  hfdcan->LatestTxFifoQRequest = 0U;
 80224c8:	2300      	movs	r3, #0
 80224ca:	f8c4 3094 	str.w	r3, [r4, #148]	@ 0x94
  hfdcan->ErrorCode = HAL_FDCAN_ERROR_NONE;
 80224ce:	f8c4 309c 	str.w	r3, [r4, #156]	@ 0x9c
  hfdcan->State = HAL_FDCAN_STATE_READY;
 80224d2:	2301      	movs	r3, #1
 80224d4:	f884 3098 	strb.w	r3, [r4, #152]	@ 0x98
  status = FDCAN_CalculateRamBlockAddresses(hfdcan);
 80224d8:	4620      	mov	r0, r4
 80224da:	f7ff fdf1 	bl	80220c0 <FDCAN_CalculateRamBlockAddresses>
  return status;
 80224de:	e707      	b.n	80222f0 <HAL_FDCAN_Init+0x5c>
      SET_BIT(hfdcan->Instance->CCCR, FDCAN_CCCR_MON);
 80224e0:	6822      	ldr	r2, [r4, #0]
 80224e2:	6993      	ldr	r3, [r2, #24]
 80224e4:	f043 0320 	orr.w	r3, r3, #32
 80224e8:	6193      	str	r3, [r2, #24]
 80224ea:	e788      	b.n	80223fe <HAL_FDCAN_Init+0x16a>
    hfdcan->Instance->DBTP = ((((uint32_t)hfdcan->Init.DataSyncJumpWidth - 1U) << FDCAN_DBTP_DSJW_Pos)  | \
 80224ec:	6aa3      	ldr	r3, [r4, #40]	@ 0x28
 80224ee:	3b01      	subs	r3, #1
                              (((uint32_t)hfdcan->Init.DataTimeSeg1 - 1U) << FDCAN_DBTP_DTSEG1_Pos)     | \
 80224f0:	6ae2      	ldr	r2, [r4, #44]	@ 0x2c
 80224f2:	3a01      	subs	r2, #1
    hfdcan->Instance->DBTP = ((((uint32_t)hfdcan->Init.DataSyncJumpWidth - 1U) << FDCAN_DBTP_DSJW_Pos)  | \
 80224f4:	ea43 2302 	orr.w	r3, r3, r2, lsl #8
                              (((uint32_t)hfdcan->Init.DataTimeSeg2 - 1U) << FDCAN_DBTP_DTSEG2_Pos)     | \
 80224f8:	6b22      	ldr	r2, [r4, #48]	@ 0x30
 80224fa:	3a01      	subs	r2, #1
                              (((uint32_t)hfdcan->Init.DataTimeSeg1 - 1U) << FDCAN_DBTP_DTSEG1_Pos)     | \
 80224fc:	ea43 1302 	orr.w	r3, r3, r2, lsl #4
                              (((uint32_t)hfdcan->Init.DataPrescaler - 1U) << FDCAN_DBTP_DBRP_Pos));
 8022500:	6a62      	ldr	r2, [r4, #36]	@ 0x24
 8022502:	3a01      	subs	r2, #1
    hfdcan->Instance->DBTP = ((((uint32_t)hfdcan->Init.DataSyncJumpWidth - 1U) << FDCAN_DBTP_DSJW_Pos)  | \
 8022504:	6821      	ldr	r1, [r4, #0]
                              (((uint32_t)hfdcan->Init.DataTimeSeg2 - 1U) << FDCAN_DBTP_DTSEG2_Pos)     | \
 8022506:	ea43 4302 	orr.w	r3, r3, r2, lsl #16
    hfdcan->Instance->DBTP = ((((uint32_t)hfdcan->Init.DataSyncJumpWidth - 1U) << FDCAN_DBTP_DSJW_Pos)  | \
 802250a:	60cb      	str	r3, [r1, #12]
 802250c:	e78b      	b.n	8022426 <HAL_FDCAN_Init+0x192>
    CLEAR_BIT(hfdcan->ttcan->TTOCF, FDCAN_TTOCF_OM);
 802250e:	6862      	ldr	r2, [r4, #4]
 8022510:	6893      	ldr	r3, [r2, #8]
 8022512:	f023 0303 	bic.w	r3, r3, #3
 8022516:	6093      	str	r3, [r2, #8]
 8022518:	e7d6      	b.n	80224c8 <HAL_FDCAN_Init+0x234>
    return HAL_ERROR;
 802251a:	2001      	movs	r0, #1
 802251c:	e6e8      	b.n	80222f0 <HAL_FDCAN_Init+0x5c>
 802251e:	bf00      	nop
 8022520:	08026e14 	.word	0x08026e14
 8022524:	4000a000 	.word	0x4000a000

08022528 <HAL_FDCAN_ConfigFilter>:
  HAL_FDCAN_StateTypeDef state = hfdcan->State;
 8022528:	f890 3098 	ldrb.w	r3, [r0, #152]	@ 0x98
  if ((state == HAL_FDCAN_STATE_READY) || (state == HAL_FDCAN_STATE_BUSY))
 802252c:	3b01      	subs	r3, #1
 802252e:	b2db      	uxtb	r3, r3
 8022530:	2b01      	cmp	r3, #1
 8022532:	d907      	bls.n	8022544 <HAL_FDCAN_ConfigFilter+0x1c>
    hfdcan->ErrorCode |= HAL_FDCAN_ERROR_NOT_INITIALIZED;
 8022534:	f8d0 309c 	ldr.w	r3, [r0, #156]	@ 0x9c
 8022538:	f043 0302 	orr.w	r3, r3, #2
 802253c:	f8c0 309c 	str.w	r3, [r0, #156]	@ 0x9c
    return HAL_ERROR;
 8022540:	2001      	movs	r0, #1
 8022542:	4770      	bx	lr
    if (sFilterConfig->IdType == FDCAN_STANDARD_ID)
 8022544:	680b      	ldr	r3, [r1, #0]
 8022546:	b9db      	cbnz	r3, 8022580 <HAL_FDCAN_ConfigFilter+0x58>
      if (sFilterConfig->FilterConfig == FDCAN_FILTER_TO_RXBUFFER)
 8022548:	68cb      	ldr	r3, [r1, #12]
 802254a:	2b07      	cmp	r3, #7
 802254c:	d00e      	beq.n	802256c <HAL_FDCAN_ConfigFilter+0x44>
        FilterElementW1 = ((sFilterConfig->FilterType << 30U)   |
 802254e:	688a      	ldr	r2, [r1, #8]
                           (sFilterConfig->FilterConfig << 27U) |
 8022550:	06db      	lsls	r3, r3, #27
        FilterElementW1 = ((sFilterConfig->FilterType << 30U)   |
 8022552:	ea43 7382 	orr.w	r3, r3, r2, lsl #30
                           (sFilterConfig->FilterID1 << 16U)    |
 8022556:	690a      	ldr	r2, [r1, #16]
                           (sFilterConfig->FilterConfig << 27U) |
 8022558:	ea43 4302 	orr.w	r3, r3, r2, lsl #16
                           sFilterConfig->FilterID2);
 802255c:	694a      	ldr	r2, [r1, #20]
        FilterElementW1 = ((sFilterConfig->FilterType << 30U)   |
 802255e:	4313      	orrs	r3, r2
      FilterAddress = (uint32_t *)(hfdcan->msgRam.StandardFilterSA + (sFilterConfig->FilterIndex * SRAMCAN_FLS_SIZE));
 8022560:	6ec2      	ldr	r2, [r0, #108]	@ 0x6c
 8022562:	6849      	ldr	r1, [r1, #4]
      *FilterAddress = FilterElementW1;
 8022564:	f842 3021 	str.w	r3, [r2, r1, lsl #2]
    return HAL_OK;
 8022568:	2000      	movs	r0, #0
}
 802256a:	4770      	bx	lr
                           (sFilterConfig->FilterID1 << 16U)       |
 802256c:	690a      	ldr	r2, [r1, #16]
                           (sFilterConfig->IsCalibrationMsg << 8U) |
 802256e:	69cb      	ldr	r3, [r1, #28]
 8022570:	021b      	lsls	r3, r3, #8
                           (sFilterConfig->FilterID1 << 16U)       |
 8022572:	ea43 4302 	orr.w	r3, r3, r2, lsl #16
                           sFilterConfig->RxBufferIndex);
 8022576:	698a      	ldr	r2, [r1, #24]
                           (sFilterConfig->IsCalibrationMsg << 8U) |
 8022578:	4313      	orrs	r3, r2
        FilterElementW1 = ((FDCAN_FILTER_TO_RXBUFFER << 27U)       |
 802257a:	f043 5360 	orr.w	r3, r3, #939524096	@ 0x38000000
 802257e:	e7ef      	b.n	8022560 <HAL_FDCAN_ConfigFilter+0x38>
{
 8022580:	b410      	push	{r4}
      FilterElementW1 = ((sFilterConfig->FilterConfig << 29U) | sFilterConfig->FilterID1);
 8022582:	68ca      	ldr	r2, [r1, #12]
 8022584:	690b      	ldr	r3, [r1, #16]
 8022586:	ea43 7342 	orr.w	r3, r3, r2, lsl #29
      if (sFilterConfig->FilterConfig == FDCAN_FILTER_TO_RXBUFFER)
 802258a:	2a07      	cmp	r2, #7
 802258c:	d00f      	beq.n	80225ae <HAL_FDCAN_ConfigFilter+0x86>
        FilterElementW2 = ((sFilterConfig->FilterType << 30U) | sFilterConfig->FilterID2);
 802258e:	694a      	ldr	r2, [r1, #20]
 8022590:	688c      	ldr	r4, [r1, #8]
 8022592:	ea42 7284 	orr.w	r2, r2, r4, lsl #30
      FilterAddress = (uint32_t *)(hfdcan->msgRam.ExtendedFilterSA + (sFilterConfig->FilterIndex * SRAMCAN_FLE_SIZE));
 8022596:	6f00      	ldr	r0, [r0, #112]	@ 0x70
 8022598:	6849      	ldr	r1, [r1, #4]
 802259a:	eb00 0cc1 	add.w	ip, r0, r1, lsl #3
      *FilterAddress = FilterElementW1;
 802259e:	f840 3031 	str.w	r3, [r0, r1, lsl #3]
      *FilterAddress = FilterElementW2;
 80225a2:	f8cc 2004 	str.w	r2, [ip, #4]
    return HAL_OK;
 80225a6:	2000      	movs	r0, #0
}
 80225a8:	f85d 4b04 	ldr.w	r4, [sp], #4
 80225ac:	4770      	bx	lr
        FilterElementW2 = sFilterConfig->RxBufferIndex;
 80225ae:	698a      	ldr	r2, [r1, #24]
 80225b0:	e7f1      	b.n	8022596 <HAL_FDCAN_ConfigFilter+0x6e>

080225b2 <HAL_FDCAN_ConfigGlobalFilter>:
  if (hfdcan->State == HAL_FDCAN_STATE_READY)
 80225b2:	f890 c098 	ldrb.w	ip, [r0, #152]	@ 0x98
 80225b6:	f1bc 0f01 	cmp.w	ip, #1
 80225ba:	d007      	beq.n	80225cc <HAL_FDCAN_ConfigGlobalFilter+0x1a>
    hfdcan->ErrorCode |= HAL_FDCAN_ERROR_NOT_READY;
 80225bc:	f8d0 309c 	ldr.w	r3, [r0, #156]	@ 0x9c
 80225c0:	f043 0304 	orr.w	r3, r3, #4
 80225c4:	f8c0 309c 	str.w	r3, [r0, #156]	@ 0x9c
    return HAL_ERROR;
 80225c8:	2001      	movs	r0, #1
}
 80225ca:	4770      	bx	lr
                             (NonMatchingExt << FDCAN_GFC_ANFE_Pos)  |
 80225cc:	0092      	lsls	r2, r2, #2
    hfdcan->Instance->GFC = ((NonMatchingStd << FDCAN_GFC_ANFS_Pos)  |
 80225ce:	ea42 1201 	orr.w	r2, r2, r1, lsl #4
                             (NonMatchingExt << FDCAN_GFC_ANFE_Pos)  |
 80225d2:	ea42 0343 	orr.w	r3, r2, r3, lsl #1
    hfdcan->Instance->GFC = ((NonMatchingStd << FDCAN_GFC_ANFS_Pos)  |
 80225d6:	6801      	ldr	r1, [r0, #0]
                             (RejectRemoteStd << FDCAN_GFC_RRFS_Pos) |
 80225d8:	9a00      	ldr	r2, [sp, #0]
 80225da:	431a      	orrs	r2, r3
    hfdcan->Instance->GFC = ((NonMatchingStd << FDCAN_GFC_ANFS_Pos)  |
 80225dc:	f8c1 2080 	str.w	r2, [r1, #128]	@ 0x80
    return HAL_OK;
 80225e0:	2000      	movs	r0, #0
 80225e2:	4770      	bx	lr

080225e4 <HAL_FDCAN_Start>:
  if (hfdcan->State == HAL_FDCAN_STATE_READY)
 80225e4:	f890 3098 	ldrb.w	r3, [r0, #152]	@ 0x98
 80225e8:	2b01      	cmp	r3, #1
 80225ea:	d007      	beq.n	80225fc <HAL_FDCAN_Start+0x18>
    hfdcan->ErrorCode |= HAL_FDCAN_ERROR_NOT_READY;
 80225ec:	f8d0 309c 	ldr.w	r3, [r0, #156]	@ 0x9c
 80225f0:	f043 0304 	orr.w	r3, r3, #4
 80225f4:	f8c0 309c 	str.w	r3, [r0, #156]	@ 0x9c
    return HAL_ERROR;
 80225f8:	2001      	movs	r0, #1
}
 80225fa:	4770      	bx	lr
    hfdcan->State = HAL_FDCAN_STATE_BUSY;
 80225fc:	2302      	movs	r3, #2
 80225fe:	f880 3098 	strb.w	r3, [r0, #152]	@ 0x98
    CLEAR_BIT(hfdcan->Instance->CCCR, FDCAN_CCCR_INIT);
 8022602:	6802      	ldr	r2, [r0, #0]
 8022604:	6993      	ldr	r3, [r2, #24]
 8022606:	f023 0301 	bic.w	r3, r3, #1
 802260a:	6193      	str	r3, [r2, #24]
    hfdcan->ErrorCode = HAL_FDCAN_ERROR_NONE;
 802260c:	2300      	movs	r3, #0
 802260e:	f8c0 309c 	str.w	r3, [r0, #156]	@ 0x9c
    return HAL_OK;
 8022612:	4618      	mov	r0, r3
 8022614:	4770      	bx	lr
	...

08022618 <HAL_FDCAN_GetRxMessage>:
{
 8022618:	b570      	push	{r4, r5, r6, lr}
  HAL_FDCAN_StateTypeDef state = hfdcan->State;
 802261a:	f890 4098 	ldrb.w	r4, [r0, #152]	@ 0x98
  if (state == HAL_FDCAN_STATE_BUSY)
 802261e:	2c02      	cmp	r4, #2
 8022620:	f040 80e6 	bne.w	80227f0 <HAL_FDCAN_GetRxMessage+0x1d8>
    if (RxLocation == FDCAN_RX_FIFO0) /* Rx element is assigned to the Rx FIFO 0 */
 8022624:	2940      	cmp	r1, #64	@ 0x40
 8022626:	d00c      	beq.n	8022642 <HAL_FDCAN_GetRxMessage+0x2a>
    else if (RxLocation == FDCAN_RX_FIFO1) /* Rx element is assigned to the Rx FIFO 1 */
 8022628:	2941      	cmp	r1, #65	@ 0x41
 802262a:	d041      	beq.n	80226b0 <HAL_FDCAN_GetRxMessage+0x98>
      if (RxLocation >= hfdcan->Init.RxBuffersNbr)
 802262c:	6d04      	ldr	r4, [r0, #80]	@ 0x50
 802262e:	428c      	cmp	r4, r1
 8022630:	d875      	bhi.n	802271e <HAL_FDCAN_GetRxMessage+0x106>
        hfdcan->ErrorCode |= HAL_FDCAN_ERROR_PARAM;
 8022632:	f8d0 309c 	ldr.w	r3, [r0, #156]	@ 0x9c
 8022636:	f043 0320 	orr.w	r3, r3, #32
 802263a:	f8c0 309c 	str.w	r3, [r0, #156]	@ 0x9c
        return HAL_ERROR;
 802263e:	2001      	movs	r0, #1
 8022640:	e0dd      	b.n	80227fe <HAL_FDCAN_GetRxMessage+0x1e6>
      if ((hfdcan->Instance->RXF0C & FDCAN_RXF0C_F0S) == 0U)
 8022642:	6804      	ldr	r4, [r0, #0]
 8022644:	f8d4 50a0 	ldr.w	r5, [r4, #160]	@ 0xa0
 8022648:	f415 0ffe 	tst.w	r5, #8323072	@ 0x7f0000
 802264c:	d00c      	beq.n	8022668 <HAL_FDCAN_GetRxMessage+0x50>
      if ((hfdcan->Instance->RXF0S & FDCAN_RXF0S_F0FL) == 0U)
 802264e:	f8d4 50a4 	ldr.w	r5, [r4, #164]	@ 0xa4
 8022652:	f015 0f7f 	tst.w	r5, #127	@ 0x7f
 8022656:	d10f      	bne.n	8022678 <HAL_FDCAN_GetRxMessage+0x60>
        hfdcan->ErrorCode |= HAL_FDCAN_ERROR_FIFO_EMPTY;
 8022658:	f8d0 309c 	ldr.w	r3, [r0, #156]	@ 0x9c
 802265c:	f443 7380 	orr.w	r3, r3, #256	@ 0x100
 8022660:	f8c0 309c 	str.w	r3, [r0, #156]	@ 0x9c
        return HAL_ERROR;
 8022664:	2001      	movs	r0, #1
 8022666:	e0ca      	b.n	80227fe <HAL_FDCAN_GetRxMessage+0x1e6>
        hfdcan->ErrorCode |= HAL_FDCAN_ERROR_PARAM;
 8022668:	f8d0 309c 	ldr.w	r3, [r0, #156]	@ 0x9c
 802266c:	f043 0320 	orr.w	r3, r3, #32
 8022670:	f8c0 309c 	str.w	r3, [r0, #156]	@ 0x9c
        return HAL_ERROR;
 8022674:	2001      	movs	r0, #1
 8022676:	e0c2      	b.n	80227fe <HAL_FDCAN_GetRxMessage+0x1e6>
        GetIndex = ((hfdcan->Instance->RXF0S & FDCAN_RXF0S_F0GI) >> FDCAN_RXF0S_F0GI_Pos);
 8022678:	f8d4 50a4 	ldr.w	r5, [r4, #164]	@ 0xa4
 802267c:	f3c5 2505 	ubfx	r5, r5, #8, #6
        if (((hfdcan->Instance->RXF0S & FDCAN_RXF0S_F0F) >> FDCAN_RXF0S_F0F_Pos) == 1U)
 8022680:	f8d4 60a4 	ldr.w	r6, [r4, #164]	@ 0xa4
 8022684:	f016 7f80 	tst.w	r6, #16777216	@ 0x1000000
 8022688:	d003      	beq.n	8022692 <HAL_FDCAN_GetRxMessage+0x7a>
          if (((hfdcan->Instance->RXF0C & FDCAN_RXF0C_F0OM) >> FDCAN_RXF0C_F0OM_Pos) == FDCAN_RX_FIFO_OVERWRITE)
 802268a:	f8d4 60a0 	ldr.w	r6, [r4, #160]	@ 0xa0
 802268e:	2e00      	cmp	r6, #0
 8022690:	db06      	blt.n	80226a0 <HAL_FDCAN_GetRxMessage+0x88>
        RxAddress = (uint32_t *)(hfdcan->msgRam.RxFIFO0SA + (GetIndex * hfdcan->Init.RxFifo0ElmtSize * 4U));
 8022692:	6c44      	ldr	r4, [r0, #68]	@ 0x44
 8022694:	fb05 f404 	mul.w	r4, r5, r4
 8022698:	6f46      	ldr	r6, [r0, #116]	@ 0x74
 802269a:	eb06 0e84 	add.w	lr, r6, r4, lsl #2
 802269e:	e045      	b.n	802272c <HAL_FDCAN_GetRxMessage+0x114>
            GetIndex = (GetIndex + 1U) & ((hfdcan->Instance->RXF0C & FDCAN_RXF0C_F0S) >> FDCAN_RXF0C_F0S_Pos);
 80226a0:	3501      	adds	r5, #1
 80226a2:	f8d4 40a0 	ldr.w	r4, [r4, #160]	@ 0xa0
 80226a6:	ea05 4514 	and.w	r5, r5, r4, lsr #16
 80226aa:	f005 057f 	and.w	r5, r5, #127	@ 0x7f
 80226ae:	e7f0      	b.n	8022692 <HAL_FDCAN_GetRxMessage+0x7a>
      if ((hfdcan->Instance->RXF1C & FDCAN_RXF1C_F1S) == 0U)
 80226b0:	6804      	ldr	r4, [r0, #0]
 80226b2:	f8d4 50b0 	ldr.w	r5, [r4, #176]	@ 0xb0
 80226b6:	f415 0ffe 	tst.w	r5, #8323072	@ 0x7f0000
 80226ba:	d00c      	beq.n	80226d6 <HAL_FDCAN_GetRxMessage+0xbe>
      if ((hfdcan->Instance->RXF1S & FDCAN_RXF1S_F1FL) == 0U)
 80226bc:	f8d4 50b4 	ldr.w	r5, [r4, #180]	@ 0xb4
 80226c0:	f015 0f7f 	tst.w	r5, #127	@ 0x7f
 80226c4:	d10f      	bne.n	80226e6 <HAL_FDCAN_GetRxMessage+0xce>
        hfdcan->ErrorCode |= HAL_FDCAN_ERROR_FIFO_EMPTY;
 80226c6:	f8d0 309c 	ldr.w	r3, [r0, #156]	@ 0x9c
 80226ca:	f443 7380 	orr.w	r3, r3, #256	@ 0x100
 80226ce:	f8c0 309c 	str.w	r3, [r0, #156]	@ 0x9c
        return HAL_ERROR;
 80226d2:	2001      	movs	r0, #1
 80226d4:	e093      	b.n	80227fe <HAL_FDCAN_GetRxMessage+0x1e6>
        hfdcan->ErrorCode |= HAL_FDCAN_ERROR_PARAM;
 80226d6:	f8d0 309c 	ldr.w	r3, [r0, #156]	@ 0x9c
 80226da:	f043 0320 	orr.w	r3, r3, #32
 80226de:	f8c0 309c 	str.w	r3, [r0, #156]	@ 0x9c
        return HAL_ERROR;
 80226e2:	2001      	movs	r0, #1
 80226e4:	e08b      	b.n	80227fe <HAL_FDCAN_GetRxMessage+0x1e6>
        GetIndex = ((hfdcan->Instance->RXF1S & FDCAN_RXF1S_F1GI) >> FDCAN_RXF1S_F1GI_Pos);
 80226e6:	f8d4 50b4 	ldr.w	r5, [r4, #180]	@ 0xb4
 80226ea:	f3c5 2505 	ubfx	r5, r5, #8, #6
        if (((hfdcan->Instance->RXF1S & FDCAN_RXF1S_F1F) >> FDCAN_RXF1S_F1F_Pos) == 1U)
 80226ee:	f8d4 60b4 	ldr.w	r6, [r4, #180]	@ 0xb4
 80226f2:	f016 7f80 	tst.w	r6, #16777216	@ 0x1000000
 80226f6:	d003      	beq.n	8022700 <HAL_FDCAN_GetRxMessage+0xe8>
          if (((hfdcan->Instance->RXF1C & FDCAN_RXF1C_F1OM) >> FDCAN_RXF1C_F1OM_Pos) == FDCAN_RX_FIFO_OVERWRITE)
 80226f8:	f8d4 60b0 	ldr.w	r6, [r4, #176]	@ 0xb0
 80226fc:	2e00      	cmp	r6, #0
 80226fe:	db06      	blt.n	802270e <HAL_FDCAN_GetRxMessage+0xf6>
        RxAddress = (uint32_t *)(hfdcan->msgRam.RxFIFO1SA + (GetIndex * hfdcan->Init.RxFifo1ElmtSize * 4U));
 8022700:	6f86      	ldr	r6, [r0, #120]	@ 0x78
 8022702:	6cc4      	ldr	r4, [r0, #76]	@ 0x4c
 8022704:	fb05 f404 	mul.w	r4, r5, r4
 8022708:	eb06 0e84 	add.w	lr, r6, r4, lsl #2
 802270c:	e00e      	b.n	802272c <HAL_FDCAN_GetRxMessage+0x114>
            GetIndex = (GetIndex + 1U) & ((hfdcan->Instance->RXF1C & FDCAN_RXF1C_F1S) >> FDCAN_RXF1C_F1S_Pos);
 802270e:	3501      	adds	r5, #1
 8022710:	f8d4 40b0 	ldr.w	r4, [r4, #176]	@ 0xb0
 8022714:	ea05 4514 	and.w	r5, r5, r4, lsr #16
 8022718:	f005 057f 	and.w	r5, r5, #127	@ 0x7f
 802271c:	e7f0      	b.n	8022700 <HAL_FDCAN_GetRxMessage+0xe8>
        RxAddress = (uint32_t *)(hfdcan->msgRam.RxBufferSA + (RxLocation * hfdcan->Init.RxBufferSize * 4U));
 802271e:	6fc5      	ldr	r5, [r0, #124]	@ 0x7c
 8022720:	6d44      	ldr	r4, [r0, #84]	@ 0x54
 8022722:	fb01 f404 	mul.w	r4, r1, r4
 8022726:	eb05 0e84 	add.w	lr, r5, r4, lsl #2
  uint32_t GetIndex = 0;
 802272a:	2500      	movs	r5, #0
    pRxHeader->IdType = *RxAddress & FDCAN_ELEMENT_MASK_XTD;
 802272c:	f8de 4000 	ldr.w	r4, [lr]
 8022730:	f004 4480 	and.w	r4, r4, #1073741824	@ 0x40000000
 8022734:	6054      	str	r4, [r2, #4]
    if (pRxHeader->IdType == FDCAN_STANDARD_ID) /* Standard ID element */
 8022736:	bb64      	cbnz	r4, 8022792 <HAL_FDCAN_GetRxMessage+0x17a>
      pRxHeader->Identifier = ((*RxAddress & FDCAN_ELEMENT_MASK_STDID) >> 18U);
 8022738:	f8de 4000 	ldr.w	r4, [lr]
 802273c:	f3c4 448a 	ubfx	r4, r4, #18, #11
 8022740:	6014      	str	r4, [r2, #0]
    pRxHeader->RxFrameType = (*RxAddress & FDCAN_ELEMENT_MASK_RTR);
 8022742:	f8de 4000 	ldr.w	r4, [lr]
 8022746:	f004 5400 	and.w	r4, r4, #536870912	@ 0x20000000
 802274a:	6094      	str	r4, [r2, #8]
    pRxHeader->ErrorStateIndicator = (*RxAddress & FDCAN_ELEMENT_MASK_ESI);
 802274c:	f8de 4000 	ldr.w	r4, [lr]
 8022750:	f004 4400 	and.w	r4, r4, #2147483648	@ 0x80000000
 8022754:	6114      	str	r4, [r2, #16]
    pRxHeader->RxTimestamp = (*RxAddress & FDCAN_ELEMENT_MASK_TS);
 8022756:	f8be 4004 	ldrh.w	r4, [lr, #4]
 802275a:	61d4      	str	r4, [r2, #28]
    pRxHeader->DataLength = ((*RxAddress & FDCAN_ELEMENT_MASK_DLC) >> 16U);
 802275c:	f8be 4006 	ldrh.w	r4, [lr, #6]
 8022760:	f004 040f 	and.w	r4, r4, #15
 8022764:	60d4      	str	r4, [r2, #12]
    pRxHeader->BitRateSwitch = (*RxAddress & FDCAN_ELEMENT_MASK_BRS);
 8022766:	f8de 4004 	ldr.w	r4, [lr, #4]
 802276a:	f404 1480 	and.w	r4, r4, #1048576	@ 0x100000
 802276e:	6154      	str	r4, [r2, #20]
    pRxHeader->FDFormat = (*RxAddress & FDCAN_ELEMENT_MASK_FDF);
 8022770:	f8de 4004 	ldr.w	r4, [lr, #4]
 8022774:	f404 1400 	and.w	r4, r4, #2097152	@ 0x200000
 8022778:	6194      	str	r4, [r2, #24]
    pRxHeader->FilterIndex = ((*RxAddress & FDCAN_ELEMENT_MASK_FIDX) >> 24U);
 802277a:	f89e 4007 	ldrb.w	r4, [lr, #7]
 802277e:	f004 047f 	and.w	r4, r4, #127	@ 0x7f
 8022782:	6214      	str	r4, [r2, #32]
    pRxHeader->IsFilterMatchingFrame = ((*RxAddress & FDCAN_ELEMENT_MASK_ANMF) >> 31U);
 8022784:	f8de 4004 	ldr.w	r4, [lr, #4]
 8022788:	0fe4      	lsrs	r4, r4, #31
 802278a:	6254      	str	r4, [r2, #36]	@ 0x24
    for (ByteCounter = 0; ByteCounter < DLCtoBytes[pRxHeader->DataLength]; ByteCounter++)
 802278c:	f04f 0c00 	mov.w	ip, #0
 8022790:	e00c      	b.n	80227ac <HAL_FDCAN_GetRxMessage+0x194>
      pRxHeader->Identifier = (*RxAddress & FDCAN_ELEMENT_MASK_EXTID);
 8022792:	f8de 4000 	ldr.w	r4, [lr]
 8022796:	f024 4460 	bic.w	r4, r4, #3758096384	@ 0xe0000000
 802279a:	6014      	str	r4, [r2, #0]
 802279c:	e7d1      	b.n	8022742 <HAL_FDCAN_GetRxMessage+0x12a>
      pRxData[ByteCounter] = pData[ByteCounter];
 802279e:	eb0e 040c 	add.w	r4, lr, ip
 80227a2:	7a24      	ldrb	r4, [r4, #8]
 80227a4:	f803 400c 	strb.w	r4, [r3, ip]
    for (ByteCounter = 0; ByteCounter < DLCtoBytes[pRxHeader->DataLength]; ByteCounter++)
 80227a8:	f10c 0c01 	add.w	ip, ip, #1
 80227ac:	4c14      	ldr	r4, [pc, #80]	@ (8022800 <HAL_FDCAN_GetRxMessage+0x1e8>)
 80227ae:	68d6      	ldr	r6, [r2, #12]
 80227b0:	5da4      	ldrb	r4, [r4, r6]
 80227b2:	4564      	cmp	r4, ip
 80227b4:	d8f3      	bhi.n	802279e <HAL_FDCAN_GetRxMessage+0x186>
    if (RxLocation == FDCAN_RX_FIFO0) /* Rx element is assigned to the Rx FIFO 0 */
 80227b6:	2940      	cmp	r1, #64	@ 0x40
 80227b8:	d009      	beq.n	80227ce <HAL_FDCAN_GetRxMessage+0x1b6>
    else if (RxLocation == FDCAN_RX_FIFO1) /* Rx element is assigned to the Rx FIFO 1 */
 80227ba:	2941      	cmp	r1, #65	@ 0x41
 80227bc:	d00c      	beq.n	80227d8 <HAL_FDCAN_GetRxMessage+0x1c0>
      if (RxLocation < FDCAN_RX_BUFFER32)
 80227be:	291f      	cmp	r1, #31
 80227c0:	d80e      	bhi.n	80227e0 <HAL_FDCAN_GetRxMessage+0x1c8>
        hfdcan->Instance->NDAT1 = ((uint32_t)1U << RxLocation);
 80227c2:	6802      	ldr	r2, [r0, #0]
 80227c4:	2301      	movs	r3, #1
 80227c6:	408b      	lsls	r3, r1
 80227c8:	f8c2 3098 	str.w	r3, [r2, #152]	@ 0x98
 80227cc:	e002      	b.n	80227d4 <HAL_FDCAN_GetRxMessage+0x1bc>
      hfdcan->Instance->RXF0A = GetIndex;
 80227ce:	6803      	ldr	r3, [r0, #0]
 80227d0:	f8c3 50a8 	str.w	r5, [r3, #168]	@ 0xa8
    return HAL_OK;
 80227d4:	2000      	movs	r0, #0
 80227d6:	e012      	b.n	80227fe <HAL_FDCAN_GetRxMessage+0x1e6>
      hfdcan->Instance->RXF1A = GetIndex;
 80227d8:	6803      	ldr	r3, [r0, #0]
 80227da:	f8c3 50b8 	str.w	r5, [r3, #184]	@ 0xb8
 80227de:	e7f9      	b.n	80227d4 <HAL_FDCAN_GetRxMessage+0x1bc>
        hfdcan->Instance->NDAT2 = ((uint32_t)1U << (RxLocation & 0x1FU));
 80227e0:	f001 011f 	and.w	r1, r1, #31
 80227e4:	6802      	ldr	r2, [r0, #0]
 80227e6:	2301      	movs	r3, #1
 80227e8:	408b      	lsls	r3, r1
 80227ea:	f8c2 309c 	str.w	r3, [r2, #156]	@ 0x9c
 80227ee:	e7f1      	b.n	80227d4 <HAL_FDCAN_GetRxMessage+0x1bc>
    hfdcan->ErrorCode |= HAL_FDCAN_ERROR_NOT_STARTED;
 80227f0:	f8d0 309c 	ldr.w	r3, [r0, #156]	@ 0x9c
 80227f4:	f043 0308 	orr.w	r3, r3, #8
 80227f8:	f8c0 309c 	str.w	r3, [r0, #156]	@ 0x9c
    return HAL_ERROR;
 80227fc:	2001      	movs	r0, #1
}
 80227fe:	bd70      	pop	{r4, r5, r6, pc}
 8022800:	08026e70 	.word	0x08026e70

08022804 <HAL_FDCAN_GetRxFifoFillLevel>:
  if (RxFifo == FDCAN_RX_FIFO0)
 8022804:	2940      	cmp	r1, #64	@ 0x40
 8022806:	d005      	beq.n	8022814 <HAL_FDCAN_GetRxFifoFillLevel+0x10>
    FillLevel = hfdcan->Instance->RXF1S & FDCAN_RXF1S_F1FL;
 8022808:	6803      	ldr	r3, [r0, #0]
 802280a:	f8d3 00b4 	ldr.w	r0, [r3, #180]	@ 0xb4
 802280e:	f000 007f 	and.w	r0, r0, #127	@ 0x7f
}
 8022812:	4770      	bx	lr
    FillLevel = hfdcan->Instance->RXF0S & FDCAN_RXF0S_F0FL;
 8022814:	6803      	ldr	r3, [r0, #0]
 8022816:	f8d3 00a4 	ldr.w	r0, [r3, #164]	@ 0xa4
 802281a:	f000 007f 	and.w	r0, r0, #127	@ 0x7f
 802281e:	4770      	bx	lr

08022820 <HAL_GPIO_Init>:
  * @param  GPIO_Init: pointer to a GPIO_InitTypeDef structure that contains
  *         the configuration information for the specified GPIO peripheral.
  * @retval None
  */
void HAL_GPIO_Init(GPIO_TypeDef  *GPIOx, const GPIO_InitTypeDef *GPIO_Init)
{
 8022820:	b5f0      	push	{r4, r5, r6, r7, lr}
 8022822:	b083      	sub	sp, #12
  uint32_t position = 0x00U;
 8022824:	2300      	movs	r3, #0
  assert_param(IS_GPIO_ALL_INSTANCE(GPIOx));
  assert_param(IS_GPIO_PIN(GPIO_Init->Pin));
  assert_param(IS_GPIO_MODE(GPIO_Init->Mode));

  /* Configure the port pins */
  while (((GPIO_Init->Pin) >> position) != 0x00U)
 8022826:	e06f      	b.n	8022908 <HAL_GPIO_Init+0xe8>
      {
        /* Check the Speed parameter */
        assert_param(IS_GPIO_SPEED(GPIO_Init->Speed));

        /* Configure the IO Speed */
        temp = GPIOx->OSPEEDR;
 8022828:	6885      	ldr	r5, [r0, #8]
        temp &= ~(GPIO_OSPEEDR_OSPEED0 << (position * 2U));
 802282a:	005e      	lsls	r6, r3, #1
 802282c:	2403      	movs	r4, #3
 802282e:	40b4      	lsls	r4, r6
 8022830:	ea25 0504 	bic.w	r5, r5, r4
        temp |= (GPIO_Init->Speed << (position * 2U));
 8022834:	68cc      	ldr	r4, [r1, #12]
 8022836:	40b4      	lsls	r4, r6
 8022838:	432c      	orrs	r4, r5
        GPIOx->OSPEEDR = temp;
 802283a:	6084      	str	r4, [r0, #8]

        /* Configure the IO Output Type */
        temp = GPIOx->OTYPER;
 802283c:	6845      	ldr	r5, [r0, #4]
        temp &= ~(GPIO_OTYPER_OT0 << position) ;
 802283e:	ea25 050c 	bic.w	r5, r5, ip
        temp |= (((GPIO_Init->Mode & OUTPUT_TYPE) >> OUTPUT_TYPE_Pos) << position);
 8022842:	684c      	ldr	r4, [r1, #4]
 8022844:	f3c4 1400 	ubfx	r4, r4, #4, #1
 8022848:	409c      	lsls	r4, r3
 802284a:	432c      	orrs	r4, r5
        GPIOx->OTYPER = temp;
 802284c:	6044      	str	r4, [r0, #4]
 802284e:	e06e      	b.n	802292e <HAL_GPIO_Init+0x10e>
      }

      if (((GPIO_Init->Mode & GPIO_MODE) != MODE_ANALOG) ||
          (((GPIO_Init->Mode & GPIO_MODE) == MODE_ANALOG) && (GPIO_Init->Pull != GPIO_PULLUP)))
 8022850:	688c      	ldr	r4, [r1, #8]
      if (((GPIO_Init->Mode & GPIO_MODE) != MODE_ANALOG) ||
 8022852:	2c01      	cmp	r4, #1
 8022854:	d170      	bne.n	8022938 <HAL_GPIO_Init+0x118>
 8022856:	e07e      	b.n	8022956 <HAL_GPIO_Init+0x136>
        /* Check the Alternate function parameters */
        assert_param(IS_GPIO_AF_INSTANCE(GPIOx));
        assert_param(IS_GPIO_AF(GPIO_Init->Alternate));

        /* Configure Alternate function mapped with the current IO */
        temp = GPIOx->AFR[position >> 3U];
 8022858:	08dd      	lsrs	r5, r3, #3
 802285a:	3508      	adds	r5, #8
 802285c:	f850 4025 	ldr.w	r4, [r0, r5, lsl #2]
        temp &= ~(0xFUL << ((position & 0x07U) * 4U));
 8022860:	f003 0c07 	and.w	ip, r3, #7
 8022864:	ea4f 0c8c 	mov.w	ip, ip, lsl #2
 8022868:	f04f 0e0f 	mov.w	lr, #15
 802286c:	fa0e fe0c 	lsl.w	lr, lr, ip
 8022870:	ea24 0e0e 	bic.w	lr, r4, lr
        temp |= ((GPIO_Init->Alternate) << ((position & 0x07U) * 4U));
 8022874:	690c      	ldr	r4, [r1, #16]
 8022876:	fa04 f40c 	lsl.w	r4, r4, ip
 802287a:	ea44 040e 	orr.w	r4, r4, lr
        GPIOx->AFR[position >> 3U] = temp;
 802287e:	f840 4025 	str.w	r4, [r0, r5, lsl #2]
 8022882:	e06e      	b.n	8022962 <HAL_GPIO_Init+0x142>
        /* Enable SYSCFG Clock */
        __HAL_RCC_SYSCFG_CLK_ENABLE();

        temp = SYSCFG->EXTICR[position >> 2U];
        temp &= ~(0x0FUL << (4U * (position & 0x03U)));
        temp |= (GPIO_GET_INDEX(GPIOx) << (4U * (position & 0x03U)));
 8022884:	2409      	movs	r4, #9
 8022886:	e000      	b.n	802288a <HAL_GPIO_Init+0x6a>
 8022888:	2400      	movs	r4, #0
 802288a:	fa04 f40e 	lsl.w	r4, r4, lr
 802288e:	432c      	orrs	r4, r5
        SYSCFG->EXTICR[position >> 2U] = temp;
 8022890:	f10c 0c02 	add.w	ip, ip, #2
 8022894:	4d6a      	ldr	r5, [pc, #424]	@ (8022a40 <HAL_GPIO_Init+0x220>)
 8022896:	f845 402c 	str.w	r4, [r5, ip, lsl #2]

        /* Clear Rising Falling edge configuration */
        temp = EXTI->RTSR1;
 802289a:	f04f 44b0 	mov.w	r4, #1476395008	@ 0x58000000
 802289e:	6825      	ldr	r5, [r4, #0]
        temp &= ~(iocurrent);
 80228a0:	43d4      	mvns	r4, r2
 80228a2:	ea25 0602 	bic.w	r6, r5, r2
        if ((GPIO_Init->Mode & TRIGGER_RISING) != 0x00U)
 80228a6:	684f      	ldr	r7, [r1, #4]
 80228a8:	f417 1f80 	tst.w	r7, #1048576	@ 0x100000
 80228ac:	d001      	beq.n	80228b2 <HAL_GPIO_Init+0x92>
        {
          temp |= iocurrent;
 80228ae:	ea42 0605 	orr.w	r6, r2, r5
        }
        EXTI->RTSR1 = temp;
 80228b2:	f04f 45b0 	mov.w	r5, #1476395008	@ 0x58000000
 80228b6:	602e      	str	r6, [r5, #0]

        temp = EXTI->FTSR1;
 80228b8:	686d      	ldr	r5, [r5, #4]
        temp &= ~(iocurrent);
 80228ba:	ea04 0605 	and.w	r6, r4, r5
        if ((GPIO_Init->Mode & TRIGGER_FALLING) != 0x00U)
 80228be:	684f      	ldr	r7, [r1, #4]
 80228c0:	f417 1f00 	tst.w	r7, #2097152	@ 0x200000
 80228c4:	d001      	beq.n	80228ca <HAL_GPIO_Init+0xaa>
        {
          temp |= iocurrent;
 80228c6:	ea42 0605 	orr.w	r6, r2, r5
        }
        EXTI->FTSR1 = temp;
 80228ca:	f04f 45b0 	mov.w	r5, #1476395008	@ 0x58000000
 80228ce:	606e      	str	r6, [r5, #4]

        temp = EXTI_CurrentCPU->EMR1;
 80228d0:	f8d5 5084 	ldr.w	r5, [r5, #132]	@ 0x84
        temp &= ~(iocurrent);
 80228d4:	ea04 0605 	and.w	r6, r4, r5
        if ((GPIO_Init->Mode & EXTI_EVT) != 0x00U)
 80228d8:	684f      	ldr	r7, [r1, #4]
 80228da:	f417 3f00 	tst.w	r7, #131072	@ 0x20000
 80228de:	d001      	beq.n	80228e4 <HAL_GPIO_Init+0xc4>
        {
          temp |= iocurrent;
 80228e0:	ea42 0605 	orr.w	r6, r2, r5
        }
        EXTI_CurrentCPU->EMR1 = temp;
 80228e4:	f04f 45b0 	mov.w	r5, #1476395008	@ 0x58000000
 80228e8:	f8c5 6084 	str.w	r6, [r5, #132]	@ 0x84

        /* Clear EXTI line configuration */
        temp = EXTI_CurrentCPU->IMR1;
 80228ec:	f8d5 5080 	ldr.w	r5, [r5, #128]	@ 0x80
        temp &= ~(iocurrent);
 80228f0:	402c      	ands	r4, r5
        if ((GPIO_Init->Mode & EXTI_IT) != 0x00U)
 80228f2:	684e      	ldr	r6, [r1, #4]
 80228f4:	f416 3f80 	tst.w	r6, #65536	@ 0x10000
 80228f8:	d001      	beq.n	80228fe <HAL_GPIO_Init+0xde>
        {
          temp |= iocurrent;
 80228fa:	ea42 0405 	orr.w	r4, r2, r5
        }
        EXTI_CurrentCPU->IMR1 = temp;
 80228fe:	f04f 42b0 	mov.w	r2, #1476395008	@ 0x58000000
 8022902:	f8c2 4080 	str.w	r4, [r2, #128]	@ 0x80
      }
    }

    position++;
 8022906:	3301      	adds	r3, #1
  while (((GPIO_Init->Pin) >> position) != 0x00U)
 8022908:	680a      	ldr	r2, [r1, #0]
 802290a:	fa32 f403 	lsrs.w	r4, r2, r3
 802290e:	f000 8095 	beq.w	8022a3c <HAL_GPIO_Init+0x21c>
    iocurrent = (GPIO_Init->Pin) & (1UL << position);
 8022912:	f04f 0c01 	mov.w	ip, #1
 8022916:	fa0c fc03 	lsl.w	ip, ip, r3
    if (iocurrent != 0x00U)
 802291a:	ea1c 0202 	ands.w	r2, ip, r2
 802291e:	d0f2      	beq.n	8022906 <HAL_GPIO_Init+0xe6>
      if (((GPIO_Init->Mode & GPIO_MODE) == MODE_OUTPUT) || ((GPIO_Init->Mode & GPIO_MODE) == MODE_AF))
 8022920:	684c      	ldr	r4, [r1, #4]
 8022922:	f004 0403 	and.w	r4, r4, #3
 8022926:	3c01      	subs	r4, #1
 8022928:	2c01      	cmp	r4, #1
 802292a:	f67f af7d 	bls.w	8022828 <HAL_GPIO_Init+0x8>
      if (((GPIO_Init->Mode & GPIO_MODE) != MODE_ANALOG) ||
 802292e:	684c      	ldr	r4, [r1, #4]
 8022930:	f004 0403 	and.w	r4, r4, #3
 8022934:	2c03      	cmp	r4, #3
 8022936:	d08b      	beq.n	8022850 <HAL_GPIO_Init+0x30>
      temp = GPIOx->PUPDR;
 8022938:	68c4      	ldr	r4, [r0, #12]
      temp &= ~(GPIO_PUPDR_PUPD0 << (position * 2U));
 802293a:	ea4f 0e43 	mov.w	lr, r3, lsl #1
 802293e:	f04f 0c03 	mov.w	ip, #3
 8022942:	fa0c fc0e 	lsl.w	ip, ip, lr
 8022946:	ea24 0c0c 	bic.w	ip, r4, ip
      temp |= ((GPIO_Init->Pull) << (position * 2U));
 802294a:	688c      	ldr	r4, [r1, #8]
 802294c:	fa04 f40e 	lsl.w	r4, r4, lr
 8022950:	ea44 040c 	orr.w	r4, r4, ip
      GPIOx->PUPDR = temp;
 8022954:	60c4      	str	r4, [r0, #12]
      if ((GPIO_Init->Mode & GPIO_MODE) == MODE_AF)
 8022956:	684c      	ldr	r4, [r1, #4]
 8022958:	f004 0403 	and.w	r4, r4, #3
 802295c:	2c02      	cmp	r4, #2
 802295e:	f43f af7b 	beq.w	8022858 <HAL_GPIO_Init+0x38>
      temp = GPIOx->MODER;
 8022962:	6804      	ldr	r4, [r0, #0]
      temp &= ~(GPIO_MODER_MODE0 << (position * 2U));
 8022964:	ea4f 0e43 	mov.w	lr, r3, lsl #1
 8022968:	f04f 0c03 	mov.w	ip, #3
 802296c:	fa0c fc0e 	lsl.w	ip, ip, lr
 8022970:	ea24 0c0c 	bic.w	ip, r4, ip
      temp |= ((GPIO_Init->Mode & GPIO_MODE) << (position * 2U));
 8022974:	684c      	ldr	r4, [r1, #4]
 8022976:	f004 0403 	and.w	r4, r4, #3
 802297a:	fa04 f40e 	lsl.w	r4, r4, lr
 802297e:	ea44 040c 	orr.w	r4, r4, ip
      GPIOx->MODER = temp;
 8022982:	6004      	str	r4, [r0, #0]
      if ((GPIO_Init->Mode & EXTI_MODE) != 0x00U)
 8022984:	684c      	ldr	r4, [r1, #4]
 8022986:	f414 3f40 	tst.w	r4, #196608	@ 0x30000
 802298a:	d0bc      	beq.n	8022906 <HAL_GPIO_Init+0xe6>
        __HAL_RCC_SYSCFG_CLK_ENABLE();
 802298c:	4c2d      	ldr	r4, [pc, #180]	@ (8022a44 <HAL_GPIO_Init+0x224>)
 802298e:	f8d4 50f4 	ldr.w	r5, [r4, #244]	@ 0xf4
 8022992:	f045 0502 	orr.w	r5, r5, #2
 8022996:	f8c4 50f4 	str.w	r5, [r4, #244]	@ 0xf4
 802299a:	f8d4 40f4 	ldr.w	r4, [r4, #244]	@ 0xf4
 802299e:	f004 0402 	and.w	r4, r4, #2
 80229a2:	9401      	str	r4, [sp, #4]
 80229a4:	9c01      	ldr	r4, [sp, #4]
        temp = SYSCFG->EXTICR[position >> 2U];
 80229a6:	ea4f 0c93 	mov.w	ip, r3, lsr #2
 80229aa:	f10c 0502 	add.w	r5, ip, #2
 80229ae:	4c24      	ldr	r4, [pc, #144]	@ (8022a40 <HAL_GPIO_Init+0x220>)
 80229b0:	f854 5025 	ldr.w	r5, [r4, r5, lsl #2]
        temp &= ~(0x0FUL << (4U * (position & 0x03U)));
 80229b4:	f003 0e03 	and.w	lr, r3, #3
 80229b8:	ea4f 0e8e 	mov.w	lr, lr, lsl #2
 80229bc:	240f      	movs	r4, #15
 80229be:	fa04 f40e 	lsl.w	r4, r4, lr
 80229c2:	ea25 0504 	bic.w	r5, r5, r4
        temp |= (GPIO_GET_INDEX(GPIOx) << (4U * (position & 0x03U)));
 80229c6:	4c20      	ldr	r4, [pc, #128]	@ (8022a48 <HAL_GPIO_Init+0x228>)
 80229c8:	42a0      	cmp	r0, r4
 80229ca:	f43f af5d 	beq.w	8022888 <HAL_GPIO_Init+0x68>
 80229ce:	f504 6480 	add.w	r4, r4, #1024	@ 0x400
 80229d2:	42a0      	cmp	r0, r4
 80229d4:	d022      	beq.n	8022a1c <HAL_GPIO_Init+0x1fc>
 80229d6:	f504 6480 	add.w	r4, r4, #1024	@ 0x400
 80229da:	42a0      	cmp	r0, r4
 80229dc:	d020      	beq.n	8022a20 <HAL_GPIO_Init+0x200>
 80229de:	f504 6480 	add.w	r4, r4, #1024	@ 0x400
 80229e2:	42a0      	cmp	r0, r4
 80229e4:	d01e      	beq.n	8022a24 <HAL_GPIO_Init+0x204>
 80229e6:	f504 6480 	add.w	r4, r4, #1024	@ 0x400
 80229ea:	42a0      	cmp	r0, r4
 80229ec:	d01c      	beq.n	8022a28 <HAL_GPIO_Init+0x208>
 80229ee:	f504 6480 	add.w	r4, r4, #1024	@ 0x400
 80229f2:	42a0      	cmp	r0, r4
 80229f4:	d01a      	beq.n	8022a2c <HAL_GPIO_Init+0x20c>
 80229f6:	f504 6480 	add.w	r4, r4, #1024	@ 0x400
 80229fa:	42a0      	cmp	r0, r4
 80229fc:	d018      	beq.n	8022a30 <HAL_GPIO_Init+0x210>
 80229fe:	f504 6480 	add.w	r4, r4, #1024	@ 0x400
 8022a02:	42a0      	cmp	r0, r4
 8022a04:	d016      	beq.n	8022a34 <HAL_GPIO_Init+0x214>
 8022a06:	f504 6480 	add.w	r4, r4, #1024	@ 0x400
 8022a0a:	42a0      	cmp	r0, r4
 8022a0c:	d014      	beq.n	8022a38 <HAL_GPIO_Init+0x218>
 8022a0e:	f504 6480 	add.w	r4, r4, #1024	@ 0x400
 8022a12:	42a0      	cmp	r0, r4
 8022a14:	f43f af36 	beq.w	8022884 <HAL_GPIO_Init+0x64>
 8022a18:	240a      	movs	r4, #10
 8022a1a:	e736      	b.n	802288a <HAL_GPIO_Init+0x6a>
 8022a1c:	2401      	movs	r4, #1
 8022a1e:	e734      	b.n	802288a <HAL_GPIO_Init+0x6a>
 8022a20:	2402      	movs	r4, #2
 8022a22:	e732      	b.n	802288a <HAL_GPIO_Init+0x6a>
 8022a24:	2403      	movs	r4, #3
 8022a26:	e730      	b.n	802288a <HAL_GPIO_Init+0x6a>
 8022a28:	2404      	movs	r4, #4
 8022a2a:	e72e      	b.n	802288a <HAL_GPIO_Init+0x6a>
 8022a2c:	2405      	movs	r4, #5
 8022a2e:	e72c      	b.n	802288a <HAL_GPIO_Init+0x6a>
 8022a30:	2406      	movs	r4, #6
 8022a32:	e72a      	b.n	802288a <HAL_GPIO_Init+0x6a>
 8022a34:	2407      	movs	r4, #7
 8022a36:	e728      	b.n	802288a <HAL_GPIO_Init+0x6a>
 8022a38:	2408      	movs	r4, #8
 8022a3a:	e726      	b.n	802288a <HAL_GPIO_Init+0x6a>
  }
}
 8022a3c:	b003      	add	sp, #12
 8022a3e:	bdf0      	pop	{r4, r5, r6, r7, pc}
 8022a40:	58000400 	.word	0x58000400
 8022a44:	58024400 	.word	0x58024400
 8022a48:	58020000 	.word	0x58020000

08022a4c <HAL_GPIO_WritePin>:
{
  /* Check the parameters */
  assert_param(IS_GPIO_PIN(GPIO_Pin));
  assert_param(IS_GPIO_PIN_ACTION(PinState));

  if (PinState != GPIO_PIN_RESET)
 8022a4c:	b10a      	cbz	r2, 8022a52 <HAL_GPIO_WritePin+0x6>
  {
    GPIOx->BSRR = GPIO_Pin;
 8022a4e:	6181      	str	r1, [r0, #24]
 8022a50:	4770      	bx	lr
  }
  else
  {
    GPIOx->BSRR = (uint32_t)GPIO_Pin << GPIO_NUMBER;
 8022a52:	0409      	lsls	r1, r1, #16
 8022a54:	6181      	str	r1, [r0, #24]
  }
}
 8022a56:	4770      	bx	lr

08022a58 <HAL_PWREx_ConfigSupply>:
  /* Check the parameters */
  assert_param (IS_PWR_SUPPLY (SupplySource));

  /* Check if supply source was configured */
#if defined (PWR_FLAG_SCUEN)
  if (__HAL_PWR_GET_FLAG (PWR_FLAG_SCUEN) == 0U)
 8022a58:	4b13      	ldr	r3, [pc, #76]	@ (8022aa8 <HAL_PWREx_ConfigSupply+0x50>)
 8022a5a:	68db      	ldr	r3, [r3, #12]
 8022a5c:	f013 0f04 	tst.w	r3, #4
 8022a60:	d107      	bne.n	8022a72 <HAL_PWREx_ConfigSupply+0x1a>
#else
  if ((PWR->CR3 & (PWR_CR3_SMPSEN | PWR_CR3_LDOEN | PWR_CR3_BYPASS)) != (PWR_CR3_SMPSEN | PWR_CR3_LDOEN))
#endif /* defined (PWR_FLAG_SCUEN) */
  {
    /* Check supply configuration */
    if ((PWR->CR3 & PWR_SUPPLY_CONFIG_MASK) != SupplySource)
 8022a62:	4b11      	ldr	r3, [pc, #68]	@ (8022aa8 <HAL_PWREx_ConfigSupply+0x50>)
 8022a64:	68db      	ldr	r3, [r3, #12]
 8022a66:	f003 0307 	and.w	r3, r3, #7
 8022a6a:	4283      	cmp	r3, r0
 8022a6c:	d01a      	beq.n	8022aa4 <HAL_PWREx_ConfigSupply+0x4c>
    {
      /* Supply configuration update locked, can't apply a new supply config */
      return HAL_ERROR;
 8022a6e:	2001      	movs	r0, #1
 8022a70:	4770      	bx	lr
{
 8022a72:	b510      	push	{r4, lr}
      return HAL_OK;
    }
  }

  /* Set the power supply configuration */
  MODIFY_REG (PWR->CR3, PWR_SUPPLY_CONFIG_MASK, SupplySource);
 8022a74:	4a0c      	ldr	r2, [pc, #48]	@ (8022aa8 <HAL_PWREx_ConfigSupply+0x50>)
 8022a76:	68d3      	ldr	r3, [r2, #12]
 8022a78:	f023 0307 	bic.w	r3, r3, #7
 8022a7c:	4303      	orrs	r3, r0
 8022a7e:	60d3      	str	r3, [r2, #12]

  /* Get tick */
  tickstart = HAL_GetTick ();
 8022a80:	f7fe fad2 	bl	8021028 <HAL_GetTick>
 8022a84:	4604      	mov	r4, r0

  /* Wait till voltage level flag is set */
  while (__HAL_PWR_GET_FLAG (PWR_FLAG_ACTVOSRDY) == 0U)
 8022a86:	4b08      	ldr	r3, [pc, #32]	@ (8022aa8 <HAL_PWREx_ConfigSupply+0x50>)
 8022a88:	685b      	ldr	r3, [r3, #4]
 8022a8a:	f413 5f00 	tst.w	r3, #8192	@ 0x2000
 8022a8e:	d107      	bne.n	8022aa0 <HAL_PWREx_ConfigSupply+0x48>
  {
    if ((HAL_GetTick () - tickstart) > PWR_FLAG_SETTING_DELAY)
 8022a90:	f7fe faca 	bl	8021028 <HAL_GetTick>
 8022a94:	1b00      	subs	r0, r0, r4
 8022a96:	f5b0 7f7a 	cmp.w	r0, #1000	@ 0x3e8
 8022a9a:	d9f4      	bls.n	8022a86 <HAL_PWREx_ConfigSupply+0x2e>
    {
      return HAL_ERROR;
 8022a9c:	2001      	movs	r0, #1
 8022a9e:	e000      	b.n	8022aa2 <HAL_PWREx_ConfigSupply+0x4a>
      }
    }
  }
#endif /* defined (SMPS) */

  return HAL_OK;
 8022aa0:	2000      	movs	r0, #0
}
 8022aa2:	bd10      	pop	{r4, pc}
      return HAL_OK;
 8022aa4:	2000      	movs	r0, #0
}
 8022aa6:	4770      	bx	lr
 8022aa8:	58024800 	.word	0x58024800

08022aac <HAL_RCC_OscConfig>:
{
  uint32_t tickstart;
  uint32_t temp1_pllckcfg, temp2_pllckcfg;

  /* Check Null pointer */
  if (RCC_OscInitStruct == NULL)
 8022aac:	2800      	cmp	r0, #0
 8022aae:	f000 8339 	beq.w	8023124 <HAL_RCC_OscConfig+0x678>
{
 8022ab2:	b538      	push	{r3, r4, r5, lr}
 8022ab4:	4604      	mov	r4, r0
  }

  /* Check the parameters */
  assert_param(IS_RCC_OSCILLATORTYPE(RCC_OscInitStruct->OscillatorType));
  /*------------------------------- HSE Configuration ------------------------*/
  if (((RCC_OscInitStruct->OscillatorType) & RCC_OSCILLATORTYPE_HSE) == RCC_OSCILLATORTYPE_HSE)
 8022ab6:	6803      	ldr	r3, [r0, #0]
 8022ab8:	f013 0f01 	tst.w	r3, #1
 8022abc:	d025      	beq.n	8022b0a <HAL_RCC_OscConfig+0x5e>
  {
    /* Check the parameters */
    assert_param(IS_RCC_HSE(RCC_OscInitStruct->HSEState));

    const uint32_t temp_sysclksrc = __HAL_RCC_GET_SYSCLK_SOURCE();
 8022abe:	4a94      	ldr	r2, [pc, #592]	@ (8022d10 <HAL_RCC_OscConfig+0x264>)
 8022ac0:	6913      	ldr	r3, [r2, #16]
 8022ac2:	f003 0338 	and.w	r3, r3, #56	@ 0x38
    const uint32_t temp_pllckselr = RCC->PLLCKSELR;
 8022ac6:	6a92      	ldr	r2, [r2, #40]	@ 0x28
    /* When the HSE is used as system clock or clock source for PLL in these cases HSE will not disabled */
    if ((temp_sysclksrc == RCC_CFGR_SWS_HSE) || ((temp_sysclksrc == RCC_CFGR_SWS_PLL1) && ((temp_pllckselr & RCC_PLLCKSELR_PLLSRC) == RCC_PLLCKSELR_PLLSRC_HSE)))
 8022ac8:	2b10      	cmp	r3, #16
 8022aca:	d015      	beq.n	8022af8 <HAL_RCC_OscConfig+0x4c>
 8022acc:	2b18      	cmp	r3, #24
 8022ace:	d00f      	beq.n	8022af0 <HAL_RCC_OscConfig+0x44>
      }
    }
    else
    {
      /* Set the new HSE configuration ---------------------------------------*/
      __HAL_RCC_HSE_CONFIG(RCC_OscInitStruct->HSEState);
 8022ad0:	6863      	ldr	r3, [r4, #4]
 8022ad2:	f5b3 3f80 	cmp.w	r3, #65536	@ 0x10000
 8022ad6:	d03f      	beq.n	8022b58 <HAL_RCC_OscConfig+0xac>
 8022ad8:	2b00      	cmp	r3, #0
 8022ada:	d153      	bne.n	8022b84 <HAL_RCC_OscConfig+0xd8>
 8022adc:	4b8c      	ldr	r3, [pc, #560]	@ (8022d10 <HAL_RCC_OscConfig+0x264>)
 8022ade:	681a      	ldr	r2, [r3, #0]
 8022ae0:	f422 3280 	bic.w	r2, r2, #65536	@ 0x10000
 8022ae4:	601a      	str	r2, [r3, #0]
 8022ae6:	681a      	ldr	r2, [r3, #0]
 8022ae8:	f422 2280 	bic.w	r2, r2, #262144	@ 0x40000
 8022aec:	601a      	str	r2, [r3, #0]
 8022aee:	e038      	b.n	8022b62 <HAL_RCC_OscConfig+0xb6>
    if ((temp_sysclksrc == RCC_CFGR_SWS_HSE) || ((temp_sysclksrc == RCC_CFGR_SWS_PLL1) && ((temp_pllckselr & RCC_PLLCKSELR_PLLSRC) == RCC_PLLCKSELR_PLLSRC_HSE)))
 8022af0:	f002 0203 	and.w	r2, r2, #3
 8022af4:	2a02      	cmp	r2, #2
 8022af6:	d1eb      	bne.n	8022ad0 <HAL_RCC_OscConfig+0x24>
      if ((__HAL_RCC_GET_FLAG(RCC_FLAG_HSERDY) != 0U) && (RCC_OscInitStruct->HSEState == RCC_HSE_OFF))
 8022af8:	4b85      	ldr	r3, [pc, #532]	@ (8022d10 <HAL_RCC_OscConfig+0x264>)
 8022afa:	681b      	ldr	r3, [r3, #0]
 8022afc:	f413 3f00 	tst.w	r3, #131072	@ 0x20000
 8022b00:	d003      	beq.n	8022b0a <HAL_RCC_OscConfig+0x5e>
 8022b02:	6863      	ldr	r3, [r4, #4]
 8022b04:	2b00      	cmp	r3, #0
 8022b06:	f000 830f 	beq.w	8023128 <HAL_RCC_OscConfig+0x67c>
        }
      }
    }
  }
  /*----------------------------- HSI Configuration --------------------------*/
  if (((RCC_OscInitStruct->OscillatorType) & RCC_OSCILLATORTYPE_HSI) == RCC_OSCILLATORTYPE_HSI)
 8022b0a:	6823      	ldr	r3, [r4, #0]
 8022b0c:	f013 0f02 	tst.w	r3, #2
 8022b10:	f000 80a1 	beq.w	8022c56 <HAL_RCC_OscConfig+0x1aa>
    /* Check the parameters */
    assert_param(IS_RCC_HSI(RCC_OscInitStruct->HSIState));
    assert_param(IS_RCC_HSICALIBRATION_VALUE(RCC_OscInitStruct->HSICalibrationValue));

    /* When the HSI is used as system clock it will not be disabled */
    const uint32_t temp_sysclksrc = __HAL_RCC_GET_SYSCLK_SOURCE();
 8022b14:	4a7e      	ldr	r2, [pc, #504]	@ (8022d10 <HAL_RCC_OscConfig+0x264>)
 8022b16:	6913      	ldr	r3, [r2, #16]
    const uint32_t temp_pllckselr = RCC->PLLCKSELR;
 8022b18:	6a92      	ldr	r2, [r2, #40]	@ 0x28
    if ((temp_sysclksrc == RCC_CFGR_SWS_HSI) || ((temp_sysclksrc == RCC_CFGR_SWS_PLL1) && ((temp_pllckselr & RCC_PLLCKSELR_PLLSRC) == RCC_PLLCKSELR_PLLSRC_HSI)))
 8022b1a:	f013 0338 	ands.w	r3, r3, #56	@ 0x38
 8022b1e:	d05a      	beq.n	8022bd6 <HAL_RCC_OscConfig+0x12a>
 8022b20:	2b18      	cmp	r3, #24
 8022b22:	d055      	beq.n	8022bd0 <HAL_RCC_OscConfig+0x124>
    }

    else
    {
      /* Check the HSI State */
      if ((RCC_OscInitStruct->HSIState) != RCC_HSI_OFF)
 8022b24:	68e3      	ldr	r3, [r4, #12]
 8022b26:	2b00      	cmp	r3, #0
 8022b28:	f000 80de 	beq.w	8022ce8 <HAL_RCC_OscConfig+0x23c>
      {
        /* Enable the Internal High Speed oscillator (HSI, HSIDIV2,HSIDIV4, or HSIDIV8) */
        __HAL_RCC_HSI_CONFIG(RCC_OscInitStruct->HSIState);
 8022b2c:	4978      	ldr	r1, [pc, #480]	@ (8022d10 <HAL_RCC_OscConfig+0x264>)
 8022b2e:	680a      	ldr	r2, [r1, #0]
 8022b30:	f022 0219 	bic.w	r2, r2, #25
 8022b34:	4313      	orrs	r3, r2
 8022b36:	600b      	str	r3, [r1, #0]

        /* Get Start Tick*/
        tickstart = HAL_GetTick();
 8022b38:	f7fe fa76 	bl	8021028 <HAL_GetTick>
 8022b3c:	4605      	mov	r5, r0

        /* Wait till HSI is ready */
        while (__HAL_RCC_GET_FLAG(RCC_FLAG_HSIRDY) == 0U)
 8022b3e:	4b74      	ldr	r3, [pc, #464]	@ (8022d10 <HAL_RCC_OscConfig+0x264>)
 8022b40:	681b      	ldr	r3, [r3, #0]
 8022b42:	f013 0f04 	tst.w	r3, #4
 8022b46:	f040 80ad 	bne.w	8022ca4 <HAL_RCC_OscConfig+0x1f8>
        {
          if ((HAL_GetTick() - tickstart) > HSI_TIMEOUT_VALUE)
 8022b4a:	f7fe fa6d 	bl	8021028 <HAL_GetTick>
 8022b4e:	1b40      	subs	r0, r0, r5
 8022b50:	2802      	cmp	r0, #2
 8022b52:	d9f4      	bls.n	8022b3e <HAL_RCC_OscConfig+0x92>
          {
            return HAL_TIMEOUT;
 8022b54:	2003      	movs	r0, #3
 8022b56:	e2ee      	b.n	8023136 <HAL_RCC_OscConfig+0x68a>
      __HAL_RCC_HSE_CONFIG(RCC_OscInitStruct->HSEState);
 8022b58:	4a6d      	ldr	r2, [pc, #436]	@ (8022d10 <HAL_RCC_OscConfig+0x264>)
 8022b5a:	6813      	ldr	r3, [r2, #0]
 8022b5c:	f443 3380 	orr.w	r3, r3, #65536	@ 0x10000
 8022b60:	6013      	str	r3, [r2, #0]
      if (RCC_OscInitStruct->HSEState != RCC_HSE_OFF)
 8022b62:	6863      	ldr	r3, [r4, #4]
 8022b64:	b32b      	cbz	r3, 8022bb2 <HAL_RCC_OscConfig+0x106>
        tickstart = HAL_GetTick();
 8022b66:	f7fe fa5f 	bl	8021028 <HAL_GetTick>
 8022b6a:	4605      	mov	r5, r0
        while (__HAL_RCC_GET_FLAG(RCC_FLAG_HSERDY) == 0U)
 8022b6c:	4b68      	ldr	r3, [pc, #416]	@ (8022d10 <HAL_RCC_OscConfig+0x264>)
 8022b6e:	681b      	ldr	r3, [r3, #0]
 8022b70:	f413 3f00 	tst.w	r3, #131072	@ 0x20000
 8022b74:	d1c9      	bne.n	8022b0a <HAL_RCC_OscConfig+0x5e>
          if ((uint32_t)(HAL_GetTick() - tickstart) > HSE_TIMEOUT_VALUE)
 8022b76:	f7fe fa57 	bl	8021028 <HAL_GetTick>
 8022b7a:	1b40      	subs	r0, r0, r5
 8022b7c:	2864      	cmp	r0, #100	@ 0x64
 8022b7e:	d9f5      	bls.n	8022b6c <HAL_RCC_OscConfig+0xc0>
            return HAL_TIMEOUT;
 8022b80:	2003      	movs	r0, #3
 8022b82:	e2d8      	b.n	8023136 <HAL_RCC_OscConfig+0x68a>
      __HAL_RCC_HSE_CONFIG(RCC_OscInitStruct->HSEState);
 8022b84:	f5b3 2fa0 	cmp.w	r3, #327680	@ 0x50000
 8022b88:	d009      	beq.n	8022b9e <HAL_RCC_OscConfig+0xf2>
 8022b8a:	4b61      	ldr	r3, [pc, #388]	@ (8022d10 <HAL_RCC_OscConfig+0x264>)
 8022b8c:	681a      	ldr	r2, [r3, #0]
 8022b8e:	f422 3280 	bic.w	r2, r2, #65536	@ 0x10000
 8022b92:	601a      	str	r2, [r3, #0]
 8022b94:	681a      	ldr	r2, [r3, #0]
 8022b96:	f422 2280 	bic.w	r2, r2, #262144	@ 0x40000
 8022b9a:	601a      	str	r2, [r3, #0]
 8022b9c:	e7e1      	b.n	8022b62 <HAL_RCC_OscConfig+0xb6>
 8022b9e:	4b5c      	ldr	r3, [pc, #368]	@ (8022d10 <HAL_RCC_OscConfig+0x264>)
 8022ba0:	681a      	ldr	r2, [r3, #0]
 8022ba2:	f442 2280 	orr.w	r2, r2, #262144	@ 0x40000
 8022ba6:	601a      	str	r2, [r3, #0]
 8022ba8:	681a      	ldr	r2, [r3, #0]
 8022baa:	f442 3280 	orr.w	r2, r2, #65536	@ 0x10000
 8022bae:	601a      	str	r2, [r3, #0]
 8022bb0:	e7d7      	b.n	8022b62 <HAL_RCC_OscConfig+0xb6>
        tickstart = HAL_GetTick();
 8022bb2:	f7fe fa39 	bl	8021028 <HAL_GetTick>
 8022bb6:	4605      	mov	r5, r0
        while (__HAL_RCC_GET_FLAG(RCC_FLAG_HSERDY) != 0U)
 8022bb8:	4b55      	ldr	r3, [pc, #340]	@ (8022d10 <HAL_RCC_OscConfig+0x264>)
 8022bba:	681b      	ldr	r3, [r3, #0]
 8022bbc:	f413 3f00 	tst.w	r3, #131072	@ 0x20000
 8022bc0:	d0a3      	beq.n	8022b0a <HAL_RCC_OscConfig+0x5e>
          if ((uint32_t)(HAL_GetTick() - tickstart) > HSE_TIMEOUT_VALUE)
 8022bc2:	f7fe fa31 	bl	8021028 <HAL_GetTick>
 8022bc6:	1b40      	subs	r0, r0, r5
 8022bc8:	2864      	cmp	r0, #100	@ 0x64
 8022bca:	d9f5      	bls.n	8022bb8 <HAL_RCC_OscConfig+0x10c>
            return HAL_TIMEOUT;
 8022bcc:	2003      	movs	r0, #3
 8022bce:	e2b2      	b.n	8023136 <HAL_RCC_OscConfig+0x68a>
    if ((temp_sysclksrc == RCC_CFGR_SWS_HSI) || ((temp_sysclksrc == RCC_CFGR_SWS_PLL1) && ((temp_pllckselr & RCC_PLLCKSELR_PLLSRC) == RCC_PLLCKSELR_PLLSRC_HSI)))
 8022bd0:	f012 0f03 	tst.w	r2, #3
 8022bd4:	d1a6      	bne.n	8022b24 <HAL_RCC_OscConfig+0x78>
      if ((__HAL_RCC_GET_FLAG(RCC_FLAG_HSIRDY) != 0U) && (RCC_OscInitStruct->HSIState == RCC_HSI_OFF))
 8022bd6:	4b4e      	ldr	r3, [pc, #312]	@ (8022d10 <HAL_RCC_OscConfig+0x264>)
 8022bd8:	681b      	ldr	r3, [r3, #0]
 8022bda:	f013 0f04 	tst.w	r3, #4
 8022bde:	d003      	beq.n	8022be8 <HAL_RCC_OscConfig+0x13c>
 8022be0:	68e3      	ldr	r3, [r4, #12]
 8022be2:	2b00      	cmp	r3, #0
 8022be4:	f000 82a2 	beq.w	802312c <HAL_RCC_OscConfig+0x680>
        __HAL_RCC_HSI_CONFIG(RCC_OscInitStruct->HSIState);
 8022be8:	4a49      	ldr	r2, [pc, #292]	@ (8022d10 <HAL_RCC_OscConfig+0x264>)
 8022bea:	6813      	ldr	r3, [r2, #0]
 8022bec:	f023 0319 	bic.w	r3, r3, #25
 8022bf0:	68e1      	ldr	r1, [r4, #12]
 8022bf2:	430b      	orrs	r3, r1
 8022bf4:	6013      	str	r3, [r2, #0]
        tickstart = HAL_GetTick();
 8022bf6:	f7fe fa17 	bl	8021028 <HAL_GetTick>
 8022bfa:	4605      	mov	r5, r0
        while (__HAL_RCC_GET_FLAG(RCC_FLAG_HSIRDY) == 0U)
 8022bfc:	4b44      	ldr	r3, [pc, #272]	@ (8022d10 <HAL_RCC_OscConfig+0x264>)
 8022bfe:	681b      	ldr	r3, [r3, #0]
 8022c00:	f013 0f04 	tst.w	r3, #4
 8022c04:	d106      	bne.n	8022c14 <HAL_RCC_OscConfig+0x168>
          if ((uint32_t)(HAL_GetTick() - tickstart) > HSI_TIMEOUT_VALUE)
 8022c06:	f7fe fa0f 	bl	8021028 <HAL_GetTick>
 8022c0a:	1b40      	subs	r0, r0, r5
 8022c0c:	2802      	cmp	r0, #2
 8022c0e:	d9f5      	bls.n	8022bfc <HAL_RCC_OscConfig+0x150>
            return HAL_TIMEOUT;
 8022c10:	2003      	movs	r0, #3
 8022c12:	e290      	b.n	8023136 <HAL_RCC_OscConfig+0x68a>
        __HAL_RCC_HSI_CALIBRATIONVALUE_ADJUST(RCC_OscInitStruct->HSICalibrationValue);
 8022c14:	f7fe fa0e 	bl	8021034 <HAL_GetREVID>
 8022c18:	f241 0303 	movw	r3, #4099	@ 0x1003
 8022c1c:	4298      	cmp	r0, r3
 8022c1e:	d812      	bhi.n	8022c46 <HAL_RCC_OscConfig+0x19a>
 8022c20:	6922      	ldr	r2, [r4, #16]
 8022c22:	2a40      	cmp	r2, #64	@ 0x40
 8022c24:	d007      	beq.n	8022c36 <HAL_RCC_OscConfig+0x18a>
 8022c26:	493a      	ldr	r1, [pc, #232]	@ (8022d10 <HAL_RCC_OscConfig+0x264>)
 8022c28:	684b      	ldr	r3, [r1, #4]
 8022c2a:	f423 337c 	bic.w	r3, r3, #258048	@ 0x3f000
 8022c2e:	ea43 3302 	orr.w	r3, r3, r2, lsl #12
 8022c32:	604b      	str	r3, [r1, #4]
 8022c34:	e00f      	b.n	8022c56 <HAL_RCC_OscConfig+0x1aa>
 8022c36:	4a36      	ldr	r2, [pc, #216]	@ (8022d10 <HAL_RCC_OscConfig+0x264>)
 8022c38:	6853      	ldr	r3, [r2, #4]
 8022c3a:	f423 337c 	bic.w	r3, r3, #258048	@ 0x3f000
 8022c3e:	f443 3300 	orr.w	r3, r3, #131072	@ 0x20000
 8022c42:	6053      	str	r3, [r2, #4]
 8022c44:	e007      	b.n	8022c56 <HAL_RCC_OscConfig+0x1aa>
 8022c46:	4a32      	ldr	r2, [pc, #200]	@ (8022d10 <HAL_RCC_OscConfig+0x264>)
 8022c48:	6853      	ldr	r3, [r2, #4]
 8022c4a:	f023 43fe 	bic.w	r3, r3, #2130706432	@ 0x7f000000
 8022c4e:	6921      	ldr	r1, [r4, #16]
 8022c50:	ea43 6301 	orr.w	r3, r3, r1, lsl #24
 8022c54:	6053      	str	r3, [r2, #4]
        }
      }
    }
  }
  /*----------------------------- CSI Configuration --------------------------*/
  if (((RCC_OscInitStruct->OscillatorType) & RCC_OSCILLATORTYPE_CSI) == RCC_OSCILLATORTYPE_CSI)
 8022c56:	6823      	ldr	r3, [r4, #0]
 8022c58:	f013 0f10 	tst.w	r3, #16
 8022c5c:	f000 8088 	beq.w	8022d70 <HAL_RCC_OscConfig+0x2c4>
    /* Check the parameters */
    assert_param(IS_RCC_CSI(RCC_OscInitStruct->CSIState));
    assert_param(IS_RCC_CSICALIBRATION_VALUE(RCC_OscInitStruct->CSICalibrationValue));

    /* When the CSI is used as system clock it will not disabled */
    const uint32_t temp_sysclksrc = __HAL_RCC_GET_SYSCLK_SOURCE();
 8022c60:	4a2b      	ldr	r2, [pc, #172]	@ (8022d10 <HAL_RCC_OscConfig+0x264>)
 8022c62:	6913      	ldr	r3, [r2, #16]
 8022c64:	f003 0338 	and.w	r3, r3, #56	@ 0x38
    const uint32_t temp_pllckselr = RCC->PLLCKSELR;
 8022c68:	6a92      	ldr	r2, [r2, #40]	@ 0x28
    if ((temp_sysclksrc == RCC_CFGR_SWS_CSI) || ((temp_sysclksrc == RCC_CFGR_SWS_PLL1) && ((temp_pllckselr & RCC_PLLCKSELR_PLLSRC) == RCC_PLLCKSELR_PLLSRC_CSI)))
 8022c6a:	2b08      	cmp	r3, #8
 8022c6c:	d056      	beq.n	8022d1c <HAL_RCC_OscConfig+0x270>
 8022c6e:	2b18      	cmp	r3, #24
 8022c70:	d050      	beq.n	8022d14 <HAL_RCC_OscConfig+0x268>
      }
    }
    else
    {
      /* Check the CSI State */
      if ((RCC_OscInitStruct->CSIState) != RCC_CSI_OFF)
 8022c72:	69e3      	ldr	r3, [r4, #28]
 8022c74:	2b00      	cmp	r3, #0
 8022c76:	f000 80b8 	beq.w	8022dea <HAL_RCC_OscConfig+0x33e>
      {
        /* Enable the Internal High Speed oscillator (CSI). */
        __HAL_RCC_CSI_ENABLE();
 8022c7a:	4a25      	ldr	r2, [pc, #148]	@ (8022d10 <HAL_RCC_OscConfig+0x264>)
 8022c7c:	6813      	ldr	r3, [r2, #0]
 8022c7e:	f043 0380 	orr.w	r3, r3, #128	@ 0x80
 8022c82:	6013      	str	r3, [r2, #0]

        /* Get Start Tick*/
        tickstart = HAL_GetTick();
 8022c84:	f7fe f9d0 	bl	8021028 <HAL_GetTick>
 8022c88:	4605      	mov	r5, r0

        /* Wait till CSI is ready */
        while (__HAL_RCC_GET_FLAG(RCC_FLAG_CSIRDY) == 0U)
 8022c8a:	4b21      	ldr	r3, [pc, #132]	@ (8022d10 <HAL_RCC_OscConfig+0x264>)
 8022c8c:	681b      	ldr	r3, [r3, #0]
 8022c8e:	f413 7f80 	tst.w	r3, #256	@ 0x100
 8022c92:	f040 8088 	bne.w	8022da6 <HAL_RCC_OscConfig+0x2fa>
        {
          if ((HAL_GetTick() - tickstart) > CSI_TIMEOUT_VALUE)
 8022c96:	f7fe f9c7 	bl	8021028 <HAL_GetTick>
 8022c9a:	1b40      	subs	r0, r0, r5
 8022c9c:	2802      	cmp	r0, #2
 8022c9e:	d9f4      	bls.n	8022c8a <HAL_RCC_OscConfig+0x1de>
          {
            return HAL_TIMEOUT;
 8022ca0:	2003      	movs	r0, #3
 8022ca2:	e248      	b.n	8023136 <HAL_RCC_OscConfig+0x68a>
        __HAL_RCC_HSI_CALIBRATIONVALUE_ADJUST(RCC_OscInitStruct->HSICalibrationValue);
 8022ca4:	f7fe f9c6 	bl	8021034 <HAL_GetREVID>
 8022ca8:	f241 0303 	movw	r3, #4099	@ 0x1003
 8022cac:	4298      	cmp	r0, r3
 8022cae:	d812      	bhi.n	8022cd6 <HAL_RCC_OscConfig+0x22a>
 8022cb0:	6922      	ldr	r2, [r4, #16]
 8022cb2:	2a40      	cmp	r2, #64	@ 0x40
 8022cb4:	d007      	beq.n	8022cc6 <HAL_RCC_OscConfig+0x21a>
 8022cb6:	4916      	ldr	r1, [pc, #88]	@ (8022d10 <HAL_RCC_OscConfig+0x264>)
 8022cb8:	684b      	ldr	r3, [r1, #4]
 8022cba:	f423 337c 	bic.w	r3, r3, #258048	@ 0x3f000
 8022cbe:	ea43 3302 	orr.w	r3, r3, r2, lsl #12
 8022cc2:	604b      	str	r3, [r1, #4]
 8022cc4:	e7c7      	b.n	8022c56 <HAL_RCC_OscConfig+0x1aa>
 8022cc6:	4a12      	ldr	r2, [pc, #72]	@ (8022d10 <HAL_RCC_OscConfig+0x264>)
 8022cc8:	6853      	ldr	r3, [r2, #4]
 8022cca:	f423 337c 	bic.w	r3, r3, #258048	@ 0x3f000
 8022cce:	f443 3300 	orr.w	r3, r3, #131072	@ 0x20000
 8022cd2:	6053      	str	r3, [r2, #4]
 8022cd4:	e7bf      	b.n	8022c56 <HAL_RCC_OscConfig+0x1aa>
 8022cd6:	4a0e      	ldr	r2, [pc, #56]	@ (8022d10 <HAL_RCC_OscConfig+0x264>)
 8022cd8:	6853      	ldr	r3, [r2, #4]
 8022cda:	f023 43fe 	bic.w	r3, r3, #2130706432	@ 0x7f000000
 8022cde:	6921      	ldr	r1, [r4, #16]
 8022ce0:	ea43 6301 	orr.w	r3, r3, r1, lsl #24
 8022ce4:	6053      	str	r3, [r2, #4]
 8022ce6:	e7b6      	b.n	8022c56 <HAL_RCC_OscConfig+0x1aa>
        __HAL_RCC_HSI_DISABLE();
 8022ce8:	4a09      	ldr	r2, [pc, #36]	@ (8022d10 <HAL_RCC_OscConfig+0x264>)
 8022cea:	6813      	ldr	r3, [r2, #0]
 8022cec:	f023 0301 	bic.w	r3, r3, #1
 8022cf0:	6013      	str	r3, [r2, #0]
        tickstart = HAL_GetTick();
 8022cf2:	f7fe f999 	bl	8021028 <HAL_GetTick>
 8022cf6:	4605      	mov	r5, r0
        while (__HAL_RCC_GET_FLAG(RCC_FLAG_HSIRDY) != 0U)
 8022cf8:	4b05      	ldr	r3, [pc, #20]	@ (8022d10 <HAL_RCC_OscConfig+0x264>)
 8022cfa:	681b      	ldr	r3, [r3, #0]
 8022cfc:	f013 0f04 	tst.w	r3, #4
 8022d00:	d0a9      	beq.n	8022c56 <HAL_RCC_OscConfig+0x1aa>
          if ((HAL_GetTick() - tickstart) > HSI_TIMEOUT_VALUE)
 8022d02:	f7fe f991 	bl	8021028 <HAL_GetTick>
 8022d06:	1b40      	subs	r0, r0, r5
 8022d08:	2802      	cmp	r0, #2
 8022d0a:	d9f5      	bls.n	8022cf8 <HAL_RCC_OscConfig+0x24c>
            return HAL_TIMEOUT;
 8022d0c:	2003      	movs	r0, #3
 8022d0e:	e212      	b.n	8023136 <HAL_RCC_OscConfig+0x68a>
 8022d10:	58024400 	.word	0x58024400
    if ((temp_sysclksrc == RCC_CFGR_SWS_CSI) || ((temp_sysclksrc == RCC_CFGR_SWS_PLL1) && ((temp_pllckselr & RCC_PLLCKSELR_PLLSRC) == RCC_PLLCKSELR_PLLSRC_CSI)))
 8022d14:	f002 0203 	and.w	r2, r2, #3
 8022d18:	2a01      	cmp	r2, #1
 8022d1a:	d1aa      	bne.n	8022c72 <HAL_RCC_OscConfig+0x1c6>
      if ((__HAL_RCC_GET_FLAG(RCC_FLAG_CSIRDY) != 0U) && (RCC_OscInitStruct->CSIState != RCC_CSI_ON))
 8022d1c:	4ba1      	ldr	r3, [pc, #644]	@ (8022fa4 <HAL_RCC_OscConfig+0x4f8>)
 8022d1e:	681b      	ldr	r3, [r3, #0]
 8022d20:	f413 7f80 	tst.w	r3, #256	@ 0x100
 8022d24:	d003      	beq.n	8022d2e <HAL_RCC_OscConfig+0x282>
 8022d26:	69e3      	ldr	r3, [r4, #28]
 8022d28:	2b80      	cmp	r3, #128	@ 0x80
 8022d2a:	f040 8201 	bne.w	8023130 <HAL_RCC_OscConfig+0x684>
        __HAL_RCC_CSI_CALIBRATIONVALUE_ADJUST(RCC_OscInitStruct->CSICalibrationValue);
 8022d2e:	f7fe f981 	bl	8021034 <HAL_GetREVID>
 8022d32:	f241 0303 	movw	r3, #4099	@ 0x1003
 8022d36:	4298      	cmp	r0, r3
 8022d38:	d812      	bhi.n	8022d60 <HAL_RCC_OscConfig+0x2b4>
 8022d3a:	6a22      	ldr	r2, [r4, #32]
 8022d3c:	2a20      	cmp	r2, #32
 8022d3e:	d007      	beq.n	8022d50 <HAL_RCC_OscConfig+0x2a4>
 8022d40:	4998      	ldr	r1, [pc, #608]	@ (8022fa4 <HAL_RCC_OscConfig+0x4f8>)
 8022d42:	684b      	ldr	r3, [r1, #4]
 8022d44:	f023 43f8 	bic.w	r3, r3, #2080374784	@ 0x7c000000
 8022d48:	ea43 6382 	orr.w	r3, r3, r2, lsl #26
 8022d4c:	604b      	str	r3, [r1, #4]
 8022d4e:	e00f      	b.n	8022d70 <HAL_RCC_OscConfig+0x2c4>
 8022d50:	4a94      	ldr	r2, [pc, #592]	@ (8022fa4 <HAL_RCC_OscConfig+0x4f8>)
 8022d52:	6853      	ldr	r3, [r2, #4]
 8022d54:	f023 43f8 	bic.w	r3, r3, #2080374784	@ 0x7c000000
 8022d58:	f043 4380 	orr.w	r3, r3, #1073741824	@ 0x40000000
 8022d5c:	6053      	str	r3, [r2, #4]
 8022d5e:	e007      	b.n	8022d70 <HAL_RCC_OscConfig+0x2c4>
 8022d60:	4a90      	ldr	r2, [pc, #576]	@ (8022fa4 <HAL_RCC_OscConfig+0x4f8>)
 8022d62:	68d3      	ldr	r3, [r2, #12]
 8022d64:	f023 537c 	bic.w	r3, r3, #1056964608	@ 0x3f000000
 8022d68:	6a21      	ldr	r1, [r4, #32]
 8022d6a:	ea43 6301 	orr.w	r3, r3, r1, lsl #24
 8022d6e:	60d3      	str	r3, [r2, #12]
        }
      }
    }
  }
  /*------------------------------ LSI Configuration -------------------------*/
  if (((RCC_OscInitStruct->OscillatorType) & RCC_OSCILLATORTYPE_LSI) == RCC_OSCILLATORTYPE_LSI)
 8022d70:	6823      	ldr	r3, [r4, #0]
 8022d72:	f013 0f08 	tst.w	r3, #8
 8022d76:	d060      	beq.n	8022e3a <HAL_RCC_OscConfig+0x38e>
  {
    /* Check the parameters */
    assert_param(IS_RCC_LSI(RCC_OscInitStruct->LSIState));

    /* Check the LSI State */
    if ((RCC_OscInitStruct->LSIState) != RCC_LSI_OFF)
 8022d78:	6963      	ldr	r3, [r4, #20]
 8022d7a:	2b00      	cmp	r3, #0
 8022d7c:	d049      	beq.n	8022e12 <HAL_RCC_OscConfig+0x366>
    {
      /* Enable the Internal Low Speed oscillator (LSI). */
      __HAL_RCC_LSI_ENABLE();
 8022d7e:	4a89      	ldr	r2, [pc, #548]	@ (8022fa4 <HAL_RCC_OscConfig+0x4f8>)
 8022d80:	6f53      	ldr	r3, [r2, #116]	@ 0x74
 8022d82:	f043 0301 	orr.w	r3, r3, #1
 8022d86:	6753      	str	r3, [r2, #116]	@ 0x74

      /* Get Start Tick*/
      tickstart = HAL_GetTick();
 8022d88:	f7fe f94e 	bl	8021028 <HAL_GetTick>
 8022d8c:	4605      	mov	r5, r0

      /* Wait till LSI is ready */
      while (__HAL_RCC_GET_FLAG(RCC_FLAG_LSIRDY) == 0U)
 8022d8e:	4b85      	ldr	r3, [pc, #532]	@ (8022fa4 <HAL_RCC_OscConfig+0x4f8>)
 8022d90:	6f5b      	ldr	r3, [r3, #116]	@ 0x74
 8022d92:	f013 0f02 	tst.w	r3, #2
 8022d96:	d150      	bne.n	8022e3a <HAL_RCC_OscConfig+0x38e>
      {
        if ((HAL_GetTick() - tickstart) > LSI_TIMEOUT_VALUE)
 8022d98:	f7fe f946 	bl	8021028 <HAL_GetTick>
 8022d9c:	1b40      	subs	r0, r0, r5
 8022d9e:	2802      	cmp	r0, #2
 8022da0:	d9f5      	bls.n	8022d8e <HAL_RCC_OscConfig+0x2e2>
        {
          return HAL_TIMEOUT;
 8022da2:	2003      	movs	r0, #3
 8022da4:	e1c7      	b.n	8023136 <HAL_RCC_OscConfig+0x68a>
        __HAL_RCC_CSI_CALIBRATIONVALUE_ADJUST(RCC_OscInitStruct->CSICalibrationValue);
 8022da6:	f7fe f945 	bl	8021034 <HAL_GetREVID>
 8022daa:	f241 0303 	movw	r3, #4099	@ 0x1003
 8022dae:	4298      	cmp	r0, r3
 8022db0:	d812      	bhi.n	8022dd8 <HAL_RCC_OscConfig+0x32c>
 8022db2:	6a22      	ldr	r2, [r4, #32]
 8022db4:	2a20      	cmp	r2, #32
 8022db6:	d007      	beq.n	8022dc8 <HAL_RCC_OscConfig+0x31c>
 8022db8:	497a      	ldr	r1, [pc, #488]	@ (8022fa4 <HAL_RCC_OscConfig+0x4f8>)
 8022dba:	684b      	ldr	r3, [r1, #4]
 8022dbc:	f023 43f8 	bic.w	r3, r3, #2080374784	@ 0x7c000000
 8022dc0:	ea43 6382 	orr.w	r3, r3, r2, lsl #26
 8022dc4:	604b      	str	r3, [r1, #4]
 8022dc6:	e7d3      	b.n	8022d70 <HAL_RCC_OscConfig+0x2c4>
 8022dc8:	4a76      	ldr	r2, [pc, #472]	@ (8022fa4 <HAL_RCC_OscConfig+0x4f8>)
 8022dca:	6853      	ldr	r3, [r2, #4]
 8022dcc:	f023 43f8 	bic.w	r3, r3, #2080374784	@ 0x7c000000
 8022dd0:	f043 4380 	orr.w	r3, r3, #1073741824	@ 0x40000000
 8022dd4:	6053      	str	r3, [r2, #4]
 8022dd6:	e7cb      	b.n	8022d70 <HAL_RCC_OscConfig+0x2c4>
 8022dd8:	4a72      	ldr	r2, [pc, #456]	@ (8022fa4 <HAL_RCC_OscConfig+0x4f8>)
 8022dda:	68d3      	ldr	r3, [r2, #12]
 8022ddc:	f023 537c 	bic.w	r3, r3, #1056964608	@ 0x3f000000
 8022de0:	6a21      	ldr	r1, [r4, #32]
 8022de2:	ea43 6301 	orr.w	r3, r3, r1, lsl #24
 8022de6:	60d3      	str	r3, [r2, #12]
 8022de8:	e7c2      	b.n	8022d70 <HAL_RCC_OscConfig+0x2c4>
        __HAL_RCC_CSI_DISABLE();
 8022dea:	4a6e      	ldr	r2, [pc, #440]	@ (8022fa4 <HAL_RCC_OscConfig+0x4f8>)
 8022dec:	6813      	ldr	r3, [r2, #0]
 8022dee:	f023 0380 	bic.w	r3, r3, #128	@ 0x80
 8022df2:	6013      	str	r3, [r2, #0]
        tickstart = HAL_GetTick();
 8022df4:	f7fe f918 	bl	8021028 <HAL_GetTick>
 8022df8:	4605      	mov	r5, r0
        while (__HAL_RCC_GET_FLAG(RCC_FLAG_CSIRDY) != 0U)
 8022dfa:	4b6a      	ldr	r3, [pc, #424]	@ (8022fa4 <HAL_RCC_OscConfig+0x4f8>)
 8022dfc:	681b      	ldr	r3, [r3, #0]
 8022dfe:	f413 7f80 	tst.w	r3, #256	@ 0x100
 8022e02:	d0b5      	beq.n	8022d70 <HAL_RCC_OscConfig+0x2c4>
          if ((HAL_GetTick() - tickstart) > CSI_TIMEOUT_VALUE)
 8022e04:	f7fe f910 	bl	8021028 <HAL_GetTick>
 8022e08:	1b40      	subs	r0, r0, r5
 8022e0a:	2802      	cmp	r0, #2
 8022e0c:	d9f5      	bls.n	8022dfa <HAL_RCC_OscConfig+0x34e>
            return HAL_TIMEOUT;
 8022e0e:	2003      	movs	r0, #3
 8022e10:	e191      	b.n	8023136 <HAL_RCC_OscConfig+0x68a>
      }
    }
    else
    {
      /* Disable the Internal Low Speed oscillator (LSI). */
      __HAL_RCC_LSI_DISABLE();
 8022e12:	4a64      	ldr	r2, [pc, #400]	@ (8022fa4 <HAL_RCC_OscConfig+0x4f8>)
 8022e14:	6f53      	ldr	r3, [r2, #116]	@ 0x74
 8022e16:	f023 0301 	bic.w	r3, r3, #1
 8022e1a:	6753      	str	r3, [r2, #116]	@ 0x74

      /* Get Start Tick*/
      tickstart = HAL_GetTick();
 8022e1c:	f7fe f904 	bl	8021028 <HAL_GetTick>
 8022e20:	4605      	mov	r5, r0

      /* Wait till LSI is ready */
      while (__HAL_RCC_GET_FLAG(RCC_FLAG_LSIRDY) != 0U)
 8022e22:	4b60      	ldr	r3, [pc, #384]	@ (8022fa4 <HAL_RCC_OscConfig+0x4f8>)
 8022e24:	6f5b      	ldr	r3, [r3, #116]	@ 0x74
 8022e26:	f013 0f02 	tst.w	r3, #2
 8022e2a:	d006      	beq.n	8022e3a <HAL_RCC_OscConfig+0x38e>
      {
        if ((HAL_GetTick() - tickstart) > LSI_TIMEOUT_VALUE)
 8022e2c:	f7fe f8fc 	bl	8021028 <HAL_GetTick>
 8022e30:	1b40      	subs	r0, r0, r5
 8022e32:	2802      	cmp	r0, #2
 8022e34:	d9f5      	bls.n	8022e22 <HAL_RCC_OscConfig+0x376>
        {
          return HAL_TIMEOUT;
 8022e36:	2003      	movs	r0, #3
 8022e38:	e17d      	b.n	8023136 <HAL_RCC_OscConfig+0x68a>
      }
    }
  }

  /*------------------------------ HSI48 Configuration -------------------------*/
  if (((RCC_OscInitStruct->OscillatorType) & RCC_OSCILLATORTYPE_HSI48) == RCC_OSCILLATORTYPE_HSI48)
 8022e3a:	6823      	ldr	r3, [r4, #0]
 8022e3c:	f013 0f20 	tst.w	r3, #32
 8022e40:	d029      	beq.n	8022e96 <HAL_RCC_OscConfig+0x3ea>
  {
    /* Check the parameters */
    assert_param(IS_RCC_HSI48(RCC_OscInitStruct->HSI48State));

    /* Check the HSI48 State */
    if ((RCC_OscInitStruct->HSI48State) != RCC_HSI48_OFF)
 8022e42:	69a3      	ldr	r3, [r4, #24]
 8022e44:	b19b      	cbz	r3, 8022e6e <HAL_RCC_OscConfig+0x3c2>
    {
      /* Enable the Internal Low Speed oscillator (HSI48). */
      __HAL_RCC_HSI48_ENABLE();
 8022e46:	4a57      	ldr	r2, [pc, #348]	@ (8022fa4 <HAL_RCC_OscConfig+0x4f8>)
 8022e48:	6813      	ldr	r3, [r2, #0]
 8022e4a:	f443 5380 	orr.w	r3, r3, #4096	@ 0x1000
 8022e4e:	6013      	str	r3, [r2, #0]

      /* Get time-out */
      tickstart = HAL_GetTick();
 8022e50:	f7fe f8ea 	bl	8021028 <HAL_GetTick>
 8022e54:	4605      	mov	r5, r0

      /* Wait till HSI48 is ready */
      while (__HAL_RCC_GET_FLAG(RCC_FLAG_HSI48RDY) == 0U)
 8022e56:	4b53      	ldr	r3, [pc, #332]	@ (8022fa4 <HAL_RCC_OscConfig+0x4f8>)
 8022e58:	681b      	ldr	r3, [r3, #0]
 8022e5a:	f413 5f00 	tst.w	r3, #8192	@ 0x2000
 8022e5e:	d11a      	bne.n	8022e96 <HAL_RCC_OscConfig+0x3ea>
      {
        if ((HAL_GetTick() - tickstart) > HSI48_TIMEOUT_VALUE)
 8022e60:	f7fe f8e2 	bl	8021028 <HAL_GetTick>
 8022e64:	1b40      	subs	r0, r0, r5
 8022e66:	2802      	cmp	r0, #2
 8022e68:	d9f5      	bls.n	8022e56 <HAL_RCC_OscConfig+0x3aa>
        {
          return HAL_TIMEOUT;
 8022e6a:	2003      	movs	r0, #3
 8022e6c:	e163      	b.n	8023136 <HAL_RCC_OscConfig+0x68a>
      }
    }
    else
    {
      /* Disable the Internal Low Speed oscillator (HSI48). */
      __HAL_RCC_HSI48_DISABLE();
 8022e6e:	4a4d      	ldr	r2, [pc, #308]	@ (8022fa4 <HAL_RCC_OscConfig+0x4f8>)
 8022e70:	6813      	ldr	r3, [r2, #0]
 8022e72:	f423 5380 	bic.w	r3, r3, #4096	@ 0x1000
 8022e76:	6013      	str	r3, [r2, #0]

      /* Get time-out */
      tickstart = HAL_GetTick();
 8022e78:	f7fe f8d6 	bl	8021028 <HAL_GetTick>
 8022e7c:	4605      	mov	r5, r0

      /* Wait till HSI48 is ready */
      while (__HAL_RCC_GET_FLAG(RCC_FLAG_HSI48RDY) != 0U)
 8022e7e:	4b49      	ldr	r3, [pc, #292]	@ (8022fa4 <HAL_RCC_OscConfig+0x4f8>)
 8022e80:	681b      	ldr	r3, [r3, #0]
 8022e82:	f413 5f00 	tst.w	r3, #8192	@ 0x2000
 8022e86:	d006      	beq.n	8022e96 <HAL_RCC_OscConfig+0x3ea>
      {
        if ((HAL_GetTick() - tickstart) > HSI48_TIMEOUT_VALUE)
 8022e88:	f7fe f8ce 	bl	8021028 <HAL_GetTick>
 8022e8c:	1b40      	subs	r0, r0, r5
 8022e8e:	2802      	cmp	r0, #2
 8022e90:	d9f5      	bls.n	8022e7e <HAL_RCC_OscConfig+0x3d2>
        {
          return HAL_TIMEOUT;
 8022e92:	2003      	movs	r0, #3
 8022e94:	e14f      	b.n	8023136 <HAL_RCC_OscConfig+0x68a>
        }
      }
    }
  }
  /*------------------------------ LSE Configuration -------------------------*/
  if (((RCC_OscInitStruct->OscillatorType) & RCC_OSCILLATORTYPE_LSE) == RCC_OSCILLATORTYPE_LSE)
 8022e96:	6823      	ldr	r3, [r4, #0]
 8022e98:	f013 0f04 	tst.w	r3, #4
 8022e9c:	d121      	bne.n	8022ee2 <HAL_RCC_OscConfig+0x436>
    }
  }
  /*-------------------------------- PLL Configuration -----------------------*/
  /* Check the parameters */
  assert_param(IS_RCC_PLL(RCC_OscInitStruct->PLL.PLLState));
  if ((RCC_OscInitStruct->PLL.PLLState) != RCC_PLL_NONE)
 8022e9e:	6a63      	ldr	r3, [r4, #36]	@ 0x24
 8022ea0:	2b00      	cmp	r3, #0
 8022ea2:	f000 8147 	beq.w	8023134 <HAL_RCC_OscConfig+0x688>
  {
    /* Check if the PLL is used as system clock or not */
    if (__HAL_RCC_GET_SYSCLK_SOURCE() != RCC_CFGR_SWS_PLL1)
 8022ea6:	4a3f      	ldr	r2, [pc, #252]	@ (8022fa4 <HAL_RCC_OscConfig+0x4f8>)
 8022ea8:	6912      	ldr	r2, [r2, #16]
 8022eaa:	f002 0238 	and.w	r2, r2, #56	@ 0x38
 8022eae:	2a18      	cmp	r2, #24
 8022eb0:	f000 80ee 	beq.w	8023090 <HAL_RCC_OscConfig+0x5e4>
    {
      if ((RCC_OscInitStruct->PLL.PLLState) == RCC_PLL_ON)
 8022eb4:	2b02      	cmp	r3, #2
 8022eb6:	d079      	beq.n	8022fac <HAL_RCC_OscConfig+0x500>
        }
      }
      else
      {
        /* Disable the main PLL. */
        __HAL_RCC_PLL_DISABLE();
 8022eb8:	4a3a      	ldr	r2, [pc, #232]	@ (8022fa4 <HAL_RCC_OscConfig+0x4f8>)
 8022eba:	6813      	ldr	r3, [r2, #0]
 8022ebc:	f023 7380 	bic.w	r3, r3, #16777216	@ 0x1000000
 8022ec0:	6013      	str	r3, [r2, #0]

        /* Get Start Tick*/
        tickstart = HAL_GetTick();
 8022ec2:	f7fe f8b1 	bl	8021028 <HAL_GetTick>
 8022ec6:	4604      	mov	r4, r0

        /* Wait till PLL is disabled */
        while (__HAL_RCC_GET_FLAG(RCC_FLAG_PLLRDY) != 0U)
 8022ec8:	4b36      	ldr	r3, [pc, #216]	@ (8022fa4 <HAL_RCC_OscConfig+0x4f8>)
 8022eca:	681b      	ldr	r3, [r3, #0]
 8022ecc:	f013 7f00 	tst.w	r3, #33554432	@ 0x2000000
 8022ed0:	f000 80dc 	beq.w	802308c <HAL_RCC_OscConfig+0x5e0>
        {
          if ((HAL_GetTick() - tickstart) > PLL_TIMEOUT_VALUE)
 8022ed4:	f7fe f8a8 	bl	8021028 <HAL_GetTick>
 8022ed8:	1b00      	subs	r0, r0, r4
 8022eda:	2802      	cmp	r0, #2
 8022edc:	d9f4      	bls.n	8022ec8 <HAL_RCC_OscConfig+0x41c>
          {
            return HAL_TIMEOUT;
 8022ede:	2003      	movs	r0, #3
 8022ee0:	e129      	b.n	8023136 <HAL_RCC_OscConfig+0x68a>
    PWR->CR1 |= PWR_CR1_DBP;
 8022ee2:	4a31      	ldr	r2, [pc, #196]	@ (8022fa8 <HAL_RCC_OscConfig+0x4fc>)
 8022ee4:	6813      	ldr	r3, [r2, #0]
 8022ee6:	f443 7380 	orr.w	r3, r3, #256	@ 0x100
 8022eea:	6013      	str	r3, [r2, #0]
    tickstart = HAL_GetTick();
 8022eec:	f7fe f89c 	bl	8021028 <HAL_GetTick>
 8022ef0:	4605      	mov	r5, r0
    while ((PWR->CR1 & PWR_CR1_DBP) == 0U)
 8022ef2:	4b2d      	ldr	r3, [pc, #180]	@ (8022fa8 <HAL_RCC_OscConfig+0x4fc>)
 8022ef4:	681b      	ldr	r3, [r3, #0]
 8022ef6:	f413 7f80 	tst.w	r3, #256	@ 0x100
 8022efa:	d106      	bne.n	8022f0a <HAL_RCC_OscConfig+0x45e>
      if ((HAL_GetTick() - tickstart) > RCC_DBP_TIMEOUT_VALUE)
 8022efc:	f7fe f894 	bl	8021028 <HAL_GetTick>
 8022f00:	1b40      	subs	r0, r0, r5
 8022f02:	2864      	cmp	r0, #100	@ 0x64
 8022f04:	d9f5      	bls.n	8022ef2 <HAL_RCC_OscConfig+0x446>
        return HAL_TIMEOUT;
 8022f06:	2003      	movs	r0, #3
 8022f08:	e115      	b.n	8023136 <HAL_RCC_OscConfig+0x68a>
    __HAL_RCC_LSE_CONFIG(RCC_OscInitStruct->LSEState);
 8022f0a:	68a3      	ldr	r3, [r4, #8]
 8022f0c:	2b01      	cmp	r3, #1
 8022f0e:	d00a      	beq.n	8022f26 <HAL_RCC_OscConfig+0x47a>
 8022f10:	bb0b      	cbnz	r3, 8022f56 <HAL_RCC_OscConfig+0x4aa>
 8022f12:	4b24      	ldr	r3, [pc, #144]	@ (8022fa4 <HAL_RCC_OscConfig+0x4f8>)
 8022f14:	6f1a      	ldr	r2, [r3, #112]	@ 0x70
 8022f16:	f022 0201 	bic.w	r2, r2, #1
 8022f1a:	671a      	str	r2, [r3, #112]	@ 0x70
 8022f1c:	6f1a      	ldr	r2, [r3, #112]	@ 0x70
 8022f1e:	f022 0204 	bic.w	r2, r2, #4
 8022f22:	671a      	str	r2, [r3, #112]	@ 0x70
 8022f24:	e004      	b.n	8022f30 <HAL_RCC_OscConfig+0x484>
 8022f26:	4a1f      	ldr	r2, [pc, #124]	@ (8022fa4 <HAL_RCC_OscConfig+0x4f8>)
 8022f28:	6f13      	ldr	r3, [r2, #112]	@ 0x70
 8022f2a:	f043 0301 	orr.w	r3, r3, #1
 8022f2e:	6713      	str	r3, [r2, #112]	@ 0x70
    if ((RCC_OscInitStruct->LSEState) != RCC_LSE_OFF)
 8022f30:	68a3      	ldr	r3, [r4, #8]
 8022f32:	b333      	cbz	r3, 8022f82 <HAL_RCC_OscConfig+0x4d6>
      tickstart = HAL_GetTick();
 8022f34:	f7fe f878 	bl	8021028 <HAL_GetTick>
 8022f38:	4605      	mov	r5, r0
      while (__HAL_RCC_GET_FLAG(RCC_FLAG_LSERDY) == 0U)
 8022f3a:	4b1a      	ldr	r3, [pc, #104]	@ (8022fa4 <HAL_RCC_OscConfig+0x4f8>)
 8022f3c:	6f1b      	ldr	r3, [r3, #112]	@ 0x70
 8022f3e:	f013 0f02 	tst.w	r3, #2
 8022f42:	d1ac      	bne.n	8022e9e <HAL_RCC_OscConfig+0x3f2>
        if ((HAL_GetTick() - tickstart) > RCC_LSE_TIMEOUT_VALUE)
 8022f44:	f7fe f870 	bl	8021028 <HAL_GetTick>
 8022f48:	1b40      	subs	r0, r0, r5
 8022f4a:	f241 3388 	movw	r3, #5000	@ 0x1388
 8022f4e:	4298      	cmp	r0, r3
 8022f50:	d9f3      	bls.n	8022f3a <HAL_RCC_OscConfig+0x48e>
          return HAL_TIMEOUT;
 8022f52:	2003      	movs	r0, #3
 8022f54:	e0ef      	b.n	8023136 <HAL_RCC_OscConfig+0x68a>
    __HAL_RCC_LSE_CONFIG(RCC_OscInitStruct->LSEState);
 8022f56:	2b05      	cmp	r3, #5
 8022f58:	d009      	beq.n	8022f6e <HAL_RCC_OscConfig+0x4c2>
 8022f5a:	4b12      	ldr	r3, [pc, #72]	@ (8022fa4 <HAL_RCC_OscConfig+0x4f8>)
 8022f5c:	6f1a      	ldr	r2, [r3, #112]	@ 0x70
 8022f5e:	f022 0201 	bic.w	r2, r2, #1
 8022f62:	671a      	str	r2, [r3, #112]	@ 0x70
 8022f64:	6f1a      	ldr	r2, [r3, #112]	@ 0x70
 8022f66:	f022 0204 	bic.w	r2, r2, #4
 8022f6a:	671a      	str	r2, [r3, #112]	@ 0x70
 8022f6c:	e7e0      	b.n	8022f30 <HAL_RCC_OscConfig+0x484>
 8022f6e:	4b0d      	ldr	r3, [pc, #52]	@ (8022fa4 <HAL_RCC_OscConfig+0x4f8>)
 8022f70:	6f1a      	ldr	r2, [r3, #112]	@ 0x70
 8022f72:	f042 0204 	orr.w	r2, r2, #4
 8022f76:	671a      	str	r2, [r3, #112]	@ 0x70
 8022f78:	6f1a      	ldr	r2, [r3, #112]	@ 0x70
 8022f7a:	f042 0201 	orr.w	r2, r2, #1
 8022f7e:	671a      	str	r2, [r3, #112]	@ 0x70
 8022f80:	e7d6      	b.n	8022f30 <HAL_RCC_OscConfig+0x484>
      tickstart = HAL_GetTick();
 8022f82:	f7fe f851 	bl	8021028 <HAL_GetTick>
 8022f86:	4605      	mov	r5, r0
      while (__HAL_RCC_GET_FLAG(RCC_FLAG_LSERDY) != 0U)
 8022f88:	4b06      	ldr	r3, [pc, #24]	@ (8022fa4 <HAL_RCC_OscConfig+0x4f8>)
 8022f8a:	6f1b      	ldr	r3, [r3, #112]	@ 0x70
 8022f8c:	f013 0f02 	tst.w	r3, #2
 8022f90:	d085      	beq.n	8022e9e <HAL_RCC_OscConfig+0x3f2>
        if ((HAL_GetTick() - tickstart) > RCC_LSE_TIMEOUT_VALUE)
 8022f92:	f7fe f849 	bl	8021028 <HAL_GetTick>
 8022f96:	1b40      	subs	r0, r0, r5
 8022f98:	f241 3388 	movw	r3, #5000	@ 0x1388
 8022f9c:	4298      	cmp	r0, r3
 8022f9e:	d9f3      	bls.n	8022f88 <HAL_RCC_OscConfig+0x4dc>
          return HAL_TIMEOUT;
 8022fa0:	2003      	movs	r0, #3
 8022fa2:	e0c8      	b.n	8023136 <HAL_RCC_OscConfig+0x68a>
 8022fa4:	58024400 	.word	0x58024400
 8022fa8:	58024800 	.word	0x58024800
        __HAL_RCC_PLL_DISABLE();
 8022fac:	4a69      	ldr	r2, [pc, #420]	@ (8023154 <HAL_RCC_OscConfig+0x6a8>)
 8022fae:	6813      	ldr	r3, [r2, #0]
 8022fb0:	f023 7380 	bic.w	r3, r3, #16777216	@ 0x1000000
 8022fb4:	6013      	str	r3, [r2, #0]
        tickstart = HAL_GetTick();
 8022fb6:	f7fe f837 	bl	8021028 <HAL_GetTick>
 8022fba:	4605      	mov	r5, r0
        while (__HAL_RCC_GET_FLAG(RCC_FLAG_PLLRDY) != 0U)
 8022fbc:	4b65      	ldr	r3, [pc, #404]	@ (8023154 <HAL_RCC_OscConfig+0x6a8>)
 8022fbe:	681b      	ldr	r3, [r3, #0]
 8022fc0:	f013 7f00 	tst.w	r3, #33554432	@ 0x2000000
 8022fc4:	d006      	beq.n	8022fd4 <HAL_RCC_OscConfig+0x528>
          if ((HAL_GetTick() - tickstart) > PLL_TIMEOUT_VALUE)
 8022fc6:	f7fe f82f 	bl	8021028 <HAL_GetTick>
 8022fca:	1b40      	subs	r0, r0, r5
 8022fcc:	2802      	cmp	r0, #2
 8022fce:	d9f5      	bls.n	8022fbc <HAL_RCC_OscConfig+0x510>
            return HAL_TIMEOUT;
 8022fd0:	2003      	movs	r0, #3
 8022fd2:	e0b0      	b.n	8023136 <HAL_RCC_OscConfig+0x68a>
        __HAL_RCC_PLL_CONFIG(RCC_OscInitStruct->PLL.PLLSource,
 8022fd4:	4b5f      	ldr	r3, [pc, #380]	@ (8023154 <HAL_RCC_OscConfig+0x6a8>)
 8022fd6:	6a99      	ldr	r1, [r3, #40]	@ 0x28
 8022fd8:	4a5f      	ldr	r2, [pc, #380]	@ (8023158 <HAL_RCC_OscConfig+0x6ac>)
 8022fda:	400a      	ands	r2, r1
 8022fdc:	6aa1      	ldr	r1, [r4, #40]	@ 0x28
 8022fde:	6ae0      	ldr	r0, [r4, #44]	@ 0x2c
 8022fe0:	ea41 1100 	orr.w	r1, r1, r0, lsl #4
 8022fe4:	430a      	orrs	r2, r1
 8022fe6:	629a      	str	r2, [r3, #40]	@ 0x28
 8022fe8:	6b22      	ldr	r2, [r4, #48]	@ 0x30
 8022fea:	3a01      	subs	r2, #1
 8022fec:	f3c2 0208 	ubfx	r2, r2, #0, #9
 8022ff0:	6b61      	ldr	r1, [r4, #52]	@ 0x34
 8022ff2:	3901      	subs	r1, #1
 8022ff4:	0249      	lsls	r1, r1, #9
 8022ff6:	b289      	uxth	r1, r1
 8022ff8:	430a      	orrs	r2, r1
 8022ffa:	6ba1      	ldr	r1, [r4, #56]	@ 0x38
 8022ffc:	3901      	subs	r1, #1
 8022ffe:	0409      	lsls	r1, r1, #16
 8023000:	f401 01fe 	and.w	r1, r1, #8323072	@ 0x7f0000
 8023004:	430a      	orrs	r2, r1
 8023006:	6be1      	ldr	r1, [r4, #60]	@ 0x3c
 8023008:	3901      	subs	r1, #1
 802300a:	0609      	lsls	r1, r1, #24
 802300c:	f001 41fe 	and.w	r1, r1, #2130706432	@ 0x7f000000
 8023010:	430a      	orrs	r2, r1
 8023012:	631a      	str	r2, [r3, #48]	@ 0x30
        __HAL_RCC_PLLFRACN_DISABLE();
 8023014:	6ada      	ldr	r2, [r3, #44]	@ 0x2c
 8023016:	f022 0201 	bic.w	r2, r2, #1
 802301a:	62da      	str	r2, [r3, #44]	@ 0x2c
        __HAL_RCC_PLLFRACN_CONFIG(RCC_OscInitStruct->PLL.PLLFRACN);
 802301c:	6b5a      	ldr	r2, [r3, #52]	@ 0x34
 802301e:	f36f 02cf 	bfc	r2, #3, #13
 8023022:	6ca1      	ldr	r1, [r4, #72]	@ 0x48
 8023024:	ea42 02c1 	orr.w	r2, r2, r1, lsl #3
 8023028:	635a      	str	r2, [r3, #52]	@ 0x34
        __HAL_RCC_PLL_VCIRANGE(RCC_OscInitStruct->PLL.PLLRGE) ;
 802302a:	6ada      	ldr	r2, [r3, #44]	@ 0x2c
 802302c:	f022 020c 	bic.w	r2, r2, #12
 8023030:	6c21      	ldr	r1, [r4, #64]	@ 0x40
 8023032:	430a      	orrs	r2, r1
 8023034:	62da      	str	r2, [r3, #44]	@ 0x2c
        __HAL_RCC_PLL_VCORANGE(RCC_OscInitStruct->PLL.PLLVCOSEL) ;
 8023036:	6ada      	ldr	r2, [r3, #44]	@ 0x2c
 8023038:	f022 0202 	bic.w	r2, r2, #2
 802303c:	6c61      	ldr	r1, [r4, #68]	@ 0x44
 802303e:	430a      	orrs	r2, r1
 8023040:	62da      	str	r2, [r3, #44]	@ 0x2c
        __HAL_RCC_PLLCLKOUT_ENABLE(RCC_PLL1_DIVP);
 8023042:	6ada      	ldr	r2, [r3, #44]	@ 0x2c
 8023044:	f442 3280 	orr.w	r2, r2, #65536	@ 0x10000
 8023048:	62da      	str	r2, [r3, #44]	@ 0x2c
        __HAL_RCC_PLLCLKOUT_ENABLE(RCC_PLL1_DIVQ);
 802304a:	6ada      	ldr	r2, [r3, #44]	@ 0x2c
 802304c:	f442 3200 	orr.w	r2, r2, #131072	@ 0x20000
 8023050:	62da      	str	r2, [r3, #44]	@ 0x2c
        __HAL_RCC_PLLCLKOUT_ENABLE(RCC_PLL1_DIVR);
 8023052:	6ada      	ldr	r2, [r3, #44]	@ 0x2c
 8023054:	f442 2280 	orr.w	r2, r2, #262144	@ 0x40000
 8023058:	62da      	str	r2, [r3, #44]	@ 0x2c
        __HAL_RCC_PLLFRACN_ENABLE();
 802305a:	6ada      	ldr	r2, [r3, #44]	@ 0x2c
 802305c:	f042 0201 	orr.w	r2, r2, #1
 8023060:	62da      	str	r2, [r3, #44]	@ 0x2c
        __HAL_RCC_PLL_ENABLE();
 8023062:	681a      	ldr	r2, [r3, #0]
 8023064:	f042 7280 	orr.w	r2, r2, #16777216	@ 0x1000000
 8023068:	601a      	str	r2, [r3, #0]
        tickstart = HAL_GetTick();
 802306a:	f7fd ffdd 	bl	8021028 <HAL_GetTick>
 802306e:	4604      	mov	r4, r0
        while (__HAL_RCC_GET_FLAG(RCC_FLAG_PLLRDY) == 0U)
 8023070:	4b38      	ldr	r3, [pc, #224]	@ (8023154 <HAL_RCC_OscConfig+0x6a8>)
 8023072:	681b      	ldr	r3, [r3, #0]
 8023074:	f013 7f00 	tst.w	r3, #33554432	@ 0x2000000
 8023078:	d106      	bne.n	8023088 <HAL_RCC_OscConfig+0x5dc>
          if ((HAL_GetTick() - tickstart) > PLL_TIMEOUT_VALUE)
 802307a:	f7fd ffd5 	bl	8021028 <HAL_GetTick>
 802307e:	1b00      	subs	r0, r0, r4
 8023080:	2802      	cmp	r0, #2
 8023082:	d9f5      	bls.n	8023070 <HAL_RCC_OscConfig+0x5c4>
            return HAL_TIMEOUT;
 8023084:	2003      	movs	r0, #3
 8023086:	e056      	b.n	8023136 <HAL_RCC_OscConfig+0x68a>
          __HAL_RCC_PLLFRACN_ENABLE();
        }
      }
    }
  }
  return HAL_OK;
 8023088:	2000      	movs	r0, #0
 802308a:	e054      	b.n	8023136 <HAL_RCC_OscConfig+0x68a>
 802308c:	2000      	movs	r0, #0
 802308e:	e052      	b.n	8023136 <HAL_RCC_OscConfig+0x68a>
      temp1_pllckcfg = RCC->PLLCKSELR;
 8023090:	4a30      	ldr	r2, [pc, #192]	@ (8023154 <HAL_RCC_OscConfig+0x6a8>)
 8023092:	6a91      	ldr	r1, [r2, #40]	@ 0x28
      temp2_pllckcfg = RCC->PLL1DIVR;
 8023094:	6b10      	ldr	r0, [r2, #48]	@ 0x30
      if (((RCC_OscInitStruct->PLL.PLLState) == RCC_PLL_OFF) ||
 8023096:	2b01      	cmp	r3, #1
 8023098:	d04e      	beq.n	8023138 <HAL_RCC_OscConfig+0x68c>
          (READ_BIT(temp1_pllckcfg, RCC_PLLCKSELR_PLLSRC) != RCC_OscInitStruct->PLL.PLLSource) ||
 802309a:	f001 0303 	and.w	r3, r1, #3
 802309e:	6aa2      	ldr	r2, [r4, #40]	@ 0x28
      if (((RCC_OscInitStruct->PLL.PLLState) == RCC_PLL_OFF) ||
 80230a0:	4293      	cmp	r3, r2
 80230a2:	d14b      	bne.n	802313c <HAL_RCC_OscConfig+0x690>
          ((READ_BIT(temp1_pllckcfg, RCC_PLLCKSELR_DIVM1) >> RCC_PLLCKSELR_DIVM1_Pos) != RCC_OscInitStruct->PLL.PLLM) ||
 80230a4:	f3c1 1105 	ubfx	r1, r1, #4, #6
 80230a8:	6ae3      	ldr	r3, [r4, #44]	@ 0x2c
          (READ_BIT(temp1_pllckcfg, RCC_PLLCKSELR_PLLSRC) != RCC_OscInitStruct->PLL.PLLSource) ||
 80230aa:	4299      	cmp	r1, r3
 80230ac:	d148      	bne.n	8023140 <HAL_RCC_OscConfig+0x694>
          (READ_BIT(temp2_pllckcfg, RCC_PLL1DIVR_N1) != (RCC_OscInitStruct->PLL.PLLN - 1U)) ||
 80230ae:	f3c0 0208 	ubfx	r2, r0, #0, #9
 80230b2:	6b23      	ldr	r3, [r4, #48]	@ 0x30
 80230b4:	3b01      	subs	r3, #1
          ((READ_BIT(temp1_pllckcfg, RCC_PLLCKSELR_DIVM1) >> RCC_PLLCKSELR_DIVM1_Pos) != RCC_OscInitStruct->PLL.PLLM) ||
 80230b6:	429a      	cmp	r2, r3
 80230b8:	d144      	bne.n	8023144 <HAL_RCC_OscConfig+0x698>
          ((READ_BIT(temp2_pllckcfg, RCC_PLL1DIVR_P1) >> RCC_PLL1DIVR_P1_Pos) != (RCC_OscInitStruct->PLL.PLLP - 1U)) ||
 80230ba:	f3c0 2246 	ubfx	r2, r0, #9, #7
 80230be:	6b63      	ldr	r3, [r4, #52]	@ 0x34
 80230c0:	3b01      	subs	r3, #1
          (READ_BIT(temp2_pllckcfg, RCC_PLL1DIVR_N1) != (RCC_OscInitStruct->PLL.PLLN - 1U)) ||
 80230c2:	429a      	cmp	r2, r3
 80230c4:	d140      	bne.n	8023148 <HAL_RCC_OscConfig+0x69c>
          ((READ_BIT(temp2_pllckcfg, RCC_PLL1DIVR_Q1) >> RCC_PLL1DIVR_Q1_Pos) != (RCC_OscInitStruct->PLL.PLLQ - 1U)) ||
 80230c6:	f3c0 4206 	ubfx	r2, r0, #16, #7
 80230ca:	6ba3      	ldr	r3, [r4, #56]	@ 0x38
 80230cc:	3b01      	subs	r3, #1
          ((READ_BIT(temp2_pllckcfg, RCC_PLL1DIVR_P1) >> RCC_PLL1DIVR_P1_Pos) != (RCC_OscInitStruct->PLL.PLLP - 1U)) ||
 80230ce:	429a      	cmp	r2, r3
 80230d0:	d13c      	bne.n	802314c <HAL_RCC_OscConfig+0x6a0>
          ((READ_BIT(temp2_pllckcfg, RCC_PLL1DIVR_R1) >> RCC_PLL1DIVR_R1_Pos) != (RCC_OscInitStruct->PLL.PLLR - 1U)))
 80230d2:	f3c0 6006 	ubfx	r0, r0, #24, #7
 80230d6:	6be3      	ldr	r3, [r4, #60]	@ 0x3c
 80230d8:	3b01      	subs	r3, #1
          ((READ_BIT(temp2_pllckcfg, RCC_PLL1DIVR_Q1) >> RCC_PLL1DIVR_Q1_Pos) != (RCC_OscInitStruct->PLL.PLLQ - 1U)) ||
 80230da:	4298      	cmp	r0, r3
 80230dc:	d138      	bne.n	8023150 <HAL_RCC_OscConfig+0x6a4>
        temp1_pllckcfg = ((RCC->PLL1FRACR & RCC_PLL1FRACR_FRACN1) >> RCC_PLL1FRACR_FRACN1_Pos);
 80230de:	4b1d      	ldr	r3, [pc, #116]	@ (8023154 <HAL_RCC_OscConfig+0x6a8>)
 80230e0:	6b5b      	ldr	r3, [r3, #52]	@ 0x34
 80230e2:	f3c3 03cc 	ubfx	r3, r3, #3, #13
        if (RCC_OscInitStruct->PLL.PLLFRACN != temp1_pllckcfg)
 80230e6:	6ca2      	ldr	r2, [r4, #72]	@ 0x48
 80230e8:	429a      	cmp	r2, r3
 80230ea:	d101      	bne.n	80230f0 <HAL_RCC_OscConfig+0x644>
  return HAL_OK;
 80230ec:	2000      	movs	r0, #0
 80230ee:	e022      	b.n	8023136 <HAL_RCC_OscConfig+0x68a>
          __HAL_RCC_PLLFRACN_DISABLE();
 80230f0:	4a18      	ldr	r2, [pc, #96]	@ (8023154 <HAL_RCC_OscConfig+0x6a8>)
 80230f2:	6ad3      	ldr	r3, [r2, #44]	@ 0x2c
 80230f4:	f023 0301 	bic.w	r3, r3, #1
 80230f8:	62d3      	str	r3, [r2, #44]	@ 0x2c
          tickstart = HAL_GetTick();
 80230fa:	f7fd ff95 	bl	8021028 <HAL_GetTick>
 80230fe:	4605      	mov	r5, r0
          while ((HAL_GetTick() - tickstart) < PLL_FRAC_TIMEOUT_VALUE)
 8023100:	f7fd ff92 	bl	8021028 <HAL_GetTick>
 8023104:	42a8      	cmp	r0, r5
 8023106:	d0fb      	beq.n	8023100 <HAL_RCC_OscConfig+0x654>
          __HAL_RCC_PLLFRACN_CONFIG(RCC_OscInitStruct->PLL.PLLFRACN);
 8023108:	4a12      	ldr	r2, [pc, #72]	@ (8023154 <HAL_RCC_OscConfig+0x6a8>)
 802310a:	6b53      	ldr	r3, [r2, #52]	@ 0x34
 802310c:	f36f 03cf 	bfc	r3, #3, #13
 8023110:	6ca1      	ldr	r1, [r4, #72]	@ 0x48
 8023112:	ea43 03c1 	orr.w	r3, r3, r1, lsl #3
 8023116:	6353      	str	r3, [r2, #52]	@ 0x34
          __HAL_RCC_PLLFRACN_ENABLE();
 8023118:	6ad3      	ldr	r3, [r2, #44]	@ 0x2c
 802311a:	f043 0301 	orr.w	r3, r3, #1
 802311e:	62d3      	str	r3, [r2, #44]	@ 0x2c
  return HAL_OK;
 8023120:	2000      	movs	r0, #0
 8023122:	e008      	b.n	8023136 <HAL_RCC_OscConfig+0x68a>
    return HAL_ERROR;
 8023124:	2001      	movs	r0, #1
}
 8023126:	4770      	bx	lr
        return HAL_ERROR;
 8023128:	2001      	movs	r0, #1
 802312a:	e004      	b.n	8023136 <HAL_RCC_OscConfig+0x68a>
        return HAL_ERROR;
 802312c:	2001      	movs	r0, #1
 802312e:	e002      	b.n	8023136 <HAL_RCC_OscConfig+0x68a>
        return HAL_ERROR;
 8023130:	2001      	movs	r0, #1
 8023132:	e000      	b.n	8023136 <HAL_RCC_OscConfig+0x68a>
  return HAL_OK;
 8023134:	2000      	movs	r0, #0
}
 8023136:	bd38      	pop	{r3, r4, r5, pc}
        return HAL_ERROR;
 8023138:	2001      	movs	r0, #1
 802313a:	e7fc      	b.n	8023136 <HAL_RCC_OscConfig+0x68a>
 802313c:	2001      	movs	r0, #1
 802313e:	e7fa      	b.n	8023136 <HAL_RCC_OscConfig+0x68a>
 8023140:	2001      	movs	r0, #1
 8023142:	e7f8      	b.n	8023136 <HAL_RCC_OscConfig+0x68a>
 8023144:	2001      	movs	r0, #1
 8023146:	e7f6      	b.n	8023136 <HAL_RCC_OscConfig+0x68a>
 8023148:	2001      	movs	r0, #1
 802314a:	e7f4      	b.n	8023136 <HAL_RCC_OscConfig+0x68a>
 802314c:	2001      	movs	r0, #1
 802314e:	e7f2      	b.n	8023136 <HAL_RCC_OscConfig+0x68a>
 8023150:	2001      	movs	r0, #1
 8023152:	e7f0      	b.n	8023136 <HAL_RCC_OscConfig+0x68a>
 8023154:	58024400 	.word	0x58024400
 8023158:	fffffc0c 	.word	0xfffffc0c

0802315c <HAL_RCC_GetSysClockFreq>:
  float_t fracn1, pllvco;
  uint32_t sysclockfreq;

  /* Get SYSCLK source -------------------------------------------------------*/

  switch (RCC->CFGR & RCC_CFGR_SWS)
 802315c:	4b75      	ldr	r3, [pc, #468]	@ (8023334 <HAL_RCC_GetSysClockFreq+0x1d8>)
 802315e:	691b      	ldr	r3, [r3, #16]
 8023160:	f003 0338 	and.w	r3, r3, #56	@ 0x38
 8023164:	2b10      	cmp	r3, #16
 8023166:	f000 80de 	beq.w	8023326 <HAL_RCC_GetSysClockFreq+0x1ca>
 802316a:	2b18      	cmp	r3, #24
 802316c:	d00f      	beq.n	802318e <HAL_RCC_GetSysClockFreq+0x32>
 802316e:	2b00      	cmp	r3, #0
 8023170:	f040 80db 	bne.w	802332a <HAL_RCC_GetSysClockFreq+0x1ce>
  {
    case RCC_CFGR_SWS_HSI:  /* HSI used as system clock source */

      if (__HAL_RCC_GET_FLAG(RCC_FLAG_HSIDIV) != 0U)
 8023174:	4b6f      	ldr	r3, [pc, #444]	@ (8023334 <HAL_RCC_GetSysClockFreq+0x1d8>)
 8023176:	681b      	ldr	r3, [r3, #0]
 8023178:	f013 0f20 	tst.w	r3, #32
 802317c:	f000 80d7 	beq.w	802332e <HAL_RCC_GetSysClockFreq+0x1d2>
      {
        sysclockfreq = (uint32_t)(HSI_VALUE >> (__HAL_RCC_GET_HSI_DIVIDER() >> 3));
 8023180:	4b6c      	ldr	r3, [pc, #432]	@ (8023334 <HAL_RCC_GetSysClockFreq+0x1d8>)
 8023182:	681b      	ldr	r3, [r3, #0]
 8023184:	f3c3 03c1 	ubfx	r3, r3, #3, #2
 8023188:	486b      	ldr	r0, [pc, #428]	@ (8023338 <HAL_RCC_GetSysClockFreq+0x1dc>)
 802318a:	40d8      	lsrs	r0, r3
 802318c:	4770      	bx	lr
{
 802318e:	b410      	push	{r4}
    case RCC_CFGR_SWS_PLL1:  /* PLL1 used as system clock  source */

      /* PLL_VCO = (HSE_VALUE or HSI_VALUE or CSI_VALUE/ PLLM) * PLLN
      SYSCLK = PLL_VCO / PLLR
      */
      pllsource = (RCC->PLLCKSELR & RCC_PLLCKSELR_PLLSRC);
 8023190:	4b68      	ldr	r3, [pc, #416]	@ (8023334 <HAL_RCC_GetSysClockFreq+0x1d8>)
 8023192:	6a9a      	ldr	r2, [r3, #40]	@ 0x28
 8023194:	f002 0203 	and.w	r2, r2, #3
      pllm = ((RCC->PLLCKSELR & RCC_PLLCKSELR_DIVM1) >> 4)  ;
 8023198:	6a9c      	ldr	r4, [r3, #40]	@ 0x28
 802319a:	f3c4 1005 	ubfx	r0, r4, #4, #6
      pllfracen = ((RCC-> PLLCFGR & RCC_PLLCFGR_PLL1FRACEN) >> RCC_PLLCFGR_PLL1FRACEN_Pos);
 802319e:	6ad9      	ldr	r1, [r3, #44]	@ 0x2c
 80231a0:	f001 0101 	and.w	r1, r1, #1
      fracn1 = (float_t)(uint32_t)(pllfracen * ((RCC->PLL1FRACR & RCC_PLL1FRACR_FRACN1) >> 3));
 80231a4:	6b5b      	ldr	r3, [r3, #52]	@ 0x34
 80231a6:	f3c3 03cc 	ubfx	r3, r3, #3, #13
 80231aa:	fb01 f303 	mul.w	r3, r1, r3
 80231ae:	ee07 3a90 	vmov	s15, r3
 80231b2:	eef8 7a67 	vcvt.f32.u32	s15, s15

      if (pllm != 0U)
 80231b6:	f414 7f7c 	tst.w	r4, #1008	@ 0x3f0
 80231ba:	d077      	beq.n	80232ac <HAL_RCC_GetSysClockFreq+0x150>
      {
        switch (pllsource)
 80231bc:	2a01      	cmp	r2, #1
 80231be:	d04a      	beq.n	8023256 <HAL_RCC_GetSysClockFreq+0xfa>
 80231c0:	2a02      	cmp	r2, #2
 80231c2:	d076      	beq.n	80232b2 <HAL_RCC_GetSysClockFreq+0x156>
 80231c4:	2a00      	cmp	r2, #0
 80231c6:	f040 8091 	bne.w	80232ec <HAL_RCC_GetSysClockFreq+0x190>
        {
          case RCC_PLLSOURCE_HSI:  /* HSI used as PLL clock source */

            if (__HAL_RCC_GET_FLAG(RCC_FLAG_HSIDIV) != 0U)
 80231ca:	4b5a      	ldr	r3, [pc, #360]	@ (8023334 <HAL_RCC_GetSysClockFreq+0x1d8>)
 80231cc:	681b      	ldr	r3, [r3, #0]
 80231ce:	f013 0f20 	tst.w	r3, #32
 80231d2:	d023      	beq.n	802321c <HAL_RCC_GetSysClockFreq+0xc0>
            {
              hsivalue = (HSI_VALUE >> (__HAL_RCC_GET_HSI_DIVIDER() >> 3));
 80231d4:	4957      	ldr	r1, [pc, #348]	@ (8023334 <HAL_RCC_GetSysClockFreq+0x1d8>)
 80231d6:	680a      	ldr	r2, [r1, #0]
 80231d8:	f3c2 02c1 	ubfx	r2, r2, #3, #2
 80231dc:	4b56      	ldr	r3, [pc, #344]	@ (8023338 <HAL_RCC_GetSysClockFreq+0x1dc>)
 80231de:	40d3      	lsrs	r3, r2
              pllvco = ((float_t)hsivalue / (float_t)pllm) * ((float_t)(uint32_t)(RCC->PLL1DIVR & RCC_PLL1DIVR_N1) + (fracn1 / (float_t)0x2000) + (float_t)1);
 80231e0:	ee07 3a10 	vmov	s14, r3
 80231e4:	eef8 6a47 	vcvt.f32.u32	s13, s14
 80231e8:	ee07 0a10 	vmov	s14, r0
 80231ec:	eeb8 6a47 	vcvt.f32.u32	s12, s14
 80231f0:	ee86 7a86 	vdiv.f32	s14, s13, s12
 80231f4:	6b0b      	ldr	r3, [r1, #48]	@ 0x30
 80231f6:	f3c3 0308 	ubfx	r3, r3, #0, #9
 80231fa:	ee06 3a90 	vmov	s13, r3
 80231fe:	eef8 6a66 	vcvt.f32.u32	s13, s13
 8023202:	ed9f 6a4e 	vldr	s12, [pc, #312]	@ 802333c <HAL_RCC_GetSysClockFreq+0x1e0>
 8023206:	ee67 7a86 	vmul.f32	s15, s15, s12
 802320a:	ee76 7aa7 	vadd.f32	s15, s13, s15
 802320e:	eef7 6a00 	vmov.f32	s13, #112	@ 0x3f800000  1.0
 8023212:	ee77 7aa6 	vadd.f32	s15, s15, s13
 8023216:	ee27 7a27 	vmul.f32	s14, s14, s15
 802321a:	e038      	b.n	802328e <HAL_RCC_GetSysClockFreq+0x132>
            }
            else
            {
              pllvco = ((float_t)HSI_VALUE / (float_t)pllm) * ((float_t)(uint32_t)(RCC->PLL1DIVR & RCC_PLL1DIVR_N1) + (fracn1 / (float_t)0x2000) + (float_t)1);
 802321c:	ee07 0a10 	vmov	s14, r0
 8023220:	eef8 6a47 	vcvt.f32.u32	s13, s14
 8023224:	ed9f 6a46 	vldr	s12, [pc, #280]	@ 8023340 <HAL_RCC_GetSysClockFreq+0x1e4>
 8023228:	ee86 7a26 	vdiv.f32	s14, s12, s13
 802322c:	4b41      	ldr	r3, [pc, #260]	@ (8023334 <HAL_RCC_GetSysClockFreq+0x1d8>)
 802322e:	6b1b      	ldr	r3, [r3, #48]	@ 0x30
 8023230:	f3c3 0308 	ubfx	r3, r3, #0, #9
 8023234:	ee06 3a90 	vmov	s13, r3
 8023238:	eef8 6a66 	vcvt.f32.u32	s13, s13
 802323c:	ed9f 6a3f 	vldr	s12, [pc, #252]	@ 802333c <HAL_RCC_GetSysClockFreq+0x1e0>
 8023240:	ee67 7a86 	vmul.f32	s15, s15, s12
 8023244:	ee76 7aa7 	vadd.f32	s15, s13, s15
 8023248:	eef7 6a00 	vmov.f32	s13, #112	@ 0x3f800000  1.0
 802324c:	ee77 7aa6 	vadd.f32	s15, s15, s13
 8023250:	ee27 7a27 	vmul.f32	s14, s14, s15
 8023254:	e01b      	b.n	802328e <HAL_RCC_GetSysClockFreq+0x132>
            }
            break;

          case RCC_PLLSOURCE_CSI:  /* CSI used as PLL clock source */
            pllvco = ((float_t)CSI_VALUE / (float_t)pllm) * ((float_t)(uint32_t)(RCC->PLL1DIVR & RCC_PLL1DIVR_N1) + (fracn1 / (float_t)0x2000) + (float_t)1);
 8023256:	ee07 0a10 	vmov	s14, r0
 802325a:	eef8 6a47 	vcvt.f32.u32	s13, s14
 802325e:	ed9f 6a39 	vldr	s12, [pc, #228]	@ 8023344 <HAL_RCC_GetSysClockFreq+0x1e8>
 8023262:	ee86 7a26 	vdiv.f32	s14, s12, s13
 8023266:	4b33      	ldr	r3, [pc, #204]	@ (8023334 <HAL_RCC_GetSysClockFreq+0x1d8>)
 8023268:	6b1b      	ldr	r3, [r3, #48]	@ 0x30
 802326a:	f3c3 0308 	ubfx	r3, r3, #0, #9
 802326e:	ee06 3a90 	vmov	s13, r3
 8023272:	eef8 6a66 	vcvt.f32.u32	s13, s13
 8023276:	ed9f 6a31 	vldr	s12, [pc, #196]	@ 802333c <HAL_RCC_GetSysClockFreq+0x1e0>
 802327a:	ee67 7a86 	vmul.f32	s15, s15, s12
 802327e:	ee76 7aa7 	vadd.f32	s15, s13, s15
 8023282:	eef7 6a00 	vmov.f32	s13, #112	@ 0x3f800000  1.0
 8023286:	ee77 7aa6 	vadd.f32	s15, s15, s13
 802328a:	ee27 7a27 	vmul.f32	s14, s14, s15

          default:
            pllvco = ((float_t)CSI_VALUE / (float_t)pllm) * ((float_t)(uint32_t)(RCC->PLL1DIVR & RCC_PLL1DIVR_N1) + (fracn1 / (float_t)0x2000) + (float_t)1);
            break;
        }
        pllp = (((RCC->PLL1DIVR & RCC_PLL1DIVR_P1) >> 9) + 1U) ;
 802328e:	4b29      	ldr	r3, [pc, #164]	@ (8023334 <HAL_RCC_GetSysClockFreq+0x1d8>)
 8023290:	6b1b      	ldr	r3, [r3, #48]	@ 0x30
 8023292:	f3c3 2346 	ubfx	r3, r3, #9, #7
 8023296:	3301      	adds	r3, #1
        sysclockfreq = (uint32_t)(float_t)(pllvco / (float_t)pllp);
 8023298:	ee07 3a90 	vmov	s15, r3
 802329c:	eef8 7a67 	vcvt.f32.u32	s15, s15
 80232a0:	eec7 6a27 	vdiv.f32	s13, s14, s15
 80232a4:	eefc 7ae6 	vcvt.u32.f32	s15, s13
 80232a8:	ee17 0a90 	vmov	r0, s15
      sysclockfreq = CSI_VALUE;
      break;
  }

  return sysclockfreq;
}
 80232ac:	f85d 4b04 	ldr.w	r4, [sp], #4
 80232b0:	4770      	bx	lr
            pllvco = ((float_t)HSE_VALUE / (float_t)pllm) * ((float_t)(uint32_t)(RCC->PLL1DIVR & RCC_PLL1DIVR_N1) + (fracn1 / (float_t)0x2000) + (float_t)1);
 80232b2:	ee07 0a10 	vmov	s14, r0
 80232b6:	eef8 6a47 	vcvt.f32.u32	s13, s14
 80232ba:	ed9f 6a23 	vldr	s12, [pc, #140]	@ 8023348 <HAL_RCC_GetSysClockFreq+0x1ec>
 80232be:	ee86 7a26 	vdiv.f32	s14, s12, s13
 80232c2:	4b1c      	ldr	r3, [pc, #112]	@ (8023334 <HAL_RCC_GetSysClockFreq+0x1d8>)
 80232c4:	6b1b      	ldr	r3, [r3, #48]	@ 0x30
 80232c6:	f3c3 0308 	ubfx	r3, r3, #0, #9
 80232ca:	ee06 3a90 	vmov	s13, r3
 80232ce:	eef8 6a66 	vcvt.f32.u32	s13, s13
 80232d2:	ed9f 6a1a 	vldr	s12, [pc, #104]	@ 802333c <HAL_RCC_GetSysClockFreq+0x1e0>
 80232d6:	ee67 7a86 	vmul.f32	s15, s15, s12
 80232da:	ee76 7aa7 	vadd.f32	s15, s13, s15
 80232de:	eef7 6a00 	vmov.f32	s13, #112	@ 0x3f800000  1.0
 80232e2:	ee77 7aa6 	vadd.f32	s15, s15, s13
 80232e6:	ee27 7a27 	vmul.f32	s14, s14, s15
            break;
 80232ea:	e7d0      	b.n	802328e <HAL_RCC_GetSysClockFreq+0x132>
            pllvco = ((float_t)CSI_VALUE / (float_t)pllm) * ((float_t)(uint32_t)(RCC->PLL1DIVR & RCC_PLL1DIVR_N1) + (fracn1 / (float_t)0x2000) + (float_t)1);
 80232ec:	ee07 0a10 	vmov	s14, r0
 80232f0:	eef8 6a47 	vcvt.f32.u32	s13, s14
 80232f4:	ed9f 6a13 	vldr	s12, [pc, #76]	@ 8023344 <HAL_RCC_GetSysClockFreq+0x1e8>
 80232f8:	ee86 7a26 	vdiv.f32	s14, s12, s13
 80232fc:	4b0d      	ldr	r3, [pc, #52]	@ (8023334 <HAL_RCC_GetSysClockFreq+0x1d8>)
 80232fe:	6b1b      	ldr	r3, [r3, #48]	@ 0x30
 8023300:	f3c3 0308 	ubfx	r3, r3, #0, #9
 8023304:	ee06 3a90 	vmov	s13, r3
 8023308:	eef8 6a66 	vcvt.f32.u32	s13, s13
 802330c:	ed9f 6a0b 	vldr	s12, [pc, #44]	@ 802333c <HAL_RCC_GetSysClockFreq+0x1e0>
 8023310:	ee67 7a86 	vmul.f32	s15, s15, s12
 8023314:	ee76 7aa7 	vadd.f32	s15, s13, s15
 8023318:	eef7 6a00 	vmov.f32	s13, #112	@ 0x3f800000  1.0
 802331c:	ee77 7aa6 	vadd.f32	s15, s15, s13
 8023320:	ee27 7a27 	vmul.f32	s14, s14, s15
            break;
 8023324:	e7b3      	b.n	802328e <HAL_RCC_GetSysClockFreq+0x132>
      sysclockfreq = HSE_VALUE;
 8023326:	4809      	ldr	r0, [pc, #36]	@ (802334c <HAL_RCC_GetSysClockFreq+0x1f0>)
 8023328:	4770      	bx	lr
  switch (RCC->CFGR & RCC_CFGR_SWS)
 802332a:	4809      	ldr	r0, [pc, #36]	@ (8023350 <HAL_RCC_GetSysClockFreq+0x1f4>)
 802332c:	4770      	bx	lr
        sysclockfreq = (uint32_t) HSI_VALUE;
 802332e:	4802      	ldr	r0, [pc, #8]	@ (8023338 <HAL_RCC_GetSysClockFreq+0x1dc>)
}
 8023330:	4770      	bx	lr
 8023332:	bf00      	nop
 8023334:	58024400 	.word	0x58024400
 8023338:	03d09000 	.word	0x03d09000
 802333c:	39000000 	.word	0x39000000
 8023340:	4c742400 	.word	0x4c742400
 8023344:	4a742400 	.word	0x4a742400
 8023348:	4af42400 	.word	0x4af42400
 802334c:	007a1200 	.word	0x007a1200
 8023350:	003d0900 	.word	0x003d0900

08023354 <HAL_RCC_ClockConfig>:
  if (RCC_ClkInitStruct == NULL)
 8023354:	2800      	cmp	r0, #0
 8023356:	f000 8132 	beq.w	80235be <HAL_RCC_ClockConfig+0x26a>
{
 802335a:	b570      	push	{r4, r5, r6, lr}
 802335c:	460d      	mov	r5, r1
 802335e:	4604      	mov	r4, r0
  if (FLatency > __HAL_FLASH_GET_LATENCY())
 8023360:	4b9b      	ldr	r3, [pc, #620]	@ (80235d0 <HAL_RCC_ClockConfig+0x27c>)
 8023362:	681b      	ldr	r3, [r3, #0]
 8023364:	f003 030f 	and.w	r3, r3, #15
 8023368:	428b      	cmp	r3, r1
 802336a:	d20b      	bcs.n	8023384 <HAL_RCC_ClockConfig+0x30>
    __HAL_FLASH_SET_LATENCY(FLatency);
 802336c:	4a98      	ldr	r2, [pc, #608]	@ (80235d0 <HAL_RCC_ClockConfig+0x27c>)
 802336e:	6813      	ldr	r3, [r2, #0]
 8023370:	f023 030f 	bic.w	r3, r3, #15
 8023374:	430b      	orrs	r3, r1
 8023376:	6013      	str	r3, [r2, #0]
    if (__HAL_FLASH_GET_LATENCY() != FLatency)
 8023378:	6813      	ldr	r3, [r2, #0]
 802337a:	f003 030f 	and.w	r3, r3, #15
 802337e:	428b      	cmp	r3, r1
 8023380:	f040 811f 	bne.w	80235c2 <HAL_RCC_ClockConfig+0x26e>
  if (((RCC_ClkInitStruct->ClockType) & RCC_CLOCKTYPE_D1PCLK1) == RCC_CLOCKTYPE_D1PCLK1)
 8023384:	6823      	ldr	r3, [r4, #0]
 8023386:	f013 0f04 	tst.w	r3, #4
 802338a:	d00c      	beq.n	80233a6 <HAL_RCC_ClockConfig+0x52>
    if ((RCC_ClkInitStruct->APB3CLKDivider) > (RCC->D1CFGR & RCC_D1CFGR_D1PPRE))
 802338c:	6922      	ldr	r2, [r4, #16]
 802338e:	4b91      	ldr	r3, [pc, #580]	@ (80235d4 <HAL_RCC_ClockConfig+0x280>)
 8023390:	699b      	ldr	r3, [r3, #24]
 8023392:	f003 0370 	and.w	r3, r3, #112	@ 0x70
 8023396:	429a      	cmp	r2, r3
 8023398:	d905      	bls.n	80233a6 <HAL_RCC_ClockConfig+0x52>
      MODIFY_REG(RCC->D1CFGR, RCC_D1CFGR_D1PPRE, RCC_ClkInitStruct->APB3CLKDivider);
 802339a:	498e      	ldr	r1, [pc, #568]	@ (80235d4 <HAL_RCC_ClockConfig+0x280>)
 802339c:	698b      	ldr	r3, [r1, #24]
 802339e:	f023 0370 	bic.w	r3, r3, #112	@ 0x70
 80233a2:	431a      	orrs	r2, r3
 80233a4:	618a      	str	r2, [r1, #24]
  if (((RCC_ClkInitStruct->ClockType) & RCC_CLOCKTYPE_PCLK1) == RCC_CLOCKTYPE_PCLK1)
 80233a6:	6823      	ldr	r3, [r4, #0]
 80233a8:	f013 0f08 	tst.w	r3, #8
 80233ac:	d00c      	beq.n	80233c8 <HAL_RCC_ClockConfig+0x74>
    if ((RCC_ClkInitStruct->APB1CLKDivider) > (RCC->D2CFGR & RCC_D2CFGR_D2PPRE1))
 80233ae:	6962      	ldr	r2, [r4, #20]
 80233b0:	4b88      	ldr	r3, [pc, #544]	@ (80235d4 <HAL_RCC_ClockConfig+0x280>)
 80233b2:	69db      	ldr	r3, [r3, #28]
 80233b4:	f003 0370 	and.w	r3, r3, #112	@ 0x70
 80233b8:	429a      	cmp	r2, r3
 80233ba:	d905      	bls.n	80233c8 <HAL_RCC_ClockConfig+0x74>
      MODIFY_REG(RCC->D2CFGR, RCC_D2CFGR_D2PPRE1, (RCC_ClkInitStruct->APB1CLKDivider));
 80233bc:	4985      	ldr	r1, [pc, #532]	@ (80235d4 <HAL_RCC_ClockConfig+0x280>)
 80233be:	69cb      	ldr	r3, [r1, #28]
 80233c0:	f023 0370 	bic.w	r3, r3, #112	@ 0x70
 80233c4:	431a      	orrs	r2, r3
 80233c6:	61ca      	str	r2, [r1, #28]
  if (((RCC_ClkInitStruct->ClockType) & RCC_CLOCKTYPE_PCLK2) == RCC_CLOCKTYPE_PCLK2)
 80233c8:	6823      	ldr	r3, [r4, #0]
 80233ca:	f013 0f10 	tst.w	r3, #16
 80233ce:	d00c      	beq.n	80233ea <HAL_RCC_ClockConfig+0x96>
    if ((RCC_ClkInitStruct->APB2CLKDivider) > (RCC->D2CFGR & RCC_D2CFGR_D2PPRE2))
 80233d0:	69a2      	ldr	r2, [r4, #24]
 80233d2:	4b80      	ldr	r3, [pc, #512]	@ (80235d4 <HAL_RCC_ClockConfig+0x280>)
 80233d4:	69db      	ldr	r3, [r3, #28]
 80233d6:	f403 63e0 	and.w	r3, r3, #1792	@ 0x700
 80233da:	429a      	cmp	r2, r3
 80233dc:	d905      	bls.n	80233ea <HAL_RCC_ClockConfig+0x96>
      MODIFY_REG(RCC->D2CFGR, RCC_D2CFGR_D2PPRE2, (RCC_ClkInitStruct->APB2CLKDivider));
 80233de:	497d      	ldr	r1, [pc, #500]	@ (80235d4 <HAL_RCC_ClockConfig+0x280>)
 80233e0:	69cb      	ldr	r3, [r1, #28]
 80233e2:	f423 63e0 	bic.w	r3, r3, #1792	@ 0x700
 80233e6:	431a      	orrs	r2, r3
 80233e8:	61ca      	str	r2, [r1, #28]
  if (((RCC_ClkInitStruct->ClockType) & RCC_CLOCKTYPE_D3PCLK1) == RCC_CLOCKTYPE_D3PCLK1)
 80233ea:	6823      	ldr	r3, [r4, #0]
 80233ec:	f013 0f20 	tst.w	r3, #32
 80233f0:	d00c      	beq.n	802340c <HAL_RCC_ClockConfig+0xb8>
    if ((RCC_ClkInitStruct->APB4CLKDivider) > (RCC->D3CFGR & RCC_D3CFGR_D3PPRE))
 80233f2:	69e2      	ldr	r2, [r4, #28]
 80233f4:	4b77      	ldr	r3, [pc, #476]	@ (80235d4 <HAL_RCC_ClockConfig+0x280>)
 80233f6:	6a1b      	ldr	r3, [r3, #32]
 80233f8:	f003 0370 	and.w	r3, r3, #112	@ 0x70
 80233fc:	429a      	cmp	r2, r3
 80233fe:	d905      	bls.n	802340c <HAL_RCC_ClockConfig+0xb8>
      MODIFY_REG(RCC->D3CFGR, RCC_D3CFGR_D3PPRE, (RCC_ClkInitStruct->APB4CLKDivider));
 8023400:	4974      	ldr	r1, [pc, #464]	@ (80235d4 <HAL_RCC_ClockConfig+0x280>)
 8023402:	6a0b      	ldr	r3, [r1, #32]
 8023404:	f023 0370 	bic.w	r3, r3, #112	@ 0x70
 8023408:	431a      	orrs	r2, r3
 802340a:	620a      	str	r2, [r1, #32]
  if (((RCC_ClkInitStruct->ClockType) & RCC_CLOCKTYPE_HCLK) == RCC_CLOCKTYPE_HCLK)
 802340c:	6823      	ldr	r3, [r4, #0]
 802340e:	f013 0f02 	tst.w	r3, #2
 8023412:	d00c      	beq.n	802342e <HAL_RCC_ClockConfig+0xda>
    if ((RCC_ClkInitStruct->AHBCLKDivider) > (RCC->D1CFGR & RCC_D1CFGR_HPRE))
 8023414:	68e2      	ldr	r2, [r4, #12]
 8023416:	4b6f      	ldr	r3, [pc, #444]	@ (80235d4 <HAL_RCC_ClockConfig+0x280>)
 8023418:	699b      	ldr	r3, [r3, #24]
 802341a:	f003 030f 	and.w	r3, r3, #15
 802341e:	429a      	cmp	r2, r3
 8023420:	d905      	bls.n	802342e <HAL_RCC_ClockConfig+0xda>
      MODIFY_REG(RCC->D1CFGR, RCC_D1CFGR_HPRE, RCC_ClkInitStruct->AHBCLKDivider);
 8023422:	496c      	ldr	r1, [pc, #432]	@ (80235d4 <HAL_RCC_ClockConfig+0x280>)
 8023424:	698b      	ldr	r3, [r1, #24]
 8023426:	f023 030f 	bic.w	r3, r3, #15
 802342a:	431a      	orrs	r2, r3
 802342c:	618a      	str	r2, [r1, #24]
  if (((RCC_ClkInitStruct->ClockType) & RCC_CLOCKTYPE_SYSCLK) == RCC_CLOCKTYPE_SYSCLK)
 802342e:	6823      	ldr	r3, [r4, #0]
 8023430:	f013 0f01 	tst.w	r3, #1
 8023434:	d041      	beq.n	80234ba <HAL_RCC_ClockConfig+0x166>
    MODIFY_REG(RCC->D1CFGR, RCC_D1CFGR_D1CPRE, RCC_ClkInitStruct->SYSCLKDivider);
 8023436:	4a67      	ldr	r2, [pc, #412]	@ (80235d4 <HAL_RCC_ClockConfig+0x280>)
 8023438:	6993      	ldr	r3, [r2, #24]
 802343a:	f423 6370 	bic.w	r3, r3, #3840	@ 0xf00
 802343e:	68a1      	ldr	r1, [r4, #8]
 8023440:	430b      	orrs	r3, r1
 8023442:	6193      	str	r3, [r2, #24]
    if (RCC_ClkInitStruct->SYSCLKSource == RCC_SYSCLKSOURCE_HSE)
 8023444:	6863      	ldr	r3, [r4, #4]
 8023446:	2b02      	cmp	r3, #2
 8023448:	d00a      	beq.n	8023460 <HAL_RCC_ClockConfig+0x10c>
    else if (RCC_ClkInitStruct->SYSCLKSource == RCC_SYSCLKSOURCE_PLLCLK)
 802344a:	2b03      	cmp	r3, #3
 802344c:	d027      	beq.n	802349e <HAL_RCC_ClockConfig+0x14a>
    else if (RCC_ClkInitStruct->SYSCLKSource == RCC_SYSCLKSOURCE_CSI)
 802344e:	2b01      	cmp	r3, #1
 8023450:	d02c      	beq.n	80234ac <HAL_RCC_ClockConfig+0x158>
      if (__HAL_RCC_GET_FLAG(RCC_FLAG_HSIRDY) == 0U)
 8023452:	4a60      	ldr	r2, [pc, #384]	@ (80235d4 <HAL_RCC_ClockConfig+0x280>)
 8023454:	6812      	ldr	r2, [r2, #0]
 8023456:	f012 0f04 	tst.w	r2, #4
 802345a:	d106      	bne.n	802346a <HAL_RCC_ClockConfig+0x116>
        return HAL_ERROR;
 802345c:	2001      	movs	r0, #1
 802345e:	e0ad      	b.n	80235bc <HAL_RCC_ClockConfig+0x268>
      if (__HAL_RCC_GET_FLAG(RCC_FLAG_HSERDY) == 0U)
 8023460:	6812      	ldr	r2, [r2, #0]
 8023462:	f412 3f00 	tst.w	r2, #131072	@ 0x20000
 8023466:	f000 80ae 	beq.w	80235c6 <HAL_RCC_ClockConfig+0x272>
    MODIFY_REG(RCC->CFGR, RCC_CFGR_SW, RCC_ClkInitStruct->SYSCLKSource);
 802346a:	495a      	ldr	r1, [pc, #360]	@ (80235d4 <HAL_RCC_ClockConfig+0x280>)
 802346c:	690a      	ldr	r2, [r1, #16]
 802346e:	f022 0207 	bic.w	r2, r2, #7
 8023472:	4313      	orrs	r3, r2
 8023474:	610b      	str	r3, [r1, #16]
    tickstart = HAL_GetTick();
 8023476:	f7fd fdd7 	bl	8021028 <HAL_GetTick>
 802347a:	4606      	mov	r6, r0
    while (__HAL_RCC_GET_SYSCLK_SOURCE() != (RCC_ClkInitStruct->SYSCLKSource << RCC_CFGR_SWS_Pos))
 802347c:	4b55      	ldr	r3, [pc, #340]	@ (80235d4 <HAL_RCC_ClockConfig+0x280>)
 802347e:	691b      	ldr	r3, [r3, #16]
 8023480:	f003 0338 	and.w	r3, r3, #56	@ 0x38
 8023484:	6862      	ldr	r2, [r4, #4]
 8023486:	ebb3 0fc2 	cmp.w	r3, r2, lsl #3
 802348a:	d016      	beq.n	80234ba <HAL_RCC_ClockConfig+0x166>
      if ((HAL_GetTick() - tickstart) > CLOCKSWITCH_TIMEOUT_VALUE)
 802348c:	f7fd fdcc 	bl	8021028 <HAL_GetTick>
 8023490:	1b80      	subs	r0, r0, r6
 8023492:	f241 3388 	movw	r3, #5000	@ 0x1388
 8023496:	4298      	cmp	r0, r3
 8023498:	d9f0      	bls.n	802347c <HAL_RCC_ClockConfig+0x128>
        return HAL_TIMEOUT;
 802349a:	2003      	movs	r0, #3
 802349c:	e08e      	b.n	80235bc <HAL_RCC_ClockConfig+0x268>
      if (__HAL_RCC_GET_FLAG(RCC_FLAG_PLLRDY) == 0U)
 802349e:	4a4d      	ldr	r2, [pc, #308]	@ (80235d4 <HAL_RCC_ClockConfig+0x280>)
 80234a0:	6812      	ldr	r2, [r2, #0]
 80234a2:	f012 7f00 	tst.w	r2, #33554432	@ 0x2000000
 80234a6:	d1e0      	bne.n	802346a <HAL_RCC_ClockConfig+0x116>
        return HAL_ERROR;
 80234a8:	2001      	movs	r0, #1
 80234aa:	e087      	b.n	80235bc <HAL_RCC_ClockConfig+0x268>
      if (__HAL_RCC_GET_FLAG(RCC_FLAG_CSIRDY) == 0U)
 80234ac:	4a49      	ldr	r2, [pc, #292]	@ (80235d4 <HAL_RCC_ClockConfig+0x280>)
 80234ae:	6812      	ldr	r2, [r2, #0]
 80234b0:	f412 7f80 	tst.w	r2, #256	@ 0x100
 80234b4:	d1d9      	bne.n	802346a <HAL_RCC_ClockConfig+0x116>
        return HAL_ERROR;
 80234b6:	2001      	movs	r0, #1
 80234b8:	e080      	b.n	80235bc <HAL_RCC_ClockConfig+0x268>
  if (((RCC_ClkInitStruct->ClockType) & RCC_CLOCKTYPE_HCLK) == RCC_CLOCKTYPE_HCLK)
 80234ba:	6823      	ldr	r3, [r4, #0]
 80234bc:	f013 0f02 	tst.w	r3, #2
 80234c0:	d00c      	beq.n	80234dc <HAL_RCC_ClockConfig+0x188>
    if ((RCC_ClkInitStruct->AHBCLKDivider) < (RCC->D1CFGR & RCC_D1CFGR_HPRE))
 80234c2:	68e2      	ldr	r2, [r4, #12]
 80234c4:	4b43      	ldr	r3, [pc, #268]	@ (80235d4 <HAL_RCC_ClockConfig+0x280>)
 80234c6:	699b      	ldr	r3, [r3, #24]
 80234c8:	f003 030f 	and.w	r3, r3, #15
 80234cc:	429a      	cmp	r2, r3
 80234ce:	d205      	bcs.n	80234dc <HAL_RCC_ClockConfig+0x188>
      MODIFY_REG(RCC->D1CFGR, RCC_D1CFGR_HPRE, RCC_ClkInitStruct->AHBCLKDivider);
 80234d0:	4940      	ldr	r1, [pc, #256]	@ (80235d4 <HAL_RCC_ClockConfig+0x280>)
 80234d2:	698b      	ldr	r3, [r1, #24]
 80234d4:	f023 030f 	bic.w	r3, r3, #15
 80234d8:	431a      	orrs	r2, r3
 80234da:	618a      	str	r2, [r1, #24]
  if (FLatency < __HAL_FLASH_GET_LATENCY())
 80234dc:	4b3c      	ldr	r3, [pc, #240]	@ (80235d0 <HAL_RCC_ClockConfig+0x27c>)
 80234de:	681b      	ldr	r3, [r3, #0]
 80234e0:	f003 030f 	and.w	r3, r3, #15
 80234e4:	42ab      	cmp	r3, r5
 80234e6:	d90a      	bls.n	80234fe <HAL_RCC_ClockConfig+0x1aa>
    __HAL_FLASH_SET_LATENCY(FLatency);
 80234e8:	4a39      	ldr	r2, [pc, #228]	@ (80235d0 <HAL_RCC_ClockConfig+0x27c>)
 80234ea:	6813      	ldr	r3, [r2, #0]
 80234ec:	f023 030f 	bic.w	r3, r3, #15
 80234f0:	432b      	orrs	r3, r5
 80234f2:	6013      	str	r3, [r2, #0]
    if (__HAL_FLASH_GET_LATENCY() != FLatency)
 80234f4:	6813      	ldr	r3, [r2, #0]
 80234f6:	f003 030f 	and.w	r3, r3, #15
 80234fa:	42ab      	cmp	r3, r5
 80234fc:	d165      	bne.n	80235ca <HAL_RCC_ClockConfig+0x276>
  if (((RCC_ClkInitStruct->ClockType) & RCC_CLOCKTYPE_D1PCLK1) == RCC_CLOCKTYPE_D1PCLK1)
 80234fe:	6823      	ldr	r3, [r4, #0]
 8023500:	f013 0f04 	tst.w	r3, #4
 8023504:	d00c      	beq.n	8023520 <HAL_RCC_ClockConfig+0x1cc>
    if ((RCC_ClkInitStruct->APB3CLKDivider) < (RCC->D1CFGR & RCC_D1CFGR_D1PPRE))
 8023506:	6922      	ldr	r2, [r4, #16]
 8023508:	4b32      	ldr	r3, [pc, #200]	@ (80235d4 <HAL_RCC_ClockConfig+0x280>)
 802350a:	699b      	ldr	r3, [r3, #24]
 802350c:	f003 0370 	and.w	r3, r3, #112	@ 0x70
 8023510:	429a      	cmp	r2, r3
 8023512:	d205      	bcs.n	8023520 <HAL_RCC_ClockConfig+0x1cc>
      MODIFY_REG(RCC->D1CFGR, RCC_D1CFGR_D1PPRE, RCC_ClkInitStruct->APB3CLKDivider);
 8023514:	492f      	ldr	r1, [pc, #188]	@ (80235d4 <HAL_RCC_ClockConfig+0x280>)
 8023516:	698b      	ldr	r3, [r1, #24]
 8023518:	f023 0370 	bic.w	r3, r3, #112	@ 0x70
 802351c:	431a      	orrs	r2, r3
 802351e:	618a      	str	r2, [r1, #24]
  if (((RCC_ClkInitStruct->ClockType) & RCC_CLOCKTYPE_PCLK1) == RCC_CLOCKTYPE_PCLK1)
 8023520:	6823      	ldr	r3, [r4, #0]
 8023522:	f013 0f08 	tst.w	r3, #8
 8023526:	d00c      	beq.n	8023542 <HAL_RCC_ClockConfig+0x1ee>
    if ((RCC_ClkInitStruct->APB1CLKDivider) < (RCC->D2CFGR & RCC_D2CFGR_D2PPRE1))
 8023528:	6962      	ldr	r2, [r4, #20]
 802352a:	4b2a      	ldr	r3, [pc, #168]	@ (80235d4 <HAL_RCC_ClockConfig+0x280>)
 802352c:	69db      	ldr	r3, [r3, #28]
 802352e:	f003 0370 	and.w	r3, r3, #112	@ 0x70
 8023532:	429a      	cmp	r2, r3
 8023534:	d205      	bcs.n	8023542 <HAL_RCC_ClockConfig+0x1ee>
      MODIFY_REG(RCC->D2CFGR, RCC_D2CFGR_D2PPRE1, (RCC_ClkInitStruct->APB1CLKDivider));
 8023536:	4927      	ldr	r1, [pc, #156]	@ (80235d4 <HAL_RCC_ClockConfig+0x280>)
 8023538:	69cb      	ldr	r3, [r1, #28]
 802353a:	f023 0370 	bic.w	r3, r3, #112	@ 0x70
 802353e:	431a      	orrs	r2, r3
 8023540:	61ca      	str	r2, [r1, #28]
  if (((RCC_ClkInitStruct->ClockType) & RCC_CLOCKTYPE_PCLK2) == RCC_CLOCKTYPE_PCLK2)
 8023542:	6823      	ldr	r3, [r4, #0]
 8023544:	f013 0f10 	tst.w	r3, #16
 8023548:	d00c      	beq.n	8023564 <HAL_RCC_ClockConfig+0x210>
    if ((RCC_ClkInitStruct->APB2CLKDivider) < (RCC->D2CFGR & RCC_D2CFGR_D2PPRE2))
 802354a:	69a2      	ldr	r2, [r4, #24]
 802354c:	4b21      	ldr	r3, [pc, #132]	@ (80235d4 <HAL_RCC_ClockConfig+0x280>)
 802354e:	69db      	ldr	r3, [r3, #28]
 8023550:	f403 63e0 	and.w	r3, r3, #1792	@ 0x700
 8023554:	429a      	cmp	r2, r3
 8023556:	d205      	bcs.n	8023564 <HAL_RCC_ClockConfig+0x210>
      MODIFY_REG(RCC->D2CFGR, RCC_D2CFGR_D2PPRE2, (RCC_ClkInitStruct->APB2CLKDivider));
 8023558:	491e      	ldr	r1, [pc, #120]	@ (80235d4 <HAL_RCC_ClockConfig+0x280>)
 802355a:	69cb      	ldr	r3, [r1, #28]
 802355c:	f423 63e0 	bic.w	r3, r3, #1792	@ 0x700
 8023560:	431a      	orrs	r2, r3
 8023562:	61ca      	str	r2, [r1, #28]
  if (((RCC_ClkInitStruct->ClockType) & RCC_CLOCKTYPE_D3PCLK1) == RCC_CLOCKTYPE_D3PCLK1)
 8023564:	6823      	ldr	r3, [r4, #0]
 8023566:	f013 0f20 	tst.w	r3, #32
 802356a:	d00c      	beq.n	8023586 <HAL_RCC_ClockConfig+0x232>
    if ((RCC_ClkInitStruct->APB4CLKDivider) < (RCC->D3CFGR & RCC_D3CFGR_D3PPRE))
 802356c:	69e2      	ldr	r2, [r4, #28]
 802356e:	4b19      	ldr	r3, [pc, #100]	@ (80235d4 <HAL_RCC_ClockConfig+0x280>)
 8023570:	6a1b      	ldr	r3, [r3, #32]
 8023572:	f003 0370 	and.w	r3, r3, #112	@ 0x70
 8023576:	429a      	cmp	r2, r3
 8023578:	d205      	bcs.n	8023586 <HAL_RCC_ClockConfig+0x232>
      MODIFY_REG(RCC->D3CFGR, RCC_D3CFGR_D3PPRE, (RCC_ClkInitStruct->APB4CLKDivider));
 802357a:	4916      	ldr	r1, [pc, #88]	@ (80235d4 <HAL_RCC_ClockConfig+0x280>)
 802357c:	6a0b      	ldr	r3, [r1, #32]
 802357e:	f023 0370 	bic.w	r3, r3, #112	@ 0x70
 8023582:	431a      	orrs	r2, r3
 8023584:	620a      	str	r2, [r1, #32]
  common_system_clock = HAL_RCC_GetSysClockFreq() >> ((D1CorePrescTable[(RCC->D1CFGR & RCC_D1CFGR_D1CPRE) >> RCC_D1CFGR_D1CPRE_Pos]) & 0x1FU);
 8023586:	f7ff fde9 	bl	802315c <HAL_RCC_GetSysClockFreq>
 802358a:	4912      	ldr	r1, [pc, #72]	@ (80235d4 <HAL_RCC_ClockConfig+0x280>)
 802358c:	698b      	ldr	r3, [r1, #24]
 802358e:	f3c3 2303 	ubfx	r3, r3, #8, #4
 8023592:	4a11      	ldr	r2, [pc, #68]	@ (80235d8 <HAL_RCC_ClockConfig+0x284>)
 8023594:	5cd3      	ldrb	r3, [r2, r3]
 8023596:	f003 031f 	and.w	r3, r3, #31
 802359a:	40d8      	lsrs	r0, r3
  SystemD2Clock = (common_system_clock >> ((D1CorePrescTable[(RCC->D1CFGR & RCC_D1CFGR_HPRE) >> RCC_D1CFGR_HPRE_Pos]) & 0x1FU));
 802359c:	698b      	ldr	r3, [r1, #24]
 802359e:	f003 030f 	and.w	r3, r3, #15
 80235a2:	5cd3      	ldrb	r3, [r2, r3]
 80235a4:	f003 031f 	and.w	r3, r3, #31
 80235a8:	fa20 f303 	lsr.w	r3, r0, r3
 80235ac:	4a0b      	ldr	r2, [pc, #44]	@ (80235dc <HAL_RCC_ClockConfig+0x288>)
 80235ae:	6013      	str	r3, [r2, #0]
  SystemCoreClock = common_system_clock;
 80235b0:	4b0b      	ldr	r3, [pc, #44]	@ (80235e0 <HAL_RCC_ClockConfig+0x28c>)
 80235b2:	6018      	str	r0, [r3, #0]
  halstatus = HAL_InitTick(uwTickPrio);
 80235b4:	4b0b      	ldr	r3, [pc, #44]	@ (80235e4 <HAL_RCC_ClockConfig+0x290>)
 80235b6:	6818      	ldr	r0, [r3, #0]
 80235b8:	f7fd fcd4 	bl	8020f64 <HAL_InitTick>
}
 80235bc:	bd70      	pop	{r4, r5, r6, pc}
    return HAL_ERROR;
 80235be:	2001      	movs	r0, #1
}
 80235c0:	4770      	bx	lr
      return HAL_ERROR;
 80235c2:	2001      	movs	r0, #1
 80235c4:	e7fa      	b.n	80235bc <HAL_RCC_ClockConfig+0x268>
        return HAL_ERROR;
 80235c6:	2001      	movs	r0, #1
 80235c8:	e7f8      	b.n	80235bc <HAL_RCC_ClockConfig+0x268>
      return HAL_ERROR;
 80235ca:	2001      	movs	r0, #1
 80235cc:	e7f6      	b.n	80235bc <HAL_RCC_ClockConfig+0x268>
 80235ce:	bf00      	nop
 80235d0:	52002000 	.word	0x52002000
 80235d4:	58024400 	.word	0x58024400
 80235d8:	08026e60 	.word	0x08026e60
 80235dc:	24000040 	.word	0x24000040
 80235e0:	24000044 	.word	0x24000044
 80235e4:	2400004c 	.word	0x2400004c

080235e8 <HAL_RCC_GetHCLKFreq>:
  * @note   The SystemD2Clock CMSIS variable is used to store System domain2 Clock Frequency
  *         and updated within this function
  * @retval HCLK frequency
  */
uint32_t HAL_RCC_GetHCLKFreq(void)
{
 80235e8:	b508      	push	{r3, lr}
  uint32_t common_system_clock;

#if defined(RCC_D1CFGR_D1CPRE)
  common_system_clock = HAL_RCC_GetSysClockFreq() >> (D1CorePrescTable[(RCC->D1CFGR & RCC_D1CFGR_D1CPRE) >> RCC_D1CFGR_D1CPRE_Pos] & 0x1FU);
 80235ea:	f7ff fdb7 	bl	802315c <HAL_RCC_GetSysClockFreq>
 80235ee:	4a0b      	ldr	r2, [pc, #44]	@ (802361c <HAL_RCC_GetHCLKFreq+0x34>)
 80235f0:	6993      	ldr	r3, [r2, #24]
 80235f2:	f3c3 2303 	ubfx	r3, r3, #8, #4
 80235f6:	490a      	ldr	r1, [pc, #40]	@ (8023620 <HAL_RCC_GetHCLKFreq+0x38>)
 80235f8:	5ccb      	ldrb	r3, [r1, r3]
 80235fa:	f003 031f 	and.w	r3, r3, #31
 80235fe:	fa20 f303 	lsr.w	r3, r0, r3
#else
  common_system_clock = HAL_RCC_GetSysClockFreq() >> (D1CorePrescTable[(RCC->CDCFGR1 & RCC_CDCFGR1_CDCPRE) >> RCC_CDCFGR1_CDCPRE_Pos] & 0x1FU);
#endif

#if defined(RCC_D1CFGR_HPRE)
  SystemD2Clock = (common_system_clock >> ((D1CorePrescTable[(RCC->D1CFGR & RCC_D1CFGR_HPRE) >> RCC_D1CFGR_HPRE_Pos]) & 0x1FU));
 8023602:	6992      	ldr	r2, [r2, #24]
 8023604:	f002 020f 	and.w	r2, r2, #15
 8023608:	5c88      	ldrb	r0, [r1, r2]
 802360a:	f000 001f 	and.w	r0, r0, #31
 802360e:	fa23 f000 	lsr.w	r0, r3, r0
 8023612:	4a04      	ldr	r2, [pc, #16]	@ (8023624 <HAL_RCC_GetHCLKFreq+0x3c>)
 8023614:	6010      	str	r0, [r2, #0]
#endif

#if defined(DUAL_CORE) && defined(CORE_CM4)
  SystemCoreClock = SystemD2Clock;
#else
  SystemCoreClock = common_system_clock;
 8023616:	4a04      	ldr	r2, [pc, #16]	@ (8023628 <HAL_RCC_GetHCLKFreq+0x40>)
 8023618:	6013      	str	r3, [r2, #0]
#endif /* DUAL_CORE && CORE_CM4 */

  return SystemD2Clock;
}
 802361a:	bd08      	pop	{r3, pc}
 802361c:	58024400 	.word	0x58024400
 8023620:	08026e60 	.word	0x08026e60
 8023624:	24000040 	.word	0x24000040
 8023628:	24000044 	.word	0x24000044

0802362c <HAL_RCC_GetPCLK1Freq>:
  * @note   Each time PCLK1 changes, this function must be called to update the
  *         right PCLK1 value. Otherwise, any configuration based on this function will be incorrect.
  * @retval PCLK1 frequency
  */
uint32_t HAL_RCC_GetPCLK1Freq(void)
{
 802362c:	b508      	push	{r3, lr}
#if defined (RCC_D2CFGR_D2PPRE1)
  /* Get HCLK source and Compute PCLK1 frequency ---------------------------*/
  return (HAL_RCC_GetHCLKFreq() >> ((D1CorePrescTable[(RCC->D2CFGR & RCC_D2CFGR_D2PPRE1) >> RCC_D2CFGR_D2PPRE1_Pos]) & 0x1FU));
 802362e:	f7ff ffdb 	bl	80235e8 <HAL_RCC_GetHCLKFreq>
 8023632:	4b05      	ldr	r3, [pc, #20]	@ (8023648 <HAL_RCC_GetPCLK1Freq+0x1c>)
 8023634:	69db      	ldr	r3, [r3, #28]
 8023636:	f3c3 1302 	ubfx	r3, r3, #4, #3
 802363a:	4a04      	ldr	r2, [pc, #16]	@ (802364c <HAL_RCC_GetPCLK1Freq+0x20>)
 802363c:	5cd3      	ldrb	r3, [r2, r3]
 802363e:	f003 031f 	and.w	r3, r3, #31
#else
  /* Get HCLK source and Compute PCLK1 frequency ---------------------------*/
  return (HAL_RCC_GetHCLKFreq() >> ((D1CorePrescTable[(RCC->CDCFGR2 & RCC_CDCFGR2_CDPPRE1) >> RCC_CDCFGR2_CDPPRE1_Pos]) & 0x1FU));
#endif
}
 8023642:	40d8      	lsrs	r0, r3
 8023644:	bd08      	pop	{r3, pc}
 8023646:	bf00      	nop
 8023648:	58024400 	.word	0x58024400
 802364c:	08026e60 	.word	0x08026e60

08023650 <RCCEx_PLL2_Config>:
  assert_param(IS_RCC_PLL2RGE_VALUE(pll2->PLL2RGE));
  assert_param(IS_RCC_PLL2VCO_VALUE(pll2->PLL2VCOSEL));
  assert_param(IS_RCC_PLLFRACN_VALUE(pll2->PLL2FRACN));

  /* Check that PLL2 OSC clock source is already set */
  if (__HAL_RCC_GET_PLL_OSCSOURCE() == RCC_PLLSOURCE_NONE)
 8023650:	4b40      	ldr	r3, [pc, #256]	@ (8023754 <RCCEx_PLL2_Config+0x104>)
 8023652:	6a9b      	ldr	r3, [r3, #40]	@ 0x28
 8023654:	f003 0303 	and.w	r3, r3, #3
 8023658:	2b03      	cmp	r3, #3
 802365a:	d079      	beq.n	8023750 <RCCEx_PLL2_Config+0x100>
{
 802365c:	b570      	push	{r4, r5, r6, lr}
 802365e:	4605      	mov	r5, r0
 8023660:	460e      	mov	r6, r1


  else
  {
    /* Disable  PLL2. */
    __HAL_RCC_PLL2_DISABLE();
 8023662:	4a3c      	ldr	r2, [pc, #240]	@ (8023754 <RCCEx_PLL2_Config+0x104>)
 8023664:	6813      	ldr	r3, [r2, #0]
 8023666:	f023 6380 	bic.w	r3, r3, #67108864	@ 0x4000000
 802366a:	6013      	str	r3, [r2, #0]

    /* Get Start Tick*/
    tickstart = HAL_GetTick();
 802366c:	f7fd fcdc 	bl	8021028 <HAL_GetTick>
 8023670:	4604      	mov	r4, r0

    /* Wait till PLL is disabled */
    while (__HAL_RCC_GET_FLAG(RCC_FLAG_PLL2RDY) != 0U)
 8023672:	4b38      	ldr	r3, [pc, #224]	@ (8023754 <RCCEx_PLL2_Config+0x104>)
 8023674:	681b      	ldr	r3, [r3, #0]
 8023676:	f013 6f00 	tst.w	r3, #134217728	@ 0x8000000
 802367a:	d006      	beq.n	802368a <RCCEx_PLL2_Config+0x3a>
    {
      if ((HAL_GetTick() - tickstart) > PLL2_TIMEOUT_VALUE)
 802367c:	f7fd fcd4 	bl	8021028 <HAL_GetTick>
 8023680:	1b03      	subs	r3, r0, r4
 8023682:	2b02      	cmp	r3, #2
 8023684:	d9f5      	bls.n	8023672 <RCCEx_PLL2_Config+0x22>
      {
        return HAL_TIMEOUT;
 8023686:	2003      	movs	r0, #3

  }


  return status;
}
 8023688:	bd70      	pop	{r4, r5, r6, pc}
    __HAL_RCC_PLL2_CONFIG(pll2->PLL2M,
 802368a:	4b32      	ldr	r3, [pc, #200]	@ (8023754 <RCCEx_PLL2_Config+0x104>)
 802368c:	6a9a      	ldr	r2, [r3, #40]	@ 0x28
 802368e:	f422 327c 	bic.w	r2, r2, #258048	@ 0x3f000
 8023692:	6829      	ldr	r1, [r5, #0]
 8023694:	ea42 3201 	orr.w	r2, r2, r1, lsl #12
 8023698:	629a      	str	r2, [r3, #40]	@ 0x28
 802369a:	686a      	ldr	r2, [r5, #4]
 802369c:	3a01      	subs	r2, #1
 802369e:	f3c2 0208 	ubfx	r2, r2, #0, #9
 80236a2:	68a9      	ldr	r1, [r5, #8]
 80236a4:	3901      	subs	r1, #1
 80236a6:	0249      	lsls	r1, r1, #9
 80236a8:	b289      	uxth	r1, r1
 80236aa:	430a      	orrs	r2, r1
 80236ac:	68e9      	ldr	r1, [r5, #12]
 80236ae:	3901      	subs	r1, #1
 80236b0:	0409      	lsls	r1, r1, #16
 80236b2:	f401 01fe 	and.w	r1, r1, #8323072	@ 0x7f0000
 80236b6:	430a      	orrs	r2, r1
 80236b8:	6929      	ldr	r1, [r5, #16]
 80236ba:	3901      	subs	r1, #1
 80236bc:	0609      	lsls	r1, r1, #24
 80236be:	f001 41fe 	and.w	r1, r1, #2130706432	@ 0x7f000000
 80236c2:	430a      	orrs	r2, r1
 80236c4:	639a      	str	r2, [r3, #56]	@ 0x38
    __HAL_RCC_PLL2_VCIRANGE(pll2->PLL2RGE) ;
 80236c6:	6ada      	ldr	r2, [r3, #44]	@ 0x2c
 80236c8:	f022 02c0 	bic.w	r2, r2, #192	@ 0xc0
 80236cc:	6969      	ldr	r1, [r5, #20]
 80236ce:	430a      	orrs	r2, r1
 80236d0:	62da      	str	r2, [r3, #44]	@ 0x2c
    __HAL_RCC_PLL2_VCORANGE(pll2->PLL2VCOSEL) ;
 80236d2:	6ada      	ldr	r2, [r3, #44]	@ 0x2c
 80236d4:	f022 0220 	bic.w	r2, r2, #32
 80236d8:	69a9      	ldr	r1, [r5, #24]
 80236da:	430a      	orrs	r2, r1
 80236dc:	62da      	str	r2, [r3, #44]	@ 0x2c
    __HAL_RCC_PLL2FRACN_DISABLE();
 80236de:	6ada      	ldr	r2, [r3, #44]	@ 0x2c
 80236e0:	f022 0210 	bic.w	r2, r2, #16
 80236e4:	62da      	str	r2, [r3, #44]	@ 0x2c
    __HAL_RCC_PLL2FRACN_CONFIG(pll2->PLL2FRACN);
 80236e6:	6bda      	ldr	r2, [r3, #60]	@ 0x3c
 80236e8:	f36f 02cf 	bfc	r2, #3, #13
 80236ec:	69e9      	ldr	r1, [r5, #28]
 80236ee:	ea42 02c1 	orr.w	r2, r2, r1, lsl #3
 80236f2:	63da      	str	r2, [r3, #60]	@ 0x3c
    __HAL_RCC_PLL2FRACN_ENABLE();
 80236f4:	6ada      	ldr	r2, [r3, #44]	@ 0x2c
 80236f6:	f042 0210 	orr.w	r2, r2, #16
 80236fa:	62da      	str	r2, [r3, #44]	@ 0x2c
    if (Divider == DIVIDER_P_UPDATE)
 80236fc:	b9c6      	cbnz	r6, 8023730 <RCCEx_PLL2_Config+0xe0>
      __HAL_RCC_PLL2CLKOUT_ENABLE(RCC_PLL2_DIVP);
 80236fe:	461a      	mov	r2, r3
 8023700:	6adb      	ldr	r3, [r3, #44]	@ 0x2c
 8023702:	f443 2300 	orr.w	r3, r3, #524288	@ 0x80000
 8023706:	62d3      	str	r3, [r2, #44]	@ 0x2c
    __HAL_RCC_PLL2_ENABLE();
 8023708:	4a12      	ldr	r2, [pc, #72]	@ (8023754 <RCCEx_PLL2_Config+0x104>)
 802370a:	6813      	ldr	r3, [r2, #0]
 802370c:	f043 6380 	orr.w	r3, r3, #67108864	@ 0x4000000
 8023710:	6013      	str	r3, [r2, #0]
    tickstart = HAL_GetTick();
 8023712:	f7fd fc89 	bl	8021028 <HAL_GetTick>
 8023716:	4604      	mov	r4, r0
    while (__HAL_RCC_GET_FLAG(RCC_FLAG_PLL2RDY) == 0U)
 8023718:	4b0e      	ldr	r3, [pc, #56]	@ (8023754 <RCCEx_PLL2_Config+0x104>)
 802371a:	681b      	ldr	r3, [r3, #0]
 802371c:	f013 6f00 	tst.w	r3, #134217728	@ 0x8000000
 8023720:	d114      	bne.n	802374c <RCCEx_PLL2_Config+0xfc>
      if ((HAL_GetTick() - tickstart) > PLL2_TIMEOUT_VALUE)
 8023722:	f7fd fc81 	bl	8021028 <HAL_GetTick>
 8023726:	1b00      	subs	r0, r0, r4
 8023728:	2802      	cmp	r0, #2
 802372a:	d9f5      	bls.n	8023718 <RCCEx_PLL2_Config+0xc8>
        return HAL_TIMEOUT;
 802372c:	2003      	movs	r0, #3
 802372e:	e7ab      	b.n	8023688 <RCCEx_PLL2_Config+0x38>
    else if (Divider == DIVIDER_Q_UPDATE)
 8023730:	2e01      	cmp	r6, #1
 8023732:	d005      	beq.n	8023740 <RCCEx_PLL2_Config+0xf0>
      __HAL_RCC_PLL2CLKOUT_ENABLE(RCC_PLL2_DIVR);
 8023734:	4a07      	ldr	r2, [pc, #28]	@ (8023754 <RCCEx_PLL2_Config+0x104>)
 8023736:	6ad3      	ldr	r3, [r2, #44]	@ 0x2c
 8023738:	f443 1300 	orr.w	r3, r3, #2097152	@ 0x200000
 802373c:	62d3      	str	r3, [r2, #44]	@ 0x2c
 802373e:	e7e3      	b.n	8023708 <RCCEx_PLL2_Config+0xb8>
      __HAL_RCC_PLL2CLKOUT_ENABLE(RCC_PLL2_DIVQ);
 8023740:	4a04      	ldr	r2, [pc, #16]	@ (8023754 <RCCEx_PLL2_Config+0x104>)
 8023742:	6ad3      	ldr	r3, [r2, #44]	@ 0x2c
 8023744:	f443 1380 	orr.w	r3, r3, #1048576	@ 0x100000
 8023748:	62d3      	str	r3, [r2, #44]	@ 0x2c
 802374a:	e7dd      	b.n	8023708 <RCCEx_PLL2_Config+0xb8>
  return status;
 802374c:	2000      	movs	r0, #0
 802374e:	e79b      	b.n	8023688 <RCCEx_PLL2_Config+0x38>
    return HAL_ERROR;
 8023750:	2001      	movs	r0, #1
}
 8023752:	4770      	bx	lr
 8023754:	58024400 	.word	0x58024400

08023758 <RCCEx_PLL3_Config>:
  assert_param(IS_RCC_PLL3RGE_VALUE(pll3->PLL3RGE));
  assert_param(IS_RCC_PLL3VCO_VALUE(pll3->PLL3VCOSEL));
  assert_param(IS_RCC_PLLFRACN_VALUE(pll3->PLL3FRACN));

  /* Check that PLL3 OSC clock source is already set */
  if (__HAL_RCC_GET_PLL_OSCSOURCE() == RCC_PLLSOURCE_NONE)
 8023758:	4b40      	ldr	r3, [pc, #256]	@ (802385c <RCCEx_PLL3_Config+0x104>)
 802375a:	6a9b      	ldr	r3, [r3, #40]	@ 0x28
 802375c:	f003 0303 	and.w	r3, r3, #3
 8023760:	2b03      	cmp	r3, #3
 8023762:	d079      	beq.n	8023858 <RCCEx_PLL3_Config+0x100>
{
 8023764:	b570      	push	{r4, r5, r6, lr}
 8023766:	4605      	mov	r5, r0
 8023768:	460e      	mov	r6, r1


  else
  {
    /* Disable  PLL3. */
    __HAL_RCC_PLL3_DISABLE();
 802376a:	4a3c      	ldr	r2, [pc, #240]	@ (802385c <RCCEx_PLL3_Config+0x104>)
 802376c:	6813      	ldr	r3, [r2, #0]
 802376e:	f023 5380 	bic.w	r3, r3, #268435456	@ 0x10000000
 8023772:	6013      	str	r3, [r2, #0]

    /* Get Start Tick*/
    tickstart = HAL_GetTick();
 8023774:	f7fd fc58 	bl	8021028 <HAL_GetTick>
 8023778:	4604      	mov	r4, r0
    /* Wait till PLL3 is ready */
    while (__HAL_RCC_GET_FLAG(RCC_FLAG_PLL3RDY) != 0U)
 802377a:	4b38      	ldr	r3, [pc, #224]	@ (802385c <RCCEx_PLL3_Config+0x104>)
 802377c:	681b      	ldr	r3, [r3, #0]
 802377e:	f013 5f00 	tst.w	r3, #536870912	@ 0x20000000
 8023782:	d006      	beq.n	8023792 <RCCEx_PLL3_Config+0x3a>
    {
      if ((HAL_GetTick() - tickstart) > PLL3_TIMEOUT_VALUE)
 8023784:	f7fd fc50 	bl	8021028 <HAL_GetTick>
 8023788:	1b03      	subs	r3, r0, r4
 802378a:	2b02      	cmp	r3, #2
 802378c:	d9f5      	bls.n	802377a <RCCEx_PLL3_Config+0x22>
      {
        return HAL_TIMEOUT;
 802378e:	2003      	movs	r0, #3

  }


  return status;
}
 8023790:	bd70      	pop	{r4, r5, r6, pc}
    __HAL_RCC_PLL3_CONFIG(pll3->PLL3M,
 8023792:	4b32      	ldr	r3, [pc, #200]	@ (802385c <RCCEx_PLL3_Config+0x104>)
 8023794:	6a9a      	ldr	r2, [r3, #40]	@ 0x28
 8023796:	f022 727c 	bic.w	r2, r2, #66060288	@ 0x3f00000
 802379a:	6829      	ldr	r1, [r5, #0]
 802379c:	ea42 5201 	orr.w	r2, r2, r1, lsl #20
 80237a0:	629a      	str	r2, [r3, #40]	@ 0x28
 80237a2:	686a      	ldr	r2, [r5, #4]
 80237a4:	3a01      	subs	r2, #1
 80237a6:	f3c2 0208 	ubfx	r2, r2, #0, #9
 80237aa:	68a9      	ldr	r1, [r5, #8]
 80237ac:	3901      	subs	r1, #1
 80237ae:	0249      	lsls	r1, r1, #9
 80237b0:	b289      	uxth	r1, r1
 80237b2:	430a      	orrs	r2, r1
 80237b4:	68e9      	ldr	r1, [r5, #12]
 80237b6:	3901      	subs	r1, #1
 80237b8:	0409      	lsls	r1, r1, #16
 80237ba:	f401 01fe 	and.w	r1, r1, #8323072	@ 0x7f0000
 80237be:	430a      	orrs	r2, r1
 80237c0:	6929      	ldr	r1, [r5, #16]
 80237c2:	3901      	subs	r1, #1
 80237c4:	0609      	lsls	r1, r1, #24
 80237c6:	f001 41fe 	and.w	r1, r1, #2130706432	@ 0x7f000000
 80237ca:	430a      	orrs	r2, r1
 80237cc:	641a      	str	r2, [r3, #64]	@ 0x40
    __HAL_RCC_PLL3_VCIRANGE(pll3->PLL3RGE) ;
 80237ce:	6ada      	ldr	r2, [r3, #44]	@ 0x2c
 80237d0:	f422 6240 	bic.w	r2, r2, #3072	@ 0xc00
 80237d4:	6969      	ldr	r1, [r5, #20]
 80237d6:	430a      	orrs	r2, r1
 80237d8:	62da      	str	r2, [r3, #44]	@ 0x2c
    __HAL_RCC_PLL3_VCORANGE(pll3->PLL3VCOSEL) ;
 80237da:	6ada      	ldr	r2, [r3, #44]	@ 0x2c
 80237dc:	f422 7200 	bic.w	r2, r2, #512	@ 0x200
 80237e0:	69a9      	ldr	r1, [r5, #24]
 80237e2:	430a      	orrs	r2, r1
 80237e4:	62da      	str	r2, [r3, #44]	@ 0x2c
    __HAL_RCC_PLL3FRACN_DISABLE();
 80237e6:	6ada      	ldr	r2, [r3, #44]	@ 0x2c
 80237e8:	f422 7280 	bic.w	r2, r2, #256	@ 0x100
 80237ec:	62da      	str	r2, [r3, #44]	@ 0x2c
    __HAL_RCC_PLL3FRACN_CONFIG(pll3->PLL3FRACN);
 80237ee:	6c5a      	ldr	r2, [r3, #68]	@ 0x44
 80237f0:	f36f 02cf 	bfc	r2, #3, #13
 80237f4:	69e9      	ldr	r1, [r5, #28]
 80237f6:	ea42 02c1 	orr.w	r2, r2, r1, lsl #3
 80237fa:	645a      	str	r2, [r3, #68]	@ 0x44
    __HAL_RCC_PLL3FRACN_ENABLE();
 80237fc:	6ada      	ldr	r2, [r3, #44]	@ 0x2c
 80237fe:	f442 7280 	orr.w	r2, r2, #256	@ 0x100
 8023802:	62da      	str	r2, [r3, #44]	@ 0x2c
    if (Divider == DIVIDER_P_UPDATE)
 8023804:	b9c6      	cbnz	r6, 8023838 <RCCEx_PLL3_Config+0xe0>
      __HAL_RCC_PLL3CLKOUT_ENABLE(RCC_PLL3_DIVP);
 8023806:	461a      	mov	r2, r3
 8023808:	6adb      	ldr	r3, [r3, #44]	@ 0x2c
 802380a:	f443 0380 	orr.w	r3, r3, #4194304	@ 0x400000
 802380e:	62d3      	str	r3, [r2, #44]	@ 0x2c
    __HAL_RCC_PLL3_ENABLE();
 8023810:	4a12      	ldr	r2, [pc, #72]	@ (802385c <RCCEx_PLL3_Config+0x104>)
 8023812:	6813      	ldr	r3, [r2, #0]
 8023814:	f043 5380 	orr.w	r3, r3, #268435456	@ 0x10000000
 8023818:	6013      	str	r3, [r2, #0]
    tickstart = HAL_GetTick();
 802381a:	f7fd fc05 	bl	8021028 <HAL_GetTick>
 802381e:	4604      	mov	r4, r0
    while (__HAL_RCC_GET_FLAG(RCC_FLAG_PLL3RDY) == 0U)
 8023820:	4b0e      	ldr	r3, [pc, #56]	@ (802385c <RCCEx_PLL3_Config+0x104>)
 8023822:	681b      	ldr	r3, [r3, #0]
 8023824:	f013 5f00 	tst.w	r3, #536870912	@ 0x20000000
 8023828:	d114      	bne.n	8023854 <RCCEx_PLL3_Config+0xfc>
      if ((HAL_GetTick() - tickstart) > PLL3_TIMEOUT_VALUE)
 802382a:	f7fd fbfd 	bl	8021028 <HAL_GetTick>
 802382e:	1b00      	subs	r0, r0, r4
 8023830:	2802      	cmp	r0, #2
 8023832:	d9f5      	bls.n	8023820 <RCCEx_PLL3_Config+0xc8>
        return HAL_TIMEOUT;
 8023834:	2003      	movs	r0, #3
 8023836:	e7ab      	b.n	8023790 <RCCEx_PLL3_Config+0x38>
    else if (Divider == DIVIDER_Q_UPDATE)
 8023838:	2e01      	cmp	r6, #1
 802383a:	d005      	beq.n	8023848 <RCCEx_PLL3_Config+0xf0>
      __HAL_RCC_PLL3CLKOUT_ENABLE(RCC_PLL3_DIVR);
 802383c:	4a07      	ldr	r2, [pc, #28]	@ (802385c <RCCEx_PLL3_Config+0x104>)
 802383e:	6ad3      	ldr	r3, [r2, #44]	@ 0x2c
 8023840:	f043 7380 	orr.w	r3, r3, #16777216	@ 0x1000000
 8023844:	62d3      	str	r3, [r2, #44]	@ 0x2c
 8023846:	e7e3      	b.n	8023810 <RCCEx_PLL3_Config+0xb8>
      __HAL_RCC_PLL3CLKOUT_ENABLE(RCC_PLL3_DIVQ);
 8023848:	4a04      	ldr	r2, [pc, #16]	@ (802385c <RCCEx_PLL3_Config+0x104>)
 802384a:	6ad3      	ldr	r3, [r2, #44]	@ 0x2c
 802384c:	f443 0300 	orr.w	r3, r3, #8388608	@ 0x800000
 8023850:	62d3      	str	r3, [r2, #44]	@ 0x2c
 8023852:	e7dd      	b.n	8023810 <RCCEx_PLL3_Config+0xb8>
  return status;
 8023854:	2000      	movs	r0, #0
 8023856:	e79b      	b.n	8023790 <RCCEx_PLL3_Config+0x38>
    return HAL_ERROR;
 8023858:	2001      	movs	r0, #1
}
 802385a:	4770      	bx	lr
 802385c:	58024400 	.word	0x58024400

08023860 <HAL_RCCEx_PeriphCLKConfig>:
{
 8023860:	b5f8      	push	{r3, r4, r5, r6, r7, lr}
 8023862:	4604      	mov	r4, r0
  if (((PeriphClkInit->PeriphClockSelection) & RCC_PERIPHCLK_SPDIFRX) == RCC_PERIPHCLK_SPDIFRX)
 8023864:	6803      	ldr	r3, [r0, #0]
 8023866:	f013 6f00 	tst.w	r3, #134217728	@ 0x8000000
 802386a:	d030      	beq.n	80238ce <HAL_RCCEx_PeriphCLKConfig+0x6e>
    switch (PeriphClkInit->SpdifrxClockSelection)
 802386c:	6e83      	ldr	r3, [r0, #104]	@ 0x68
 802386e:	f5b3 1f00 	cmp.w	r3, #2097152	@ 0x200000
 8023872:	d026      	beq.n	80238c2 <HAL_RCCEx_PeriphCLKConfig+0x62>
 8023874:	d80e      	bhi.n	8023894 <HAL_RCCEx_PeriphCLKConfig+0x34>
 8023876:	b1ab      	cbz	r3, 80238a4 <HAL_RCCEx_PeriphCLKConfig+0x44>
 8023878:	f5b3 1f80 	cmp.w	r3, #1048576	@ 0x100000
 802387c:	d107      	bne.n	802388e <HAL_RCCEx_PeriphCLKConfig+0x2e>
        ret = RCCEx_PLL2_Config(&(PeriphClkInit->PLL2), DIVIDER_R_UPDATE);
 802387e:	2102      	movs	r1, #2
 8023880:	3008      	adds	r0, #8
 8023882:	f7ff fee5 	bl	8023650 <RCCEx_PLL2_Config>
 8023886:	4605      	mov	r5, r0
    if (ret == HAL_OK)
 8023888:	b195      	cbz	r5, 80238b0 <HAL_RCCEx_PeriphCLKConfig+0x50>
      status = ret;
 802388a:	462e      	mov	r6, r5
 802388c:	e021      	b.n	80238d2 <HAL_RCCEx_PeriphCLKConfig+0x72>
    switch (PeriphClkInit->SpdifrxClockSelection)
 802388e:	2601      	movs	r6, #1
 8023890:	4635      	mov	r5, r6
 8023892:	e01e      	b.n	80238d2 <HAL_RCCEx_PeriphCLKConfig+0x72>
 8023894:	f5b3 1f40 	cmp.w	r3, #3145728	@ 0x300000
 8023898:	d101      	bne.n	802389e <HAL_RCCEx_PeriphCLKConfig+0x3e>
 802389a:	2500      	movs	r5, #0
 802389c:	e008      	b.n	80238b0 <HAL_RCCEx_PeriphCLKConfig+0x50>
 802389e:	2601      	movs	r6, #1
 80238a0:	4635      	mov	r5, r6
 80238a2:	e016      	b.n	80238d2 <HAL_RCCEx_PeriphCLKConfig+0x72>
        __HAL_RCC_PLLCLKOUT_ENABLE(RCC_PLL1_DIVQ);
 80238a4:	4a9a      	ldr	r2, [pc, #616]	@ (8023b10 <HAL_RCCEx_PeriphCLKConfig+0x2b0>)
 80238a6:	6ad3      	ldr	r3, [r2, #44]	@ 0x2c
 80238a8:	f443 3300 	orr.w	r3, r3, #131072	@ 0x20000
 80238ac:	62d3      	str	r3, [r2, #44]	@ 0x2c
  HAL_StatusTypeDef ret = HAL_OK;      /* Intermediate status */
 80238ae:	2500      	movs	r5, #0
      __HAL_RCC_SPDIFRX_CONFIG(PeriphClkInit->SpdifrxClockSelection);
 80238b0:	4a97      	ldr	r2, [pc, #604]	@ (8023b10 <HAL_RCCEx_PeriphCLKConfig+0x2b0>)
 80238b2:	6d13      	ldr	r3, [r2, #80]	@ 0x50
 80238b4:	f423 1340 	bic.w	r3, r3, #3145728	@ 0x300000
 80238b8:	6ea1      	ldr	r1, [r4, #104]	@ 0x68
 80238ba:	430b      	orrs	r3, r1
 80238bc:	6513      	str	r3, [r2, #80]	@ 0x50
  HAL_StatusTypeDef status = HAL_OK;   /* Final status */
 80238be:	2600      	movs	r6, #0
 80238c0:	e007      	b.n	80238d2 <HAL_RCCEx_PeriphCLKConfig+0x72>
        ret = RCCEx_PLL3_Config(&(PeriphClkInit->PLL3), DIVIDER_R_UPDATE);
 80238c2:	2102      	movs	r1, #2
 80238c4:	3028      	adds	r0, #40	@ 0x28
 80238c6:	f7ff ff47 	bl	8023758 <RCCEx_PLL3_Config>
 80238ca:	4605      	mov	r5, r0
        break;
 80238cc:	e7dc      	b.n	8023888 <HAL_RCCEx_PeriphCLKConfig+0x28>
  HAL_StatusTypeDef status = HAL_OK;   /* Final status */
 80238ce:	2600      	movs	r6, #0
  HAL_StatusTypeDef ret = HAL_OK;      /* Intermediate status */
 80238d0:	4635      	mov	r5, r6
  if (((PeriphClkInit->PeriphClockSelection) & RCC_PERIPHCLK_SAI1) == RCC_PERIPHCLK_SAI1)
 80238d2:	6823      	ldr	r3, [r4, #0]
 80238d4:	f413 7f80 	tst.w	r3, #256	@ 0x100
 80238d8:	d014      	beq.n	8023904 <HAL_RCCEx_PeriphCLKConfig+0xa4>
    switch (PeriphClkInit->Sai1ClockSelection)
 80238da:	6da3      	ldr	r3, [r4, #88]	@ 0x58
 80238dc:	2b04      	cmp	r3, #4
 80238de:	d831      	bhi.n	8023944 <HAL_RCCEx_PeriphCLKConfig+0xe4>
 80238e0:	e8df f003 	tbb	[pc, r3]
 80238e4:	08292203 	.word	0x08292203
 80238e8:	08          	.byte	0x08
 80238e9:	00          	.byte	0x00
        __HAL_RCC_PLLCLKOUT_ENABLE(RCC_PLL1_DIVQ);
 80238ea:	4a89      	ldr	r2, [pc, #548]	@ (8023b10 <HAL_RCCEx_PeriphCLKConfig+0x2b0>)
 80238ec:	6ad3      	ldr	r3, [r2, #44]	@ 0x2c
 80238ee:	f443 3300 	orr.w	r3, r3, #131072	@ 0x20000
 80238f2:	62d3      	str	r3, [r2, #44]	@ 0x2c
    if (ret == HAL_OK)
 80238f4:	bb4d      	cbnz	r5, 802394a <HAL_RCCEx_PeriphCLKConfig+0xea>
      __HAL_RCC_SAI1_CONFIG(PeriphClkInit->Sai1ClockSelection);
 80238f6:	4a86      	ldr	r2, [pc, #536]	@ (8023b10 <HAL_RCCEx_PeriphCLKConfig+0x2b0>)
 80238f8:	6d13      	ldr	r3, [r2, #80]	@ 0x50
 80238fa:	f023 0307 	bic.w	r3, r3, #7
 80238fe:	6da1      	ldr	r1, [r4, #88]	@ 0x58
 8023900:	430b      	orrs	r3, r1
 8023902:	6513      	str	r3, [r2, #80]	@ 0x50
  if (((PeriphClkInit->PeriphClockSelection) & RCC_PERIPHCLK_SAI23) == RCC_PERIPHCLK_SAI23)
 8023904:	6823      	ldr	r3, [r4, #0]
 8023906:	f413 7f00 	tst.w	r3, #512	@ 0x200
 802390a:	d03f      	beq.n	802398c <HAL_RCCEx_PeriphCLKConfig+0x12c>
    switch (PeriphClkInit->Sai23ClockSelection)
 802390c:	6de3      	ldr	r3, [r4, #92]	@ 0x5c
 802390e:	2b80      	cmp	r3, #128	@ 0x80
 8023910:	d02e      	beq.n	8023970 <HAL_RCCEx_PeriphCLKConfig+0x110>
 8023912:	d81f      	bhi.n	8023954 <HAL_RCCEx_PeriphCLKConfig+0xf4>
 8023914:	b333      	cbz	r3, 8023964 <HAL_RCCEx_PeriphCLKConfig+0x104>
 8023916:	2b40      	cmp	r3, #64	@ 0x40
 8023918:	d119      	bne.n	802394e <HAL_RCCEx_PeriphCLKConfig+0xee>
        ret = RCCEx_PLL2_Config(&(PeriphClkInit->PLL2), DIVIDER_P_UPDATE);
 802391a:	2100      	movs	r1, #0
 802391c:	f104 0008 	add.w	r0, r4, #8
 8023920:	f7ff fe96 	bl	8023650 <RCCEx_PLL2_Config>
 8023924:	4605      	mov	r5, r0
        break;
 8023926:	e029      	b.n	802397c <HAL_RCCEx_PeriphCLKConfig+0x11c>
        ret = RCCEx_PLL2_Config(&(PeriphClkInit->PLL2), DIVIDER_P_UPDATE);
 8023928:	2100      	movs	r1, #0
 802392a:	f104 0008 	add.w	r0, r4, #8
 802392e:	f7ff fe8f 	bl	8023650 <RCCEx_PLL2_Config>
 8023932:	4605      	mov	r5, r0
        break;
 8023934:	e7de      	b.n	80238f4 <HAL_RCCEx_PeriphCLKConfig+0x94>
        ret = RCCEx_PLL3_Config(&(PeriphClkInit->PLL3), DIVIDER_P_UPDATE);
 8023936:	2100      	movs	r1, #0
 8023938:	f104 0028 	add.w	r0, r4, #40	@ 0x28
 802393c:	f7ff ff0c 	bl	8023758 <RCCEx_PLL3_Config>
 8023940:	4605      	mov	r5, r0
        break;
 8023942:	e7d7      	b.n	80238f4 <HAL_RCCEx_PeriphCLKConfig+0x94>
    switch (PeriphClkInit->Sai1ClockSelection)
 8023944:	2601      	movs	r6, #1
 8023946:	4635      	mov	r5, r6
 8023948:	e7dc      	b.n	8023904 <HAL_RCCEx_PeriphCLKConfig+0xa4>
      status = ret;
 802394a:	462e      	mov	r6, r5
 802394c:	e7da      	b.n	8023904 <HAL_RCCEx_PeriphCLKConfig+0xa4>
    switch (PeriphClkInit->Sai23ClockSelection)
 802394e:	2601      	movs	r6, #1
 8023950:	4635      	mov	r5, r6
 8023952:	e01b      	b.n	802398c <HAL_RCCEx_PeriphCLKConfig+0x12c>
 8023954:	2bc0      	cmp	r3, #192	@ 0xc0
 8023956:	d011      	beq.n	802397c <HAL_RCCEx_PeriphCLKConfig+0x11c>
 8023958:	f5b3 7f80 	cmp.w	r3, #256	@ 0x100
 802395c:	d00e      	beq.n	802397c <HAL_RCCEx_PeriphCLKConfig+0x11c>
 802395e:	2601      	movs	r6, #1
 8023960:	4635      	mov	r5, r6
 8023962:	e013      	b.n	802398c <HAL_RCCEx_PeriphCLKConfig+0x12c>
        __HAL_RCC_PLLCLKOUT_ENABLE(RCC_PLL1_DIVQ);
 8023964:	4a6a      	ldr	r2, [pc, #424]	@ (8023b10 <HAL_RCCEx_PeriphCLKConfig+0x2b0>)
 8023966:	6ad3      	ldr	r3, [r2, #44]	@ 0x2c
 8023968:	f443 3300 	orr.w	r3, r3, #131072	@ 0x20000
 802396c:	62d3      	str	r3, [r2, #44]	@ 0x2c
        break;
 802396e:	e005      	b.n	802397c <HAL_RCCEx_PeriphCLKConfig+0x11c>
        ret = RCCEx_PLL3_Config(&(PeriphClkInit->PLL3), DIVIDER_P_UPDATE);
 8023970:	2100      	movs	r1, #0
 8023972:	f104 0028 	add.w	r0, r4, #40	@ 0x28
 8023976:	f7ff feef 	bl	8023758 <RCCEx_PLL3_Config>
 802397a:	4605      	mov	r5, r0
    if (ret == HAL_OK)
 802397c:	b9dd      	cbnz	r5, 80239b6 <HAL_RCCEx_PeriphCLKConfig+0x156>
      __HAL_RCC_SAI23_CONFIG(PeriphClkInit->Sai23ClockSelection);
 802397e:	4a64      	ldr	r2, [pc, #400]	@ (8023b10 <HAL_RCCEx_PeriphCLKConfig+0x2b0>)
 8023980:	6d13      	ldr	r3, [r2, #80]	@ 0x50
 8023982:	f423 73e0 	bic.w	r3, r3, #448	@ 0x1c0
 8023986:	6de1      	ldr	r1, [r4, #92]	@ 0x5c
 8023988:	430b      	orrs	r3, r1
 802398a:	6513      	str	r3, [r2, #80]	@ 0x50
  if (((PeriphClkInit->PeriphClockSelection) & RCC_PERIPHCLK_SAI4A) == RCC_PERIPHCLK_SAI4A)
 802398c:	6823      	ldr	r3, [r4, #0]
 802398e:	f413 6f80 	tst.w	r3, #1024	@ 0x400
 8023992:	d033      	beq.n	80239fc <HAL_RCCEx_PeriphCLKConfig+0x19c>
    switch (PeriphClkInit->Sai4AClockSelection)
 8023994:	f8d4 30a8 	ldr.w	r3, [r4, #168]	@ 0xa8
 8023998:	f5b3 0f80 	cmp.w	r3, #4194304	@ 0x400000
 802399c:	d01f      	beq.n	80239de <HAL_RCCEx_PeriphCLKConfig+0x17e>
 802399e:	d80f      	bhi.n	80239c0 <HAL_RCCEx_PeriphCLKConfig+0x160>
 80239a0:	b1bb      	cbz	r3, 80239d2 <HAL_RCCEx_PeriphCLKConfig+0x172>
 80239a2:	f5b3 1f00 	cmp.w	r3, #2097152	@ 0x200000
 80239a6:	d108      	bne.n	80239ba <HAL_RCCEx_PeriphCLKConfig+0x15a>
        ret = RCCEx_PLL2_Config(&(PeriphClkInit->PLL2), DIVIDER_P_UPDATE);
 80239a8:	2100      	movs	r1, #0
 80239aa:	f104 0008 	add.w	r0, r4, #8
 80239ae:	f7ff fe4f 	bl	8023650 <RCCEx_PLL2_Config>
 80239b2:	4605      	mov	r5, r0
        break;
 80239b4:	e019      	b.n	80239ea <HAL_RCCEx_PeriphCLKConfig+0x18a>
      status = ret;
 80239b6:	462e      	mov	r6, r5
 80239b8:	e7e8      	b.n	802398c <HAL_RCCEx_PeriphCLKConfig+0x12c>
    switch (PeriphClkInit->Sai4AClockSelection)
 80239ba:	2601      	movs	r6, #1
 80239bc:	4635      	mov	r5, r6
 80239be:	e01d      	b.n	80239fc <HAL_RCCEx_PeriphCLKConfig+0x19c>
 80239c0:	f5b3 0fc0 	cmp.w	r3, #6291456	@ 0x600000
 80239c4:	d011      	beq.n	80239ea <HAL_RCCEx_PeriphCLKConfig+0x18a>
 80239c6:	f5b3 0f00 	cmp.w	r3, #8388608	@ 0x800000
 80239ca:	d00e      	beq.n	80239ea <HAL_RCCEx_PeriphCLKConfig+0x18a>
 80239cc:	2601      	movs	r6, #1
 80239ce:	4635      	mov	r5, r6
 80239d0:	e014      	b.n	80239fc <HAL_RCCEx_PeriphCLKConfig+0x19c>
        __HAL_RCC_PLLCLKOUT_ENABLE(RCC_PLL1_DIVQ);
 80239d2:	4a4f      	ldr	r2, [pc, #316]	@ (8023b10 <HAL_RCCEx_PeriphCLKConfig+0x2b0>)
 80239d4:	6ad3      	ldr	r3, [r2, #44]	@ 0x2c
 80239d6:	f443 3300 	orr.w	r3, r3, #131072	@ 0x20000
 80239da:	62d3      	str	r3, [r2, #44]	@ 0x2c
        break;
 80239dc:	e005      	b.n	80239ea <HAL_RCCEx_PeriphCLKConfig+0x18a>
        ret = RCCEx_PLL3_Config(&(PeriphClkInit->PLL3), DIVIDER_P_UPDATE);
 80239de:	2100      	movs	r1, #0
 80239e0:	f104 0028 	add.w	r0, r4, #40	@ 0x28
 80239e4:	f7ff feb8 	bl	8023758 <RCCEx_PLL3_Config>
 80239e8:	4605      	mov	r5, r0
    if (ret == HAL_OK)
 80239ea:	b9e5      	cbnz	r5, 8023a26 <HAL_RCCEx_PeriphCLKConfig+0x1c6>
      __HAL_RCC_SAI4A_CONFIG(PeriphClkInit->Sai4AClockSelection);
 80239ec:	4a48      	ldr	r2, [pc, #288]	@ (8023b10 <HAL_RCCEx_PeriphCLKConfig+0x2b0>)
 80239ee:	6d93      	ldr	r3, [r2, #88]	@ 0x58
 80239f0:	f423 0360 	bic.w	r3, r3, #14680064	@ 0xe00000
 80239f4:	f8d4 10a8 	ldr.w	r1, [r4, #168]	@ 0xa8
 80239f8:	430b      	orrs	r3, r1
 80239fa:	6593      	str	r3, [r2, #88]	@ 0x58
  if (((PeriphClkInit->PeriphClockSelection) & RCC_PERIPHCLK_SAI4B) == RCC_PERIPHCLK_SAI4B)
 80239fc:	6823      	ldr	r3, [r4, #0]
 80239fe:	f413 6f00 	tst.w	r3, #2048	@ 0x800
 8023a02:	d034      	beq.n	8023a6e <HAL_RCCEx_PeriphCLKConfig+0x20e>
    switch (PeriphClkInit->Sai4BClockSelection)
 8023a04:	f8d4 30ac 	ldr.w	r3, [r4, #172]	@ 0xac
 8023a08:	f1b3 7f00 	cmp.w	r3, #33554432	@ 0x2000000
 8023a0c:	d01f      	beq.n	8023a4e <HAL_RCCEx_PeriphCLKConfig+0x1ee>
 8023a0e:	d80f      	bhi.n	8023a30 <HAL_RCCEx_PeriphCLKConfig+0x1d0>
 8023a10:	b1bb      	cbz	r3, 8023a42 <HAL_RCCEx_PeriphCLKConfig+0x1e2>
 8023a12:	f1b3 7f80 	cmp.w	r3, #16777216	@ 0x1000000
 8023a16:	d108      	bne.n	8023a2a <HAL_RCCEx_PeriphCLKConfig+0x1ca>
        ret = RCCEx_PLL2_Config(&(PeriphClkInit->PLL2), DIVIDER_P_UPDATE);
 8023a18:	2100      	movs	r1, #0
 8023a1a:	f104 0008 	add.w	r0, r4, #8
 8023a1e:	f7ff fe17 	bl	8023650 <RCCEx_PLL2_Config>
 8023a22:	4605      	mov	r5, r0
        break;
 8023a24:	e019      	b.n	8023a5a <HAL_RCCEx_PeriphCLKConfig+0x1fa>
      status = ret;
 8023a26:	462e      	mov	r6, r5
 8023a28:	e7e8      	b.n	80239fc <HAL_RCCEx_PeriphCLKConfig+0x19c>
    switch (PeriphClkInit->Sai4BClockSelection)
 8023a2a:	2601      	movs	r6, #1
 8023a2c:	4635      	mov	r5, r6
 8023a2e:	e01e      	b.n	8023a6e <HAL_RCCEx_PeriphCLKConfig+0x20e>
 8023a30:	f1b3 7f40 	cmp.w	r3, #50331648	@ 0x3000000
 8023a34:	d011      	beq.n	8023a5a <HAL_RCCEx_PeriphCLKConfig+0x1fa>
 8023a36:	f1b3 6f80 	cmp.w	r3, #67108864	@ 0x4000000
 8023a3a:	d00e      	beq.n	8023a5a <HAL_RCCEx_PeriphCLKConfig+0x1fa>
 8023a3c:	2601      	movs	r6, #1
 8023a3e:	4635      	mov	r5, r6
 8023a40:	e015      	b.n	8023a6e <HAL_RCCEx_PeriphCLKConfig+0x20e>
        __HAL_RCC_PLLCLKOUT_ENABLE(RCC_PLL1_DIVQ);
 8023a42:	4a33      	ldr	r2, [pc, #204]	@ (8023b10 <HAL_RCCEx_PeriphCLKConfig+0x2b0>)
 8023a44:	6ad3      	ldr	r3, [r2, #44]	@ 0x2c
 8023a46:	f443 3300 	orr.w	r3, r3, #131072	@ 0x20000
 8023a4a:	62d3      	str	r3, [r2, #44]	@ 0x2c
        break;
 8023a4c:	e005      	b.n	8023a5a <HAL_RCCEx_PeriphCLKConfig+0x1fa>
        ret = RCCEx_PLL3_Config(&(PeriphClkInit->PLL3), DIVIDER_P_UPDATE);
 8023a4e:	2100      	movs	r1, #0
 8023a50:	f104 0028 	add.w	r0, r4, #40	@ 0x28
 8023a54:	f7ff fe80 	bl	8023758 <RCCEx_PLL3_Config>
 8023a58:	4605      	mov	r5, r0
    if (ret == HAL_OK)
 8023a5a:	2d00      	cmp	r5, #0
 8023a5c:	d133      	bne.n	8023ac6 <HAL_RCCEx_PeriphCLKConfig+0x266>
      __HAL_RCC_SAI4B_CONFIG(PeriphClkInit->Sai4BClockSelection);
 8023a5e:	4a2c      	ldr	r2, [pc, #176]	@ (8023b10 <HAL_RCCEx_PeriphCLKConfig+0x2b0>)
 8023a60:	6d93      	ldr	r3, [r2, #88]	@ 0x58
 8023a62:	f023 63e0 	bic.w	r3, r3, #117440512	@ 0x7000000
 8023a66:	f8d4 10ac 	ldr.w	r1, [r4, #172]	@ 0xac
 8023a6a:	430b      	orrs	r3, r1
 8023a6c:	6593      	str	r3, [r2, #88]	@ 0x58
  if (((PeriphClkInit->PeriphClockSelection) & RCC_PERIPHCLK_QSPI) == RCC_PERIPHCLK_QSPI)
 8023a6e:	6823      	ldr	r3, [r4, #0]
 8023a70:	f013 7f00 	tst.w	r3, #33554432	@ 0x2000000
 8023a74:	d013      	beq.n	8023a9e <HAL_RCCEx_PeriphCLKConfig+0x23e>
    switch (PeriphClkInit->QspiClockSelection)
 8023a76:	6ce3      	ldr	r3, [r4, #76]	@ 0x4c
 8023a78:	2b20      	cmp	r3, #32
 8023a7a:	d02e      	beq.n	8023ada <HAL_RCCEx_PeriphCLKConfig+0x27a>
 8023a7c:	d828      	bhi.n	8023ad0 <HAL_RCCEx_PeriphCLKConfig+0x270>
 8023a7e:	b133      	cbz	r3, 8023a8e <HAL_RCCEx_PeriphCLKConfig+0x22e>
 8023a80:	2b10      	cmp	r3, #16
 8023a82:	d122      	bne.n	8023aca <HAL_RCCEx_PeriphCLKConfig+0x26a>
        __HAL_RCC_PLLCLKOUT_ENABLE(RCC_PLL1_DIVQ);
 8023a84:	4a22      	ldr	r2, [pc, #136]	@ (8023b10 <HAL_RCCEx_PeriphCLKConfig+0x2b0>)
 8023a86:	6ad3      	ldr	r3, [r2, #44]	@ 0x2c
 8023a88:	f443 3300 	orr.w	r3, r3, #131072	@ 0x20000
 8023a8c:	62d3      	str	r3, [r2, #44]	@ 0x2c
    if (ret == HAL_OK)
 8023a8e:	bb5d      	cbnz	r5, 8023ae8 <HAL_RCCEx_PeriphCLKConfig+0x288>
      __HAL_RCC_QSPI_CONFIG(PeriphClkInit->QspiClockSelection);
 8023a90:	4a1f      	ldr	r2, [pc, #124]	@ (8023b10 <HAL_RCCEx_PeriphCLKConfig+0x2b0>)
 8023a92:	6cd3      	ldr	r3, [r2, #76]	@ 0x4c
 8023a94:	f023 0330 	bic.w	r3, r3, #48	@ 0x30
 8023a98:	6ce1      	ldr	r1, [r4, #76]	@ 0x4c
 8023a9a:	430b      	orrs	r3, r1
 8023a9c:	64d3      	str	r3, [r2, #76]	@ 0x4c
  if (((PeriphClkInit->PeriphClockSelection) & RCC_PERIPHCLK_SPI123) == RCC_PERIPHCLK_SPI123)
 8023a9e:	6823      	ldr	r3, [r4, #0]
 8023aa0:	f413 5f80 	tst.w	r3, #4096	@ 0x1000
 8023aa4:	d046      	beq.n	8023b34 <HAL_RCCEx_PeriphCLKConfig+0x2d4>
    switch (PeriphClkInit->Spi123ClockSelection)
 8023aa6:	6e23      	ldr	r3, [r4, #96]	@ 0x60
 8023aa8:	f5b3 5f00 	cmp.w	r3, #8192	@ 0x2000
 8023aac:	d032      	beq.n	8023b14 <HAL_RCCEx_PeriphCLKConfig+0x2b4>
 8023aae:	d820      	bhi.n	8023af2 <HAL_RCCEx_PeriphCLKConfig+0x292>
 8023ab0:	b343      	cbz	r3, 8023b04 <HAL_RCCEx_PeriphCLKConfig+0x2a4>
 8023ab2:	f5b3 5f80 	cmp.w	r3, #4096	@ 0x1000
 8023ab6:	d119      	bne.n	8023aec <HAL_RCCEx_PeriphCLKConfig+0x28c>
        ret = RCCEx_PLL2_Config(&(PeriphClkInit->PLL2), DIVIDER_P_UPDATE);
 8023ab8:	2100      	movs	r1, #0
 8023aba:	f104 0008 	add.w	r0, r4, #8
 8023abe:	f7ff fdc7 	bl	8023650 <RCCEx_PLL2_Config>
 8023ac2:	4605      	mov	r5, r0
        break;
 8023ac4:	e02c      	b.n	8023b20 <HAL_RCCEx_PeriphCLKConfig+0x2c0>
      status = ret;
 8023ac6:	462e      	mov	r6, r5
 8023ac8:	e7d1      	b.n	8023a6e <HAL_RCCEx_PeriphCLKConfig+0x20e>
    switch (PeriphClkInit->QspiClockSelection)
 8023aca:	2601      	movs	r6, #1
 8023acc:	4635      	mov	r5, r6
 8023ace:	e7e6      	b.n	8023a9e <HAL_RCCEx_PeriphCLKConfig+0x23e>
 8023ad0:	2b30      	cmp	r3, #48	@ 0x30
 8023ad2:	d0dc      	beq.n	8023a8e <HAL_RCCEx_PeriphCLKConfig+0x22e>
 8023ad4:	2601      	movs	r6, #1
 8023ad6:	4635      	mov	r5, r6
 8023ad8:	e7e1      	b.n	8023a9e <HAL_RCCEx_PeriphCLKConfig+0x23e>
        ret = RCCEx_PLL2_Config(&(PeriphClkInit->PLL2), DIVIDER_R_UPDATE);
 8023ada:	2102      	movs	r1, #2
 8023adc:	f104 0008 	add.w	r0, r4, #8
 8023ae0:	f7ff fdb6 	bl	8023650 <RCCEx_PLL2_Config>
 8023ae4:	4605      	mov	r5, r0
        break;
 8023ae6:	e7d2      	b.n	8023a8e <HAL_RCCEx_PeriphCLKConfig+0x22e>
      status = ret;
 8023ae8:	462e      	mov	r6, r5
 8023aea:	e7d8      	b.n	8023a9e <HAL_RCCEx_PeriphCLKConfig+0x23e>
    switch (PeriphClkInit->Spi123ClockSelection)
 8023aec:	2601      	movs	r6, #1
 8023aee:	4635      	mov	r5, r6
 8023af0:	e020      	b.n	8023b34 <HAL_RCCEx_PeriphCLKConfig+0x2d4>
 8023af2:	f5b3 5f40 	cmp.w	r3, #12288	@ 0x3000
 8023af6:	d013      	beq.n	8023b20 <HAL_RCCEx_PeriphCLKConfig+0x2c0>
 8023af8:	f5b3 4f80 	cmp.w	r3, #16384	@ 0x4000
 8023afc:	d010      	beq.n	8023b20 <HAL_RCCEx_PeriphCLKConfig+0x2c0>
 8023afe:	2601      	movs	r6, #1
 8023b00:	4635      	mov	r5, r6
 8023b02:	e017      	b.n	8023b34 <HAL_RCCEx_PeriphCLKConfig+0x2d4>
        __HAL_RCC_PLLCLKOUT_ENABLE(RCC_PLL1_DIVQ);
 8023b04:	4a02      	ldr	r2, [pc, #8]	@ (8023b10 <HAL_RCCEx_PeriphCLKConfig+0x2b0>)
 8023b06:	6ad3      	ldr	r3, [r2, #44]	@ 0x2c
 8023b08:	f443 3300 	orr.w	r3, r3, #131072	@ 0x20000
 8023b0c:	62d3      	str	r3, [r2, #44]	@ 0x2c
        break;
 8023b0e:	e007      	b.n	8023b20 <HAL_RCCEx_PeriphCLKConfig+0x2c0>
 8023b10:	58024400 	.word	0x58024400
        ret = RCCEx_PLL3_Config(&(PeriphClkInit->PLL3), DIVIDER_P_UPDATE);
 8023b14:	2100      	movs	r1, #0
 8023b16:	f104 0028 	add.w	r0, r4, #40	@ 0x28
 8023b1a:	f7ff fe1d 	bl	8023758 <RCCEx_PLL3_Config>
 8023b1e:	4605      	mov	r5, r0
    if (ret == HAL_OK)
 8023b20:	b93d      	cbnz	r5, 8023b32 <HAL_RCCEx_PeriphCLKConfig+0x2d2>
      __HAL_RCC_SPI123_CONFIG(PeriphClkInit->Spi123ClockSelection);
 8023b22:	4a70      	ldr	r2, [pc, #448]	@ (8023ce4 <HAL_RCCEx_PeriphCLKConfig+0x484>)
 8023b24:	6d13      	ldr	r3, [r2, #80]	@ 0x50
 8023b26:	f423 43e0 	bic.w	r3, r3, #28672	@ 0x7000
 8023b2a:	6e21      	ldr	r1, [r4, #96]	@ 0x60
 8023b2c:	430b      	orrs	r3, r1
 8023b2e:	6513      	str	r3, [r2, #80]	@ 0x50
 8023b30:	e000      	b.n	8023b34 <HAL_RCCEx_PeriphCLKConfig+0x2d4>
      status = ret;
 8023b32:	462e      	mov	r6, r5
  if (((PeriphClkInit->PeriphClockSelection) & RCC_PERIPHCLK_SPI45) == RCC_PERIPHCLK_SPI45)
 8023b34:	6823      	ldr	r3, [r4, #0]
 8023b36:	f413 5f00 	tst.w	r3, #8192	@ 0x2000
 8023b3a:	d017      	beq.n	8023b6c <HAL_RCCEx_PeriphCLKConfig+0x30c>
    switch (PeriphClkInit->Spi45ClockSelection)
 8023b3c:	6e63      	ldr	r3, [r4, #100]	@ 0x64
 8023b3e:	f5b3 3f00 	cmp.w	r3, #131072	@ 0x20000
 8023b42:	d04f      	beq.n	8023be4 <HAL_RCCEx_PeriphCLKConfig+0x384>
 8023b44:	d842      	bhi.n	8023bcc <HAL_RCCEx_PeriphCLKConfig+0x36c>
 8023b46:	b143      	cbz	r3, 8023b5a <HAL_RCCEx_PeriphCLKConfig+0x2fa>
 8023b48:	f5b3 3f80 	cmp.w	r3, #65536	@ 0x10000
 8023b4c:	d13b      	bne.n	8023bc6 <HAL_RCCEx_PeriphCLKConfig+0x366>
        ret = RCCEx_PLL2_Config(&(PeriphClkInit->PLL2), DIVIDER_Q_UPDATE);
 8023b4e:	2101      	movs	r1, #1
 8023b50:	f104 0008 	add.w	r0, r4, #8
 8023b54:	f7ff fd7c 	bl	8023650 <RCCEx_PLL2_Config>
 8023b58:	4605      	mov	r5, r0
    if (ret == HAL_OK)
 8023b5a:	2d00      	cmp	r5, #0
 8023b5c:	d149      	bne.n	8023bf2 <HAL_RCCEx_PeriphCLKConfig+0x392>
      __HAL_RCC_SPI45_CONFIG(PeriphClkInit->Spi45ClockSelection);
 8023b5e:	4a61      	ldr	r2, [pc, #388]	@ (8023ce4 <HAL_RCCEx_PeriphCLKConfig+0x484>)
 8023b60:	6d13      	ldr	r3, [r2, #80]	@ 0x50
 8023b62:	f423 23e0 	bic.w	r3, r3, #458752	@ 0x70000
 8023b66:	6e61      	ldr	r1, [r4, #100]	@ 0x64
 8023b68:	430b      	orrs	r3, r1
 8023b6a:	6513      	str	r3, [r2, #80]	@ 0x50
  if (((PeriphClkInit->PeriphClockSelection) & RCC_PERIPHCLK_SPI6) == RCC_PERIPHCLK_SPI6)
 8023b6c:	6823      	ldr	r3, [r4, #0]
 8023b6e:	f413 4f80 	tst.w	r3, #16384	@ 0x4000
 8023b72:	d019      	beq.n	8023ba8 <HAL_RCCEx_PeriphCLKConfig+0x348>
    switch (PeriphClkInit->Spi6ClockSelection)
 8023b74:	f8d4 30b0 	ldr.w	r3, [r4, #176]	@ 0xb0
 8023b78:	f1b3 5f00 	cmp.w	r3, #536870912	@ 0x20000000
 8023b7c:	d04a      	beq.n	8023c14 <HAL_RCCEx_PeriphCLKConfig+0x3b4>
 8023b7e:	d83d      	bhi.n	8023bfc <HAL_RCCEx_PeriphCLKConfig+0x39c>
 8023b80:	b143      	cbz	r3, 8023b94 <HAL_RCCEx_PeriphCLKConfig+0x334>
 8023b82:	f1b3 5f80 	cmp.w	r3, #268435456	@ 0x10000000
 8023b86:	d136      	bne.n	8023bf6 <HAL_RCCEx_PeriphCLKConfig+0x396>
        ret = RCCEx_PLL2_Config(&(PeriphClkInit->PLL2), DIVIDER_Q_UPDATE);
 8023b88:	2101      	movs	r1, #1
 8023b8a:	f104 0008 	add.w	r0, r4, #8
 8023b8e:	f7ff fd5f 	bl	8023650 <RCCEx_PLL2_Config>
 8023b92:	4605      	mov	r5, r0
    if (ret == HAL_OK)
 8023b94:	2d00      	cmp	r5, #0
 8023b96:	d144      	bne.n	8023c22 <HAL_RCCEx_PeriphCLKConfig+0x3c2>
      __HAL_RCC_SPI6_CONFIG(PeriphClkInit->Spi6ClockSelection);
 8023b98:	4a52      	ldr	r2, [pc, #328]	@ (8023ce4 <HAL_RCCEx_PeriphCLKConfig+0x484>)
 8023b9a:	6d93      	ldr	r3, [r2, #88]	@ 0x58
 8023b9c:	f023 43e0 	bic.w	r3, r3, #1879048192	@ 0x70000000
 8023ba0:	f8d4 10b0 	ldr.w	r1, [r4, #176]	@ 0xb0
 8023ba4:	430b      	orrs	r3, r1
 8023ba6:	6593      	str	r3, [r2, #88]	@ 0x58
  if (((PeriphClkInit->PeriphClockSelection) & RCC_PERIPHCLK_FDCAN) == RCC_PERIPHCLK_FDCAN)
 8023ba8:	6823      	ldr	r3, [r4, #0]
 8023baa:	f413 4f00 	tst.w	r3, #32768	@ 0x8000
 8023bae:	d047      	beq.n	8023c40 <HAL_RCCEx_PeriphCLKConfig+0x3e0>
    switch (PeriphClkInit->FdcanClockSelection)
 8023bb0:	6f23      	ldr	r3, [r4, #112]	@ 0x70
 8023bb2:	f1b3 5f80 	cmp.w	r3, #268435456	@ 0x10000000
 8023bb6:	d036      	beq.n	8023c26 <HAL_RCCEx_PeriphCLKConfig+0x3c6>
 8023bb8:	f1b3 5f00 	cmp.w	r3, #536870912	@ 0x20000000
 8023bbc:	d04b      	beq.n	8023c56 <HAL_RCCEx_PeriphCLKConfig+0x3f6>
 8023bbe:	b3bb      	cbz	r3, 8023c30 <HAL_RCCEx_PeriphCLKConfig+0x3d0>
 8023bc0:	2601      	movs	r6, #1
 8023bc2:	4635      	mov	r5, r6
 8023bc4:	e03c      	b.n	8023c40 <HAL_RCCEx_PeriphCLKConfig+0x3e0>
    switch (PeriphClkInit->Spi45ClockSelection)
 8023bc6:	2601      	movs	r6, #1
 8023bc8:	4635      	mov	r5, r6
 8023bca:	e7cf      	b.n	8023b6c <HAL_RCCEx_PeriphCLKConfig+0x30c>
 8023bcc:	f5b3 2f80 	cmp.w	r3, #262144	@ 0x40000
 8023bd0:	d0c3      	beq.n	8023b5a <HAL_RCCEx_PeriphCLKConfig+0x2fa>
 8023bd2:	f5b3 2fa0 	cmp.w	r3, #327680	@ 0x50000
 8023bd6:	d0c0      	beq.n	8023b5a <HAL_RCCEx_PeriphCLKConfig+0x2fa>
 8023bd8:	f5b3 3f40 	cmp.w	r3, #196608	@ 0x30000
 8023bdc:	d0bd      	beq.n	8023b5a <HAL_RCCEx_PeriphCLKConfig+0x2fa>
 8023bde:	2601      	movs	r6, #1
 8023be0:	4635      	mov	r5, r6
 8023be2:	e7c3      	b.n	8023b6c <HAL_RCCEx_PeriphCLKConfig+0x30c>
        ret = RCCEx_PLL3_Config(&(PeriphClkInit->PLL3), DIVIDER_Q_UPDATE);
 8023be4:	2101      	movs	r1, #1
 8023be6:	f104 0028 	add.w	r0, r4, #40	@ 0x28
 8023bea:	f7ff fdb5 	bl	8023758 <RCCEx_PLL3_Config>
 8023bee:	4605      	mov	r5, r0
        break;
 8023bf0:	e7b3      	b.n	8023b5a <HAL_RCCEx_PeriphCLKConfig+0x2fa>
      status = ret;
 8023bf2:	462e      	mov	r6, r5
 8023bf4:	e7ba      	b.n	8023b6c <HAL_RCCEx_PeriphCLKConfig+0x30c>
    switch (PeriphClkInit->Spi6ClockSelection)
 8023bf6:	2601      	movs	r6, #1
 8023bf8:	4635      	mov	r5, r6
 8023bfa:	e7d5      	b.n	8023ba8 <HAL_RCCEx_PeriphCLKConfig+0x348>
 8023bfc:	f1b3 4f80 	cmp.w	r3, #1073741824	@ 0x40000000
 8023c00:	d0c8      	beq.n	8023b94 <HAL_RCCEx_PeriphCLKConfig+0x334>
 8023c02:	f1b3 4fa0 	cmp.w	r3, #1342177280	@ 0x50000000
 8023c06:	d0c5      	beq.n	8023b94 <HAL_RCCEx_PeriphCLKConfig+0x334>
 8023c08:	f1b3 5f40 	cmp.w	r3, #805306368	@ 0x30000000
 8023c0c:	d0c2      	beq.n	8023b94 <HAL_RCCEx_PeriphCLKConfig+0x334>
 8023c0e:	2601      	movs	r6, #1
 8023c10:	4635      	mov	r5, r6
 8023c12:	e7c9      	b.n	8023ba8 <HAL_RCCEx_PeriphCLKConfig+0x348>
        ret = RCCEx_PLL3_Config(&(PeriphClkInit->PLL3), DIVIDER_Q_UPDATE);
 8023c14:	2101      	movs	r1, #1
 8023c16:	f104 0028 	add.w	r0, r4, #40	@ 0x28
 8023c1a:	f7ff fd9d 	bl	8023758 <RCCEx_PLL3_Config>
 8023c1e:	4605      	mov	r5, r0
        break;
 8023c20:	e7b8      	b.n	8023b94 <HAL_RCCEx_PeriphCLKConfig+0x334>
      status = ret;
 8023c22:	462e      	mov	r6, r5
 8023c24:	e7c0      	b.n	8023ba8 <HAL_RCCEx_PeriphCLKConfig+0x348>
        __HAL_RCC_PLLCLKOUT_ENABLE(RCC_PLL1_DIVQ);
 8023c26:	4a2f      	ldr	r2, [pc, #188]	@ (8023ce4 <HAL_RCCEx_PeriphCLKConfig+0x484>)
 8023c28:	6ad3      	ldr	r3, [r2, #44]	@ 0x2c
 8023c2a:	f443 3300 	orr.w	r3, r3, #131072	@ 0x20000
 8023c2e:	62d3      	str	r3, [r2, #44]	@ 0x2c
    if (ret == HAL_OK)
 8023c30:	b9c5      	cbnz	r5, 8023c64 <HAL_RCCEx_PeriphCLKConfig+0x404>
      __HAL_RCC_FDCAN_CONFIG(PeriphClkInit->FdcanClockSelection);
 8023c32:	4a2c      	ldr	r2, [pc, #176]	@ (8023ce4 <HAL_RCCEx_PeriphCLKConfig+0x484>)
 8023c34:	6d13      	ldr	r3, [r2, #80]	@ 0x50
 8023c36:	f023 5340 	bic.w	r3, r3, #805306368	@ 0x30000000
 8023c3a:	6f21      	ldr	r1, [r4, #112]	@ 0x70
 8023c3c:	430b      	orrs	r3, r1
 8023c3e:	6513      	str	r3, [r2, #80]	@ 0x50
  if (((PeriphClkInit->PeriphClockSelection) & RCC_PERIPHCLK_FMC) == RCC_PERIPHCLK_FMC)
 8023c40:	6823      	ldr	r3, [r4, #0]
 8023c42:	f013 7f80 	tst.w	r3, #16777216	@ 0x1000000
 8023c46:	d01c      	beq.n	8023c82 <HAL_RCCEx_PeriphCLKConfig+0x422>
    switch (PeriphClkInit->FmcClockSelection)
 8023c48:	6ca3      	ldr	r3, [r4, #72]	@ 0x48
 8023c4a:	2b03      	cmp	r3, #3
 8023c4c:	d844      	bhi.n	8023cd8 <HAL_RCCEx_PeriphCLKConfig+0x478>
 8023c4e:	e8df f003 	tbb	[pc, r3]
 8023c52:	0b10      	.short	0x0b10
 8023c54:	103c      	.short	0x103c
        ret = RCCEx_PLL2_Config(&(PeriphClkInit->PLL2), DIVIDER_Q_UPDATE);
 8023c56:	2101      	movs	r1, #1
 8023c58:	f104 0008 	add.w	r0, r4, #8
 8023c5c:	f7ff fcf8 	bl	8023650 <RCCEx_PLL2_Config>
 8023c60:	4605      	mov	r5, r0
        break;
 8023c62:	e7e5      	b.n	8023c30 <HAL_RCCEx_PeriphCLKConfig+0x3d0>
      status = ret;
 8023c64:	462e      	mov	r6, r5
 8023c66:	e7eb      	b.n	8023c40 <HAL_RCCEx_PeriphCLKConfig+0x3e0>
        __HAL_RCC_PLLCLKOUT_ENABLE(RCC_PLL1_DIVQ);
 8023c68:	4a1e      	ldr	r2, [pc, #120]	@ (8023ce4 <HAL_RCCEx_PeriphCLKConfig+0x484>)
 8023c6a:	6ad3      	ldr	r3, [r2, #44]	@ 0x2c
 8023c6c:	f443 3300 	orr.w	r3, r3, #131072	@ 0x20000
 8023c70:	62d3      	str	r3, [r2, #44]	@ 0x2c
    if (ret == HAL_OK)
 8023c72:	bba5      	cbnz	r5, 8023cde <HAL_RCCEx_PeriphCLKConfig+0x47e>
      __HAL_RCC_FMC_CONFIG(PeriphClkInit->FmcClockSelection);
 8023c74:	4a1b      	ldr	r2, [pc, #108]	@ (8023ce4 <HAL_RCCEx_PeriphCLKConfig+0x484>)
 8023c76:	6cd3      	ldr	r3, [r2, #76]	@ 0x4c
 8023c78:	f023 0303 	bic.w	r3, r3, #3
 8023c7c:	6ca1      	ldr	r1, [r4, #72]	@ 0x48
 8023c7e:	430b      	orrs	r3, r1
 8023c80:	64d3      	str	r3, [r2, #76]	@ 0x4c
  if (((PeriphClkInit->PeriphClockSelection) & RCC_PERIPHCLK_RTC) == RCC_PERIPHCLK_RTC)
 8023c82:	6823      	ldr	r3, [r4, #0]
 8023c84:	f413 0f80 	tst.w	r3, #4194304	@ 0x400000
 8023c88:	d12e      	bne.n	8023ce8 <HAL_RCCEx_PeriphCLKConfig+0x488>
  if (((PeriphClkInit->PeriphClockSelection) & RCC_PERIPHCLK_USART16) == RCC_PERIPHCLK_USART16)
 8023c8a:	6823      	ldr	r3, [r4, #0]
 8023c8c:	f013 0f01 	tst.w	r3, #1
 8023c90:	f000 80a6 	beq.w	8023de0 <HAL_RCCEx_PeriphCLKConfig+0x580>
    switch (PeriphClkInit->Usart16ClockSelection)
 8023c94:	6fe3      	ldr	r3, [r4, #124]	@ 0x7c
 8023c96:	2b28      	cmp	r3, #40	@ 0x28
 8023c98:	f200 80a0 	bhi.w	8023ddc <HAL_RCCEx_PeriphCLKConfig+0x57c>
 8023c9c:	e8df f003 	tbb	[pc, r3]
 8023ca0:	9e9e9e8e 	.word	0x9e9e9e8e
 8023ca4:	9e9e9e9e 	.word	0x9e9e9e9e
 8023ca8:	9e9e9e88 	.word	0x9e9e9e88
 8023cac:	9e9e9e9e 	.word	0x9e9e9e9e
 8023cb0:	9e9e9e97 	.word	0x9e9e9e97
 8023cb4:	9e9e9e9e 	.word	0x9e9e9e9e
 8023cb8:	9e9e9e8e 	.word	0x9e9e9e8e
 8023cbc:	9e9e9e9e 	.word	0x9e9e9e9e
 8023cc0:	9e9e9e8e 	.word	0x9e9e9e8e
 8023cc4:	9e9e9e9e 	.word	0x9e9e9e9e
 8023cc8:	8e          	.byte	0x8e
 8023cc9:	00          	.byte	0x00
        ret = RCCEx_PLL2_Config(&(PeriphClkInit->PLL2), DIVIDER_R_UPDATE);
 8023cca:	2102      	movs	r1, #2
 8023ccc:	f104 0008 	add.w	r0, r4, #8
 8023cd0:	f7ff fcbe 	bl	8023650 <RCCEx_PLL2_Config>
 8023cd4:	4605      	mov	r5, r0
        break;
 8023cd6:	e7cc      	b.n	8023c72 <HAL_RCCEx_PeriphCLKConfig+0x412>
    switch (PeriphClkInit->FmcClockSelection)
 8023cd8:	2601      	movs	r6, #1
 8023cda:	4635      	mov	r5, r6
 8023cdc:	e7d1      	b.n	8023c82 <HAL_RCCEx_PeriphCLKConfig+0x422>
      status = ret;
 8023cde:	462e      	mov	r6, r5
 8023ce0:	e7cf      	b.n	8023c82 <HAL_RCCEx_PeriphCLKConfig+0x422>
 8023ce2:	bf00      	nop
 8023ce4:	58024400 	.word	0x58024400
    SET_BIT(PWR->CR1, PWR_CR1_DBP);
 8023ce8:	4a5a      	ldr	r2, [pc, #360]	@ (8023e54 <HAL_RCCEx_PeriphCLKConfig+0x5f4>)
 8023cea:	6813      	ldr	r3, [r2, #0]
 8023cec:	f443 7380 	orr.w	r3, r3, #256	@ 0x100
 8023cf0:	6013      	str	r3, [r2, #0]
    tickstart = HAL_GetTick();
 8023cf2:	f7fd f999 	bl	8021028 <HAL_GetTick>
 8023cf6:	4607      	mov	r7, r0
    while ((PWR->CR1 & PWR_CR1_DBP) == 0U)
 8023cf8:	4b56      	ldr	r3, [pc, #344]	@ (8023e54 <HAL_RCCEx_PeriphCLKConfig+0x5f4>)
 8023cfa:	681b      	ldr	r3, [r3, #0]
 8023cfc:	f413 7f80 	tst.w	r3, #256	@ 0x100
 8023d00:	d105      	bne.n	8023d0e <HAL_RCCEx_PeriphCLKConfig+0x4ae>
      if ((HAL_GetTick() - tickstart) > RCC_DBP_TIMEOUT_VALUE)
 8023d02:	f7fd f991 	bl	8021028 <HAL_GetTick>
 8023d06:	1bc0      	subs	r0, r0, r7
 8023d08:	2864      	cmp	r0, #100	@ 0x64
 8023d0a:	d9f5      	bls.n	8023cf8 <HAL_RCCEx_PeriphCLKConfig+0x498>
        ret = HAL_TIMEOUT;
 8023d0c:	2503      	movs	r5, #3
    if (ret == HAL_OK)
 8023d0e:	2d00      	cmp	r5, #0
 8023d10:	d14a      	bne.n	8023da8 <HAL_RCCEx_PeriphCLKConfig+0x548>
      if ((RCC->BDCR & RCC_BDCR_RTCSEL) != (PeriphClkInit->RTCClockSelection & RCC_BDCR_RTCSEL))
 8023d12:	4b51      	ldr	r3, [pc, #324]	@ (8023e58 <HAL_RCCEx_PeriphCLKConfig+0x5f8>)
 8023d14:	6f1b      	ldr	r3, [r3, #112]	@ 0x70
 8023d16:	f8d4 20b4 	ldr.w	r2, [r4, #180]	@ 0xb4
 8023d1a:	4053      	eors	r3, r2
 8023d1c:	f413 7f40 	tst.w	r3, #768	@ 0x300
 8023d20:	d00c      	beq.n	8023d3c <HAL_RCCEx_PeriphCLKConfig+0x4dc>
        tmpreg = (RCC->BDCR & ~(RCC_BDCR_RTCSEL));
 8023d22:	4b4d      	ldr	r3, [pc, #308]	@ (8023e58 <HAL_RCCEx_PeriphCLKConfig+0x5f8>)
 8023d24:	6f1a      	ldr	r2, [r3, #112]	@ 0x70
 8023d26:	f422 7240 	bic.w	r2, r2, #768	@ 0x300
        __HAL_RCC_BACKUPRESET_FORCE();
 8023d2a:	6f19      	ldr	r1, [r3, #112]	@ 0x70
 8023d2c:	f441 3180 	orr.w	r1, r1, #65536	@ 0x10000
 8023d30:	6719      	str	r1, [r3, #112]	@ 0x70
        __HAL_RCC_BACKUPRESET_RELEASE();
 8023d32:	6f19      	ldr	r1, [r3, #112]	@ 0x70
 8023d34:	f421 3180 	bic.w	r1, r1, #65536	@ 0x10000
 8023d38:	6719      	str	r1, [r3, #112]	@ 0x70
        RCC->BDCR = tmpreg;
 8023d3a:	671a      	str	r2, [r3, #112]	@ 0x70
      if (PeriphClkInit->RTCClockSelection == RCC_RTCCLKSOURCE_LSE)
 8023d3c:	f8d4 30b4 	ldr.w	r3, [r4, #180]	@ 0xb4
 8023d40:	f5b3 7f80 	cmp.w	r3, #256	@ 0x100
 8023d44:	d015      	beq.n	8023d72 <HAL_RCCEx_PeriphCLKConfig+0x512>
      if (ret == HAL_OK)
 8023d46:	bb8d      	cbnz	r5, 8023dac <HAL_RCCEx_PeriphCLKConfig+0x54c>
        __HAL_RCC_RTC_CONFIG(PeriphClkInit->RTCClockSelection);
 8023d48:	f8d4 30b4 	ldr.w	r3, [r4, #180]	@ 0xb4
 8023d4c:	f403 7240 	and.w	r2, r3, #768	@ 0x300
 8023d50:	f5b2 7f40 	cmp.w	r2, #768	@ 0x300
 8023d54:	d01e      	beq.n	8023d94 <HAL_RCCEx_PeriphCLKConfig+0x534>
 8023d56:	4a40      	ldr	r2, [pc, #256]	@ (8023e58 <HAL_RCCEx_PeriphCLKConfig+0x5f8>)
 8023d58:	6913      	ldr	r3, [r2, #16]
 8023d5a:	f423 537c 	bic.w	r3, r3, #16128	@ 0x3f00
 8023d5e:	6113      	str	r3, [r2, #16]
 8023d60:	493d      	ldr	r1, [pc, #244]	@ (8023e58 <HAL_RCCEx_PeriphCLKConfig+0x5f8>)
 8023d62:	6f0b      	ldr	r3, [r1, #112]	@ 0x70
 8023d64:	f8d4 20b4 	ldr.w	r2, [r4, #180]	@ 0xb4
 8023d68:	f3c2 020b 	ubfx	r2, r2, #0, #12
 8023d6c:	4313      	orrs	r3, r2
 8023d6e:	670b      	str	r3, [r1, #112]	@ 0x70
 8023d70:	e78b      	b.n	8023c8a <HAL_RCCEx_PeriphCLKConfig+0x42a>
        tickstart = HAL_GetTick();
 8023d72:	f7fd f959 	bl	8021028 <HAL_GetTick>
 8023d76:	4607      	mov	r7, r0
        while (__HAL_RCC_GET_FLAG(RCC_FLAG_LSERDY) == 0U)
 8023d78:	4b37      	ldr	r3, [pc, #220]	@ (8023e58 <HAL_RCCEx_PeriphCLKConfig+0x5f8>)
 8023d7a:	6f1b      	ldr	r3, [r3, #112]	@ 0x70
 8023d7c:	f013 0f02 	tst.w	r3, #2
 8023d80:	d1e1      	bne.n	8023d46 <HAL_RCCEx_PeriphCLKConfig+0x4e6>
          if ((HAL_GetTick() - tickstart) > RCC_LSE_TIMEOUT_VALUE)
 8023d82:	f7fd f951 	bl	8021028 <HAL_GetTick>
 8023d86:	1bc0      	subs	r0, r0, r7
 8023d88:	f241 3388 	movw	r3, #5000	@ 0x1388
 8023d8c:	4298      	cmp	r0, r3
 8023d8e:	d9f3      	bls.n	8023d78 <HAL_RCCEx_PeriphCLKConfig+0x518>
            ret = HAL_TIMEOUT;
 8023d90:	2503      	movs	r5, #3
 8023d92:	e7d8      	b.n	8023d46 <HAL_RCCEx_PeriphCLKConfig+0x4e6>
        __HAL_RCC_RTC_CONFIG(PeriphClkInit->RTCClockSelection);
 8023d94:	4830      	ldr	r0, [pc, #192]	@ (8023e58 <HAL_RCCEx_PeriphCLKConfig+0x5f8>)
 8023d96:	6902      	ldr	r2, [r0, #16]
 8023d98:	f422 527c 	bic.w	r2, r2, #16128	@ 0x3f00
 8023d9c:	492f      	ldr	r1, [pc, #188]	@ (8023e5c <HAL_RCCEx_PeriphCLKConfig+0x5fc>)
 8023d9e:	ea01 1313 	and.w	r3, r1, r3, lsr #4
 8023da2:	4313      	orrs	r3, r2
 8023da4:	6103      	str	r3, [r0, #16]
 8023da6:	e7db      	b.n	8023d60 <HAL_RCCEx_PeriphCLKConfig+0x500>
      status = ret;
 8023da8:	462e      	mov	r6, r5
 8023daa:	e76e      	b.n	8023c8a <HAL_RCCEx_PeriphCLKConfig+0x42a>
        status = ret;
 8023dac:	462e      	mov	r6, r5
 8023dae:	e76c      	b.n	8023c8a <HAL_RCCEx_PeriphCLKConfig+0x42a>
        ret = RCCEx_PLL2_Config(&(PeriphClkInit->PLL2), DIVIDER_Q_UPDATE);
 8023db0:	2101      	movs	r1, #1
 8023db2:	f104 0008 	add.w	r0, r4, #8
 8023db6:	f7ff fc4b 	bl	8023650 <RCCEx_PLL2_Config>
 8023dba:	4605      	mov	r5, r0
    if (ret == HAL_OK)
 8023dbc:	b9e5      	cbnz	r5, 8023df8 <HAL_RCCEx_PeriphCLKConfig+0x598>
      __HAL_RCC_USART16_CONFIG(PeriphClkInit->Usart16ClockSelection);
 8023dbe:	4a26      	ldr	r2, [pc, #152]	@ (8023e58 <HAL_RCCEx_PeriphCLKConfig+0x5f8>)
 8023dc0:	6d53      	ldr	r3, [r2, #84]	@ 0x54
 8023dc2:	f023 0338 	bic.w	r3, r3, #56	@ 0x38
 8023dc6:	6fe1      	ldr	r1, [r4, #124]	@ 0x7c
 8023dc8:	430b      	orrs	r3, r1
 8023dca:	6553      	str	r3, [r2, #84]	@ 0x54
 8023dcc:	e008      	b.n	8023de0 <HAL_RCCEx_PeriphCLKConfig+0x580>
        ret = RCCEx_PLL3_Config(&(PeriphClkInit->PLL3), DIVIDER_Q_UPDATE);
 8023dce:	2101      	movs	r1, #1
 8023dd0:	f104 0028 	add.w	r0, r4, #40	@ 0x28
 8023dd4:	f7ff fcc0 	bl	8023758 <RCCEx_PLL3_Config>
 8023dd8:	4605      	mov	r5, r0
        break;
 8023dda:	e7ef      	b.n	8023dbc <HAL_RCCEx_PeriphCLKConfig+0x55c>
    switch (PeriphClkInit->Usart16ClockSelection)
 8023ddc:	2601      	movs	r6, #1
 8023dde:	4635      	mov	r5, r6
  if (((PeriphClkInit->PeriphClockSelection) & RCC_PERIPHCLK_USART234578) == RCC_PERIPHCLK_USART234578)
 8023de0:	6823      	ldr	r3, [r4, #0]
 8023de2:	f013 0f02 	tst.w	r3, #2
 8023de6:	d017      	beq.n	8023e18 <HAL_RCCEx_PeriphCLKConfig+0x5b8>
    switch (PeriphClkInit->Usart234578ClockSelection)
 8023de8:	6fa3      	ldr	r3, [r4, #120]	@ 0x78
 8023dea:	2b05      	cmp	r3, #5
 8023dec:	d82c      	bhi.n	8023e48 <HAL_RCCEx_PeriphCLKConfig+0x5e8>
 8023dee:	e8df f003 	tbb	[pc, r3]
 8023df2:	050b      	.short	0x050b
 8023df4:	0b0b0b24 	.word	0x0b0b0b24
      status = ret;
 8023df8:	462e      	mov	r6, r5
 8023dfa:	e7f1      	b.n	8023de0 <HAL_RCCEx_PeriphCLKConfig+0x580>
        ret = RCCEx_PLL2_Config(&(PeriphClkInit->PLL2), DIVIDER_Q_UPDATE);
 8023dfc:	2101      	movs	r1, #1
 8023dfe:	f104 0008 	add.w	r0, r4, #8
 8023e02:	f7ff fc25 	bl	8023650 <RCCEx_PLL2_Config>
 8023e06:	4605      	mov	r5, r0
    if (ret == HAL_OK)
 8023e08:	bb0d      	cbnz	r5, 8023e4e <HAL_RCCEx_PeriphCLKConfig+0x5ee>
      __HAL_RCC_USART234578_CONFIG(PeriphClkInit->Usart234578ClockSelection);
 8023e0a:	4a13      	ldr	r2, [pc, #76]	@ (8023e58 <HAL_RCCEx_PeriphCLKConfig+0x5f8>)
 8023e0c:	6d53      	ldr	r3, [r2, #84]	@ 0x54
 8023e0e:	f023 0307 	bic.w	r3, r3, #7
 8023e12:	6fa1      	ldr	r1, [r4, #120]	@ 0x78
 8023e14:	430b      	orrs	r3, r1
 8023e16:	6553      	str	r3, [r2, #84]	@ 0x54
  if (((PeriphClkInit->PeriphClockSelection) & RCC_PERIPHCLK_LPUART1) == RCC_PERIPHCLK_LPUART1)
 8023e18:	6823      	ldr	r3, [r4, #0]
 8023e1a:	f013 0f04 	tst.w	r3, #4
 8023e1e:	d030      	beq.n	8023e82 <HAL_RCCEx_PeriphCLKConfig+0x622>
    switch (PeriphClkInit->Lpuart1ClockSelection)
 8023e20:	f8d4 3094 	ldr.w	r3, [r4, #148]	@ 0x94
 8023e24:	2b05      	cmp	r3, #5
 8023e26:	f200 810f 	bhi.w	8024048 <HAL_RCCEx_PeriphCLKConfig+0x7e8>
 8023e2a:	e8df f013 	tbh	[pc, r3, lsl #1]
 8023e2e:	001f      	.short	0x001f
 8023e30:	01060019 	.word	0x01060019
 8023e34:	001f001f 	.word	0x001f001f
 8023e38:	001f      	.short	0x001f
        ret = RCCEx_PLL3_Config(&(PeriphClkInit->PLL3), DIVIDER_Q_UPDATE);
 8023e3a:	2101      	movs	r1, #1
 8023e3c:	f104 0028 	add.w	r0, r4, #40	@ 0x28
 8023e40:	f7ff fc8a 	bl	8023758 <RCCEx_PLL3_Config>
 8023e44:	4605      	mov	r5, r0
        break;
 8023e46:	e7df      	b.n	8023e08 <HAL_RCCEx_PeriphCLKConfig+0x5a8>
    switch (PeriphClkInit->Usart234578ClockSelection)
 8023e48:	2601      	movs	r6, #1
 8023e4a:	4635      	mov	r5, r6
 8023e4c:	e7e4      	b.n	8023e18 <HAL_RCCEx_PeriphCLKConfig+0x5b8>
      status = ret;
 8023e4e:	462e      	mov	r6, r5
 8023e50:	e7e2      	b.n	8023e18 <HAL_RCCEx_PeriphCLKConfig+0x5b8>
 8023e52:	bf00      	nop
 8023e54:	58024800 	.word	0x58024800
 8023e58:	58024400 	.word	0x58024400
 8023e5c:	00ffffcf 	.word	0x00ffffcf
        ret = RCCEx_PLL2_Config(&(PeriphClkInit->PLL2), DIVIDER_Q_UPDATE);
 8023e60:	2101      	movs	r1, #1
 8023e62:	f104 0008 	add.w	r0, r4, #8
 8023e66:	f7ff fbf3 	bl	8023650 <RCCEx_PLL2_Config>
 8023e6a:	4605      	mov	r5, r0
    if (ret == HAL_OK)
 8023e6c:	2d00      	cmp	r5, #0
 8023e6e:	f040 80ee 	bne.w	802404e <HAL_RCCEx_PeriphCLKConfig+0x7ee>
      __HAL_RCC_LPUART1_CONFIG(PeriphClkInit->Lpuart1ClockSelection);
 8023e72:	4ab6      	ldr	r2, [pc, #728]	@ (802414c <HAL_RCCEx_PeriphCLKConfig+0x8ec>)
 8023e74:	6d93      	ldr	r3, [r2, #88]	@ 0x58
 8023e76:	f023 0307 	bic.w	r3, r3, #7
 8023e7a:	f8d4 1094 	ldr.w	r1, [r4, #148]	@ 0x94
 8023e7e:	430b      	orrs	r3, r1
 8023e80:	6593      	str	r3, [r2, #88]	@ 0x58
  if (((PeriphClkInit->PeriphClockSelection) & RCC_PERIPHCLK_LPTIM1) == RCC_PERIPHCLK_LPTIM1)
 8023e82:	6823      	ldr	r3, [r4, #0]
 8023e84:	f013 0f20 	tst.w	r3, #32
 8023e88:	d01d      	beq.n	8023ec6 <HAL_RCCEx_PeriphCLKConfig+0x666>
    switch (PeriphClkInit->Lptim1ClockSelection)
 8023e8a:	f8d4 3090 	ldr.w	r3, [r4, #144]	@ 0x90
 8023e8e:	f1b3 5f00 	cmp.w	r3, #536870912	@ 0x20000000
 8023e92:	f000 80f0 	beq.w	8024076 <HAL_RCCEx_PeriphCLKConfig+0x816>
 8023e96:	f200 80df 	bhi.w	8024058 <HAL_RCCEx_PeriphCLKConfig+0x7f8>
 8023e9a:	b14b      	cbz	r3, 8023eb0 <HAL_RCCEx_PeriphCLKConfig+0x650>
 8023e9c:	f1b3 5f80 	cmp.w	r3, #268435456	@ 0x10000000
 8023ea0:	f040 80d7 	bne.w	8024052 <HAL_RCCEx_PeriphCLKConfig+0x7f2>
        ret = RCCEx_PLL2_Config(&(PeriphClkInit->PLL2), DIVIDER_P_UPDATE);
 8023ea4:	2100      	movs	r1, #0
 8023ea6:	f104 0008 	add.w	r0, r4, #8
 8023eaa:	f7ff fbd1 	bl	8023650 <RCCEx_PLL2_Config>
 8023eae:	4605      	mov	r5, r0
    if (ret == HAL_OK)
 8023eb0:	2d00      	cmp	r5, #0
 8023eb2:	f040 80e7 	bne.w	8024084 <HAL_RCCEx_PeriphCLKConfig+0x824>
      __HAL_RCC_LPTIM1_CONFIG(PeriphClkInit->Lptim1ClockSelection);
 8023eb6:	4aa5      	ldr	r2, [pc, #660]	@ (802414c <HAL_RCCEx_PeriphCLKConfig+0x8ec>)
 8023eb8:	6d53      	ldr	r3, [r2, #84]	@ 0x54
 8023eba:	f023 43e0 	bic.w	r3, r3, #1879048192	@ 0x70000000
 8023ebe:	f8d4 1090 	ldr.w	r1, [r4, #144]	@ 0x90
 8023ec2:	430b      	orrs	r3, r1
 8023ec4:	6553      	str	r3, [r2, #84]	@ 0x54
  if (((PeriphClkInit->PeriphClockSelection) & RCC_PERIPHCLK_LPTIM2) == RCC_PERIPHCLK_LPTIM2)
 8023ec6:	6823      	ldr	r3, [r4, #0]
 8023ec8:	f013 0f40 	tst.w	r3, #64	@ 0x40
 8023ecc:	d01d      	beq.n	8023f0a <HAL_RCCEx_PeriphCLKConfig+0x6aa>
    switch (PeriphClkInit->Lptim2ClockSelection)
 8023ece:	f8d4 309c 	ldr.w	r3, [r4, #156]	@ 0x9c
 8023ed2:	f5b3 6f00 	cmp.w	r3, #2048	@ 0x800
 8023ed6:	f000 80e9 	beq.w	80240ac <HAL_RCCEx_PeriphCLKConfig+0x84c>
 8023eda:	f200 80d8 	bhi.w	802408e <HAL_RCCEx_PeriphCLKConfig+0x82e>
 8023ede:	b14b      	cbz	r3, 8023ef4 <HAL_RCCEx_PeriphCLKConfig+0x694>
 8023ee0:	f5b3 6f80 	cmp.w	r3, #1024	@ 0x400
 8023ee4:	f040 80d0 	bne.w	8024088 <HAL_RCCEx_PeriphCLKConfig+0x828>
        ret = RCCEx_PLL2_Config(&(PeriphClkInit->PLL2), DIVIDER_P_UPDATE);
 8023ee8:	2100      	movs	r1, #0
 8023eea:	f104 0008 	add.w	r0, r4, #8
 8023eee:	f7ff fbaf 	bl	8023650 <RCCEx_PLL2_Config>
 8023ef2:	4605      	mov	r5, r0
    if (ret == HAL_OK)
 8023ef4:	2d00      	cmp	r5, #0
 8023ef6:	f040 80e0 	bne.w	80240ba <HAL_RCCEx_PeriphCLKConfig+0x85a>
      __HAL_RCC_LPTIM2_CONFIG(PeriphClkInit->Lptim2ClockSelection);
 8023efa:	4a94      	ldr	r2, [pc, #592]	@ (802414c <HAL_RCCEx_PeriphCLKConfig+0x8ec>)
 8023efc:	6d93      	ldr	r3, [r2, #88]	@ 0x58
 8023efe:	f423 53e0 	bic.w	r3, r3, #7168	@ 0x1c00
 8023f02:	f8d4 109c 	ldr.w	r1, [r4, #156]	@ 0x9c
 8023f06:	430b      	orrs	r3, r1
 8023f08:	6593      	str	r3, [r2, #88]	@ 0x58
  if (((PeriphClkInit->PeriphClockSelection) & RCC_PERIPHCLK_LPTIM345) == RCC_PERIPHCLK_LPTIM345)
 8023f0a:	6823      	ldr	r3, [r4, #0]
 8023f0c:	f013 0f80 	tst.w	r3, #128	@ 0x80
 8023f10:	d01d      	beq.n	8023f4e <HAL_RCCEx_PeriphCLKConfig+0x6ee>
    switch (PeriphClkInit->Lptim345ClockSelection)
 8023f12:	f8d4 30a0 	ldr.w	r3, [r4, #160]	@ 0xa0
 8023f16:	f5b3 4f80 	cmp.w	r3, #16384	@ 0x4000
 8023f1a:	f000 80e2 	beq.w	80240e2 <HAL_RCCEx_PeriphCLKConfig+0x882>
 8023f1e:	f200 80d1 	bhi.w	80240c4 <HAL_RCCEx_PeriphCLKConfig+0x864>
 8023f22:	b14b      	cbz	r3, 8023f38 <HAL_RCCEx_PeriphCLKConfig+0x6d8>
 8023f24:	f5b3 5f00 	cmp.w	r3, #8192	@ 0x2000
 8023f28:	f040 80c9 	bne.w	80240be <HAL_RCCEx_PeriphCLKConfig+0x85e>
        ret = RCCEx_PLL2_Config(&(PeriphClkInit->PLL2), DIVIDER_P_UPDATE);
 8023f2c:	2100      	movs	r1, #0
 8023f2e:	f104 0008 	add.w	r0, r4, #8
 8023f32:	f7ff fb8d 	bl	8023650 <RCCEx_PLL2_Config>
 8023f36:	4605      	mov	r5, r0
    if (ret == HAL_OK)
 8023f38:	2d00      	cmp	r5, #0
 8023f3a:	f040 80d9 	bne.w	80240f0 <HAL_RCCEx_PeriphCLKConfig+0x890>
      __HAL_RCC_LPTIM345_CONFIG(PeriphClkInit->Lptim345ClockSelection);
 8023f3e:	4a83      	ldr	r2, [pc, #524]	@ (802414c <HAL_RCCEx_PeriphCLKConfig+0x8ec>)
 8023f40:	6d93      	ldr	r3, [r2, #88]	@ 0x58
 8023f42:	f423 4360 	bic.w	r3, r3, #57344	@ 0xe000
 8023f46:	f8d4 10a0 	ldr.w	r1, [r4, #160]	@ 0xa0
 8023f4a:	430b      	orrs	r3, r1
 8023f4c:	6593      	str	r3, [r2, #88]	@ 0x58
  if (((PeriphClkInit->PeriphClockSelection) & RCC_PERIPHCLK_I2C123) == RCC_PERIPHCLK_I2C123)
 8023f4e:	6823      	ldr	r3, [r4, #0]
 8023f50:	f013 0f08 	tst.w	r3, #8
 8023f54:	d00d      	beq.n	8023f72 <HAL_RCCEx_PeriphCLKConfig+0x712>
    if ((PeriphClkInit->I2c123ClockSelection) == RCC_I2C123CLKSOURCE_PLL3)
 8023f56:	f8d4 3084 	ldr.w	r3, [r4, #132]	@ 0x84
 8023f5a:	f5b3 5f80 	cmp.w	r3, #4096	@ 0x1000
 8023f5e:	f000 80c9 	beq.w	80240f4 <HAL_RCCEx_PeriphCLKConfig+0x894>
    __HAL_RCC_I2C123_CONFIG(PeriphClkInit->I2c123ClockSelection);
 8023f62:	4a7a      	ldr	r2, [pc, #488]	@ (802414c <HAL_RCCEx_PeriphCLKConfig+0x8ec>)
 8023f64:	6d53      	ldr	r3, [r2, #84]	@ 0x54
 8023f66:	f423 5340 	bic.w	r3, r3, #12288	@ 0x3000
 8023f6a:	f8d4 1084 	ldr.w	r1, [r4, #132]	@ 0x84
 8023f6e:	430b      	orrs	r3, r1
 8023f70:	6553      	str	r3, [r2, #84]	@ 0x54
  if (((PeriphClkInit->PeriphClockSelection) & RCC_PERIPHCLK_I2C4) == RCC_PERIPHCLK_I2C4)
 8023f72:	6823      	ldr	r3, [r4, #0]
 8023f74:	f013 0f10 	tst.w	r3, #16
 8023f78:	d00d      	beq.n	8023f96 <HAL_RCCEx_PeriphCLKConfig+0x736>
    if ((PeriphClkInit->I2c4ClockSelection) == RCC_I2C4CLKSOURCE_PLL3)
 8023f7a:	f8d4 3098 	ldr.w	r3, [r4, #152]	@ 0x98
 8023f7e:	f5b3 7f80 	cmp.w	r3, #256	@ 0x100
 8023f82:	f000 80c1 	beq.w	8024108 <HAL_RCCEx_PeriphCLKConfig+0x8a8>
    __HAL_RCC_I2C4_CONFIG(PeriphClkInit->I2c4ClockSelection);
 8023f86:	4a71      	ldr	r2, [pc, #452]	@ (802414c <HAL_RCCEx_PeriphCLKConfig+0x8ec>)
 8023f88:	6d93      	ldr	r3, [r2, #88]	@ 0x58
 8023f8a:	f423 7340 	bic.w	r3, r3, #768	@ 0x300
 8023f8e:	f8d4 1098 	ldr.w	r1, [r4, #152]	@ 0x98
 8023f92:	430b      	orrs	r3, r1
 8023f94:	6593      	str	r3, [r2, #88]	@ 0x58
  if (((PeriphClkInit->PeriphClockSelection) & RCC_PERIPHCLK_ADC) == RCC_PERIPHCLK_ADC)
 8023f96:	6823      	ldr	r3, [r4, #0]
 8023f98:	f413 2f00 	tst.w	r3, #524288	@ 0x80000
 8023f9c:	d01c      	beq.n	8023fd8 <HAL_RCCEx_PeriphCLKConfig+0x778>
    switch (PeriphClkInit->AdcClockSelection)
 8023f9e:	f8d4 30a4 	ldr.w	r3, [r4, #164]	@ 0xa4
 8023fa2:	f5b3 3f80 	cmp.w	r3, #65536	@ 0x10000
 8023fa6:	f000 80b9 	beq.w	802411c <HAL_RCCEx_PeriphCLKConfig+0x8bc>
 8023faa:	f5b3 3f00 	cmp.w	r3, #131072	@ 0x20000
 8023fae:	d008      	beq.n	8023fc2 <HAL_RCCEx_PeriphCLKConfig+0x762>
 8023fb0:	2b00      	cmp	r3, #0
 8023fb2:	f040 80ba 	bne.w	802412a <HAL_RCCEx_PeriphCLKConfig+0x8ca>
        ret = RCCEx_PLL2_Config(&(PeriphClkInit->PLL2), DIVIDER_P_UPDATE);
 8023fb6:	2100      	movs	r1, #0
 8023fb8:	f104 0008 	add.w	r0, r4, #8
 8023fbc:	f7ff fb48 	bl	8023650 <RCCEx_PLL2_Config>
 8023fc0:	4605      	mov	r5, r0
    if (ret == HAL_OK)
 8023fc2:	2d00      	cmp	r5, #0
 8023fc4:	f040 80b4 	bne.w	8024130 <HAL_RCCEx_PeriphCLKConfig+0x8d0>
      __HAL_RCC_ADC_CONFIG(PeriphClkInit->AdcClockSelection);
 8023fc8:	4a60      	ldr	r2, [pc, #384]	@ (802414c <HAL_RCCEx_PeriphCLKConfig+0x8ec>)
 8023fca:	6d93      	ldr	r3, [r2, #88]	@ 0x58
 8023fcc:	f423 3340 	bic.w	r3, r3, #196608	@ 0x30000
 8023fd0:	f8d4 10a4 	ldr.w	r1, [r4, #164]	@ 0xa4
 8023fd4:	430b      	orrs	r3, r1
 8023fd6:	6593      	str	r3, [r2, #88]	@ 0x58
  if (((PeriphClkInit->PeriphClockSelection) & RCC_PERIPHCLK_USB) == RCC_PERIPHCLK_USB)
 8023fd8:	6823      	ldr	r3, [r4, #0]
 8023fda:	f413 2f80 	tst.w	r3, #262144	@ 0x40000
 8023fde:	d01c      	beq.n	802401a <HAL_RCCEx_PeriphCLKConfig+0x7ba>
    switch (PeriphClkInit->UsbClockSelection)
 8023fe0:	f8d4 3088 	ldr.w	r3, [r4, #136]	@ 0x88
 8023fe4:	f5b3 1f00 	cmp.w	r3, #2097152	@ 0x200000
 8023fe8:	f000 80a4 	beq.w	8024134 <HAL_RCCEx_PeriphCLKConfig+0x8d4>
 8023fec:	f5b3 1f40 	cmp.w	r3, #3145728	@ 0x300000
 8023ff0:	d008      	beq.n	8024004 <HAL_RCCEx_PeriphCLKConfig+0x7a4>
 8023ff2:	f5b3 1f80 	cmp.w	r3, #1048576	@ 0x100000
 8023ff6:	f040 80a4 	bne.w	8024142 <HAL_RCCEx_PeriphCLKConfig+0x8e2>
        __HAL_RCC_PLLCLKOUT_ENABLE(RCC_PLL1_DIVQ);
 8023ffa:	4a54      	ldr	r2, [pc, #336]	@ (802414c <HAL_RCCEx_PeriphCLKConfig+0x8ec>)
 8023ffc:	6ad3      	ldr	r3, [r2, #44]	@ 0x2c
 8023ffe:	f443 3300 	orr.w	r3, r3, #131072	@ 0x20000
 8024002:	62d3      	str	r3, [r2, #44]	@ 0x2c
    if (ret == HAL_OK)
 8024004:	2d00      	cmp	r5, #0
 8024006:	f040 809f 	bne.w	8024148 <HAL_RCCEx_PeriphCLKConfig+0x8e8>
      __HAL_RCC_USB_CONFIG(PeriphClkInit->UsbClockSelection);
 802400a:	4a50      	ldr	r2, [pc, #320]	@ (802414c <HAL_RCCEx_PeriphCLKConfig+0x8ec>)
 802400c:	6d53      	ldr	r3, [r2, #84]	@ 0x54
 802400e:	f423 1340 	bic.w	r3, r3, #3145728	@ 0x300000
 8024012:	f8d4 1088 	ldr.w	r1, [r4, #136]	@ 0x88
 8024016:	430b      	orrs	r3, r1
 8024018:	6553      	str	r3, [r2, #84]	@ 0x54
  if (((PeriphClkInit->PeriphClockSelection) & RCC_PERIPHCLK_SDMMC) == RCC_PERIPHCLK_SDMMC)
 802401a:	6823      	ldr	r3, [r4, #0]
 802401c:	f413 3f80 	tst.w	r3, #65536	@ 0x10000
 8024020:	f000 80ac 	beq.w	802417c <HAL_RCCEx_PeriphCLKConfig+0x91c>
    switch (PeriphClkInit->SdmmcClockSelection)
 8024024:	6d23      	ldr	r3, [r4, #80]	@ 0x50
 8024026:	2b00      	cmp	r3, #0
 8024028:	f000 8092 	beq.w	8024150 <HAL_RCCEx_PeriphCLKConfig+0x8f0>
 802402c:	f5b3 3f80 	cmp.w	r3, #65536	@ 0x10000
 8024030:	f000 809c 	beq.w	802416c <HAL_RCCEx_PeriphCLKConfig+0x90c>
 8024034:	2601      	movs	r6, #1
 8024036:	4635      	mov	r5, r6
 8024038:	e0a0      	b.n	802417c <HAL_RCCEx_PeriphCLKConfig+0x91c>
        ret = RCCEx_PLL3_Config(&(PeriphClkInit->PLL3), DIVIDER_Q_UPDATE);
 802403a:	2101      	movs	r1, #1
 802403c:	f104 0028 	add.w	r0, r4, #40	@ 0x28
 8024040:	f7ff fb8a 	bl	8023758 <RCCEx_PLL3_Config>
 8024044:	4605      	mov	r5, r0
        break;
 8024046:	e711      	b.n	8023e6c <HAL_RCCEx_PeriphCLKConfig+0x60c>
    switch (PeriphClkInit->Lpuart1ClockSelection)
 8024048:	2601      	movs	r6, #1
 802404a:	4635      	mov	r5, r6
 802404c:	e719      	b.n	8023e82 <HAL_RCCEx_PeriphCLKConfig+0x622>
      status = ret;
 802404e:	462e      	mov	r6, r5
 8024050:	e717      	b.n	8023e82 <HAL_RCCEx_PeriphCLKConfig+0x622>
    switch (PeriphClkInit->Lptim1ClockSelection)
 8024052:	2601      	movs	r6, #1
 8024054:	4635      	mov	r5, r6
 8024056:	e736      	b.n	8023ec6 <HAL_RCCEx_PeriphCLKConfig+0x666>
 8024058:	f1b3 4f80 	cmp.w	r3, #1073741824	@ 0x40000000
 802405c:	f43f af28 	beq.w	8023eb0 <HAL_RCCEx_PeriphCLKConfig+0x650>
 8024060:	f1b3 4fa0 	cmp.w	r3, #1342177280	@ 0x50000000
 8024064:	f43f af24 	beq.w	8023eb0 <HAL_RCCEx_PeriphCLKConfig+0x650>
 8024068:	f1b3 5f40 	cmp.w	r3, #805306368	@ 0x30000000
 802406c:	f43f af20 	beq.w	8023eb0 <HAL_RCCEx_PeriphCLKConfig+0x650>
 8024070:	2601      	movs	r6, #1
 8024072:	4635      	mov	r5, r6
 8024074:	e727      	b.n	8023ec6 <HAL_RCCEx_PeriphCLKConfig+0x666>
        ret = RCCEx_PLL3_Config(&(PeriphClkInit->PLL3), DIVIDER_R_UPDATE);
 8024076:	2102      	movs	r1, #2
 8024078:	f104 0028 	add.w	r0, r4, #40	@ 0x28
 802407c:	f7ff fb6c 	bl	8023758 <RCCEx_PLL3_Config>
 8024080:	4605      	mov	r5, r0
        break;
 8024082:	e715      	b.n	8023eb0 <HAL_RCCEx_PeriphCLKConfig+0x650>
      status = ret;
 8024084:	462e      	mov	r6, r5
 8024086:	e71e      	b.n	8023ec6 <HAL_RCCEx_PeriphCLKConfig+0x666>
    switch (PeriphClkInit->Lptim2ClockSelection)
 8024088:	2601      	movs	r6, #1
 802408a:	4635      	mov	r5, r6
 802408c:	e73d      	b.n	8023f0a <HAL_RCCEx_PeriphCLKConfig+0x6aa>
 802408e:	f5b3 5f80 	cmp.w	r3, #4096	@ 0x1000
 8024092:	f43f af2f 	beq.w	8023ef4 <HAL_RCCEx_PeriphCLKConfig+0x694>
 8024096:	f5b3 5fa0 	cmp.w	r3, #5120	@ 0x1400
 802409a:	f43f af2b 	beq.w	8023ef4 <HAL_RCCEx_PeriphCLKConfig+0x694>
 802409e:	f5b3 6f40 	cmp.w	r3, #3072	@ 0xc00
 80240a2:	f43f af27 	beq.w	8023ef4 <HAL_RCCEx_PeriphCLKConfig+0x694>
 80240a6:	2601      	movs	r6, #1
 80240a8:	4635      	mov	r5, r6
 80240aa:	e72e      	b.n	8023f0a <HAL_RCCEx_PeriphCLKConfig+0x6aa>
        ret = RCCEx_PLL3_Config(&(PeriphClkInit->PLL3), DIVIDER_R_UPDATE);
 80240ac:	2102      	movs	r1, #2
 80240ae:	f104 0028 	add.w	r0, r4, #40	@ 0x28
 80240b2:	f7ff fb51 	bl	8023758 <RCCEx_PLL3_Config>
 80240b6:	4605      	mov	r5, r0
        break;
 80240b8:	e71c      	b.n	8023ef4 <HAL_RCCEx_PeriphCLKConfig+0x694>
      status = ret;
 80240ba:	462e      	mov	r6, r5
 80240bc:	e725      	b.n	8023f0a <HAL_RCCEx_PeriphCLKConfig+0x6aa>
    switch (PeriphClkInit->Lptim345ClockSelection)
 80240be:	2601      	movs	r6, #1
 80240c0:	4635      	mov	r5, r6
 80240c2:	e744      	b.n	8023f4e <HAL_RCCEx_PeriphCLKConfig+0x6ee>
 80240c4:	f5b3 4f00 	cmp.w	r3, #32768	@ 0x8000
 80240c8:	f43f af36 	beq.w	8023f38 <HAL_RCCEx_PeriphCLKConfig+0x6d8>
 80240cc:	f5b3 4f20 	cmp.w	r3, #40960	@ 0xa000
 80240d0:	f43f af32 	beq.w	8023f38 <HAL_RCCEx_PeriphCLKConfig+0x6d8>
 80240d4:	f5b3 4fc0 	cmp.w	r3, #24576	@ 0x6000
 80240d8:	f43f af2e 	beq.w	8023f38 <HAL_RCCEx_PeriphCLKConfig+0x6d8>
 80240dc:	2601      	movs	r6, #1
 80240de:	4635      	mov	r5, r6
 80240e0:	e735      	b.n	8023f4e <HAL_RCCEx_PeriphCLKConfig+0x6ee>
        ret = RCCEx_PLL3_Config(&(PeriphClkInit->PLL3), DIVIDER_R_UPDATE);
 80240e2:	2102      	movs	r1, #2
 80240e4:	f104 0028 	add.w	r0, r4, #40	@ 0x28
 80240e8:	f7ff fb36 	bl	8023758 <RCCEx_PLL3_Config>
 80240ec:	4605      	mov	r5, r0
        break;
 80240ee:	e723      	b.n	8023f38 <HAL_RCCEx_PeriphCLKConfig+0x6d8>
      status = ret;
 80240f0:	462e      	mov	r6, r5
 80240f2:	e72c      	b.n	8023f4e <HAL_RCCEx_PeriphCLKConfig+0x6ee>
      if (RCCEx_PLL3_Config(&(PeriphClkInit->PLL3), DIVIDER_R_UPDATE) != HAL_OK)
 80240f4:	2102      	movs	r1, #2
 80240f6:	f104 0028 	add.w	r0, r4, #40	@ 0x28
 80240fa:	f7ff fb2d 	bl	8023758 <RCCEx_PLL3_Config>
 80240fe:	2800      	cmp	r0, #0
 8024100:	f43f af2f 	beq.w	8023f62 <HAL_RCCEx_PeriphCLKConfig+0x702>
        status = HAL_ERROR;
 8024104:	2601      	movs	r6, #1
 8024106:	e72c      	b.n	8023f62 <HAL_RCCEx_PeriphCLKConfig+0x702>
      if (RCCEx_PLL3_Config(&(PeriphClkInit->PLL3), DIVIDER_R_UPDATE) != HAL_OK)
 8024108:	2102      	movs	r1, #2
 802410a:	f104 0028 	add.w	r0, r4, #40	@ 0x28
 802410e:	f7ff fb23 	bl	8023758 <RCCEx_PLL3_Config>
 8024112:	2800      	cmp	r0, #0
 8024114:	f43f af37 	beq.w	8023f86 <HAL_RCCEx_PeriphCLKConfig+0x726>
        status = HAL_ERROR;
 8024118:	2601      	movs	r6, #1
 802411a:	e734      	b.n	8023f86 <HAL_RCCEx_PeriphCLKConfig+0x726>
        ret = RCCEx_PLL3_Config(&(PeriphClkInit->PLL3), DIVIDER_R_UPDATE);
 802411c:	2102      	movs	r1, #2
 802411e:	f104 0028 	add.w	r0, r4, #40	@ 0x28
 8024122:	f7ff fb19 	bl	8023758 <RCCEx_PLL3_Config>
 8024126:	4605      	mov	r5, r0
        break;
 8024128:	e74b      	b.n	8023fc2 <HAL_RCCEx_PeriphCLKConfig+0x762>
    switch (PeriphClkInit->AdcClockSelection)
 802412a:	2601      	movs	r6, #1
 802412c:	4635      	mov	r5, r6
 802412e:	e753      	b.n	8023fd8 <HAL_RCCEx_PeriphCLKConfig+0x778>
      status = ret;
 8024130:	462e      	mov	r6, r5
 8024132:	e751      	b.n	8023fd8 <HAL_RCCEx_PeriphCLKConfig+0x778>
        ret = RCCEx_PLL3_Config(&(PeriphClkInit->PLL3), DIVIDER_Q_UPDATE);
 8024134:	2101      	movs	r1, #1
 8024136:	f104 0028 	add.w	r0, r4, #40	@ 0x28
 802413a:	f7ff fb0d 	bl	8023758 <RCCEx_PLL3_Config>
 802413e:	4605      	mov	r5, r0
        break;
 8024140:	e760      	b.n	8024004 <HAL_RCCEx_PeriphCLKConfig+0x7a4>
    switch (PeriphClkInit->UsbClockSelection)
 8024142:	2601      	movs	r6, #1
 8024144:	4635      	mov	r5, r6
 8024146:	e768      	b.n	802401a <HAL_RCCEx_PeriphCLKConfig+0x7ba>
      status = ret;
 8024148:	462e      	mov	r6, r5
 802414a:	e766      	b.n	802401a <HAL_RCCEx_PeriphCLKConfig+0x7ba>
 802414c:	58024400 	.word	0x58024400
        __HAL_RCC_PLLCLKOUT_ENABLE(RCC_PLL1_DIVQ);
 8024150:	4a70      	ldr	r2, [pc, #448]	@ (8024314 <HAL_RCCEx_PeriphCLKConfig+0xab4>)
 8024152:	6ad3      	ldr	r3, [r2, #44]	@ 0x2c
 8024154:	f443 3300 	orr.w	r3, r3, #131072	@ 0x20000
 8024158:	62d3      	str	r3, [r2, #44]	@ 0x2c
    if (ret == HAL_OK)
 802415a:	b975      	cbnz	r5, 802417a <HAL_RCCEx_PeriphCLKConfig+0x91a>
      __HAL_RCC_SDMMC_CONFIG(PeriphClkInit->SdmmcClockSelection);
 802415c:	4a6d      	ldr	r2, [pc, #436]	@ (8024314 <HAL_RCCEx_PeriphCLKConfig+0xab4>)
 802415e:	6cd3      	ldr	r3, [r2, #76]	@ 0x4c
 8024160:	f423 3380 	bic.w	r3, r3, #65536	@ 0x10000
 8024164:	6d21      	ldr	r1, [r4, #80]	@ 0x50
 8024166:	430b      	orrs	r3, r1
 8024168:	64d3      	str	r3, [r2, #76]	@ 0x4c
 802416a:	e007      	b.n	802417c <HAL_RCCEx_PeriphCLKConfig+0x91c>
        ret = RCCEx_PLL2_Config(&(PeriphClkInit->PLL2), DIVIDER_R_UPDATE);
 802416c:	2102      	movs	r1, #2
 802416e:	f104 0008 	add.w	r0, r4, #8
 8024172:	f7ff fa6d 	bl	8023650 <RCCEx_PLL2_Config>
 8024176:	4605      	mov	r5, r0
        break;
 8024178:	e7ef      	b.n	802415a <HAL_RCCEx_PeriphCLKConfig+0x8fa>
      status = ret;
 802417a:	462e      	mov	r6, r5
  if (((PeriphClkInit->PeriphClockSelection) & RCC_PERIPHCLK_LTDC) == RCC_PERIPHCLK_LTDC)
 802417c:	6823      	ldr	r3, [r4, #0]
 802417e:	f013 5f00 	tst.w	r3, #536870912	@ 0x20000000
 8024182:	d111      	bne.n	80241a8 <HAL_RCCEx_PeriphCLKConfig+0x948>
  if (((PeriphClkInit->PeriphClockSelection) & RCC_PERIPHCLK_RNG) == RCC_PERIPHCLK_RNG)
 8024184:	6823      	ldr	r3, [r4, #0]
 8024186:	f413 3f00 	tst.w	r3, #131072	@ 0x20000
 802418a:	d028      	beq.n	80241de <HAL_RCCEx_PeriphCLKConfig+0x97e>
    switch (PeriphClkInit->RngClockSelection)
 802418c:	f8d4 3080 	ldr.w	r3, [r4, #128]	@ 0x80
 8024190:	f5b3 7f80 	cmp.w	r3, #256	@ 0x100
 8024194:	d014      	beq.n	80241c0 <HAL_RCCEx_PeriphCLKConfig+0x960>
 8024196:	d910      	bls.n	80241ba <HAL_RCCEx_PeriphCLKConfig+0x95a>
 8024198:	f5b3 7f00 	cmp.w	r3, #512	@ 0x200
 802419c:	d015      	beq.n	80241ca <HAL_RCCEx_PeriphCLKConfig+0x96a>
 802419e:	f5b3 7f40 	cmp.w	r3, #768	@ 0x300
 80241a2:	d012      	beq.n	80241ca <HAL_RCCEx_PeriphCLKConfig+0x96a>
 80241a4:	2601      	movs	r6, #1
 80241a6:	e01a      	b.n	80241de <HAL_RCCEx_PeriphCLKConfig+0x97e>
    if (RCCEx_PLL3_Config(&(PeriphClkInit->PLL3), DIVIDER_R_UPDATE) != HAL_OK)
 80241a8:	2102      	movs	r1, #2
 80241aa:	f104 0028 	add.w	r0, r4, #40	@ 0x28
 80241ae:	f7ff fad3 	bl	8023758 <RCCEx_PLL3_Config>
 80241b2:	2800      	cmp	r0, #0
 80241b4:	d0e6      	beq.n	8024184 <HAL_RCCEx_PeriphCLKConfig+0x924>
      status = HAL_ERROR;
 80241b6:	2601      	movs	r6, #1
 80241b8:	e7e4      	b.n	8024184 <HAL_RCCEx_PeriphCLKConfig+0x924>
    switch (PeriphClkInit->RngClockSelection)
 80241ba:	b133      	cbz	r3, 80241ca <HAL_RCCEx_PeriphCLKConfig+0x96a>
 80241bc:	2601      	movs	r6, #1
 80241be:	e00e      	b.n	80241de <HAL_RCCEx_PeriphCLKConfig+0x97e>
        __HAL_RCC_PLLCLKOUT_ENABLE(RCC_PLL1_DIVQ);
 80241c0:	4a54      	ldr	r2, [pc, #336]	@ (8024314 <HAL_RCCEx_PeriphCLKConfig+0xab4>)
 80241c2:	6ad3      	ldr	r3, [r2, #44]	@ 0x2c
 80241c4:	f443 3300 	orr.w	r3, r3, #131072	@ 0x20000
 80241c8:	62d3      	str	r3, [r2, #44]	@ 0x2c
    if (ret == HAL_OK)
 80241ca:	2d00      	cmp	r5, #0
 80241cc:	d169      	bne.n	80242a2 <HAL_RCCEx_PeriphCLKConfig+0xa42>
      __HAL_RCC_RNG_CONFIG(PeriphClkInit->RngClockSelection);
 80241ce:	4a51      	ldr	r2, [pc, #324]	@ (8024314 <HAL_RCCEx_PeriphCLKConfig+0xab4>)
 80241d0:	6d53      	ldr	r3, [r2, #84]	@ 0x54
 80241d2:	f423 7340 	bic.w	r3, r3, #768	@ 0x300
 80241d6:	f8d4 1080 	ldr.w	r1, [r4, #128]	@ 0x80
 80241da:	430b      	orrs	r3, r1
 80241dc:	6553      	str	r3, [r2, #84]	@ 0x54
  if (((PeriphClkInit->PeriphClockSelection) & RCC_PERIPHCLK_SWPMI1) == RCC_PERIPHCLK_SWPMI1)
 80241de:	6823      	ldr	r3, [r4, #0]
 80241e0:	f413 1f80 	tst.w	r3, #1048576	@ 0x100000
 80241e4:	d006      	beq.n	80241f4 <HAL_RCCEx_PeriphCLKConfig+0x994>
    __HAL_RCC_SWPMI1_CONFIG(PeriphClkInit->Swpmi1ClockSelection);
 80241e6:	4a4b      	ldr	r2, [pc, #300]	@ (8024314 <HAL_RCCEx_PeriphCLKConfig+0xab4>)
 80241e8:	6d13      	ldr	r3, [r2, #80]	@ 0x50
 80241ea:	f023 4300 	bic.w	r3, r3, #2147483648	@ 0x80000000
 80241ee:	6f61      	ldr	r1, [r4, #116]	@ 0x74
 80241f0:	430b      	orrs	r3, r1
 80241f2:	6513      	str	r3, [r2, #80]	@ 0x50
  if (((PeriphClkInit->PeriphClockSelection) & RCC_PERIPHCLK_HRTIM1) == RCC_PERIPHCLK_HRTIM1)
 80241f4:	6823      	ldr	r3, [r4, #0]
 80241f6:	f013 5f80 	tst.w	r3, #268435456	@ 0x10000000
 80241fa:	d007      	beq.n	802420c <HAL_RCCEx_PeriphCLKConfig+0x9ac>
    __HAL_RCC_HRTIM1_CONFIG(PeriphClkInit->Hrtim1ClockSelection);
 80241fc:	4a45      	ldr	r2, [pc, #276]	@ (8024314 <HAL_RCCEx_PeriphCLKConfig+0xab4>)
 80241fe:	6913      	ldr	r3, [r2, #16]
 8024200:	f423 4380 	bic.w	r3, r3, #16384	@ 0x4000
 8024204:	f8d4 10b8 	ldr.w	r1, [r4, #184]	@ 0xb8
 8024208:	430b      	orrs	r3, r1
 802420a:	6113      	str	r3, [r2, #16]
  if (((PeriphClkInit->PeriphClockSelection) & RCC_PERIPHCLK_DFSDM1) == RCC_PERIPHCLK_DFSDM1)
 802420c:	6823      	ldr	r3, [r4, #0]
 802420e:	f413 1f00 	tst.w	r3, #2097152	@ 0x200000
 8024212:	d006      	beq.n	8024222 <HAL_RCCEx_PeriphCLKConfig+0x9c2>
    __HAL_RCC_DFSDM1_CONFIG(PeriphClkInit->Dfsdm1ClockSelection);
 8024214:	4a3f      	ldr	r2, [pc, #252]	@ (8024314 <HAL_RCCEx_PeriphCLKConfig+0xab4>)
 8024216:	6d13      	ldr	r3, [r2, #80]	@ 0x50
 8024218:	f023 7380 	bic.w	r3, r3, #16777216	@ 0x1000000
 802421c:	6ee1      	ldr	r1, [r4, #108]	@ 0x6c
 802421e:	430b      	orrs	r3, r1
 8024220:	6513      	str	r3, [r2, #80]	@ 0x50
  if (((PeriphClkInit->PeriphClockSelection) & RCC_PERIPHCLK_TIM) == RCC_PERIPHCLK_TIM)
 8024222:	6823      	ldr	r3, [r4, #0]
 8024224:	f013 4f80 	tst.w	r3, #1073741824	@ 0x40000000
 8024228:	d009      	beq.n	802423e <HAL_RCCEx_PeriphCLKConfig+0x9de>
    __HAL_RCC_TIMCLKPRESCALER(PeriphClkInit->TIMPresSelection);
 802422a:	4b3a      	ldr	r3, [pc, #232]	@ (8024314 <HAL_RCCEx_PeriphCLKConfig+0xab4>)
 802422c:	691a      	ldr	r2, [r3, #16]
 802422e:	f422 4200 	bic.w	r2, r2, #32768	@ 0x8000
 8024232:	611a      	str	r2, [r3, #16]
 8024234:	691a      	ldr	r2, [r3, #16]
 8024236:	f8d4 10bc 	ldr.w	r1, [r4, #188]	@ 0xbc
 802423a:	430a      	orrs	r2, r1
 802423c:	611a      	str	r2, [r3, #16]
  if (((PeriphClkInit->PeriphClockSelection) & RCC_PERIPHCLK_CKPER) == RCC_PERIPHCLK_CKPER)
 802423e:	6823      	ldr	r3, [r4, #0]
 8024240:	2b00      	cmp	r3, #0
 8024242:	da06      	bge.n	8024252 <HAL_RCCEx_PeriphCLKConfig+0x9f2>
    __HAL_RCC_CLKP_CONFIG(PeriphClkInit->CkperClockSelection);
 8024244:	4a33      	ldr	r2, [pc, #204]	@ (8024314 <HAL_RCCEx_PeriphCLKConfig+0xab4>)
 8024246:	6cd3      	ldr	r3, [r2, #76]	@ 0x4c
 8024248:	f023 5340 	bic.w	r3, r3, #805306368	@ 0x30000000
 802424c:	6d61      	ldr	r1, [r4, #84]	@ 0x54
 802424e:	430b      	orrs	r3, r1
 8024250:	64d3      	str	r3, [r2, #76]	@ 0x4c
  if (((PeriphClkInit->PeriphClockSelection) & RCC_PERIPHCLK_CEC) == RCC_PERIPHCLK_CEC)
 8024252:	6823      	ldr	r3, [r4, #0]
 8024254:	f413 0f00 	tst.w	r3, #8388608	@ 0x800000
 8024258:	d007      	beq.n	802426a <HAL_RCCEx_PeriphCLKConfig+0xa0a>
    __HAL_RCC_CEC_CONFIG(PeriphClkInit->CecClockSelection);
 802425a:	4a2e      	ldr	r2, [pc, #184]	@ (8024314 <HAL_RCCEx_PeriphCLKConfig+0xab4>)
 802425c:	6d53      	ldr	r3, [r2, #84]	@ 0x54
 802425e:	f423 0340 	bic.w	r3, r3, #12582912	@ 0xc00000
 8024262:	f8d4 108c 	ldr.w	r1, [r4, #140]	@ 0x8c
 8024266:	430b      	orrs	r3, r1
 8024268:	6553      	str	r3, [r2, #84]	@ 0x54
  if (((PeriphClkInit->PeriphClockSelection) & RCC_PERIPHCLK_PLL2_DIVP) == RCC_PERIPHCLK_PLL2_DIVP)
 802426a:	6863      	ldr	r3, [r4, #4]
 802426c:	f013 0f01 	tst.w	r3, #1
 8024270:	d119      	bne.n	80242a6 <HAL_RCCEx_PeriphCLKConfig+0xa46>
  if (((PeriphClkInit->PeriphClockSelection) & RCC_PERIPHCLK_PLL2_DIVQ) == RCC_PERIPHCLK_PLL2_DIVQ)
 8024272:	6863      	ldr	r3, [r4, #4]
 8024274:	f013 0f02 	tst.w	r3, #2
 8024278:	d11e      	bne.n	80242b8 <HAL_RCCEx_PeriphCLKConfig+0xa58>
  if (((PeriphClkInit->PeriphClockSelection) & RCC_PERIPHCLK_PLL2_DIVR) == RCC_PERIPHCLK_PLL2_DIVR)
 802427a:	6863      	ldr	r3, [r4, #4]
 802427c:	f013 0f04 	tst.w	r3, #4
 8024280:	d123      	bne.n	80242ca <HAL_RCCEx_PeriphCLKConfig+0xa6a>
  if (((PeriphClkInit->PeriphClockSelection) & RCC_PERIPHCLK_PLL3_DIVP) == RCC_PERIPHCLK_PLL3_DIVP)
 8024282:	6863      	ldr	r3, [r4, #4]
 8024284:	f013 0f08 	tst.w	r3, #8
 8024288:	d128      	bne.n	80242dc <HAL_RCCEx_PeriphCLKConfig+0xa7c>
  if (((PeriphClkInit->PeriphClockSelection) & RCC_PERIPHCLK_PLL3_DIVQ) == RCC_PERIPHCLK_PLL3_DIVQ)
 802428a:	6863      	ldr	r3, [r4, #4]
 802428c:	f013 0f10 	tst.w	r3, #16
 8024290:	d12d      	bne.n	80242ee <HAL_RCCEx_PeriphCLKConfig+0xa8e>
  if (((PeriphClkInit->PeriphClockSelection) & RCC_PERIPHCLK_PLL3_DIVR) == RCC_PERIPHCLK_PLL3_DIVR)
 8024292:	6863      	ldr	r3, [r4, #4]
 8024294:	f013 0f20 	tst.w	r3, #32
 8024298:	d132      	bne.n	8024300 <HAL_RCCEx_PeriphCLKConfig+0xaa0>
  if (status == HAL_OK)
 802429a:	b106      	cbz	r6, 802429e <HAL_RCCEx_PeriphCLKConfig+0xa3e>
  return HAL_ERROR;
 802429c:	2601      	movs	r6, #1
}
 802429e:	4630      	mov	r0, r6
 80242a0:	bdf8      	pop	{r3, r4, r5, r6, r7, pc}
      status = ret;
 80242a2:	462e      	mov	r6, r5
 80242a4:	e79b      	b.n	80241de <HAL_RCCEx_PeriphCLKConfig+0x97e>
    ret = RCCEx_PLL2_Config(&(PeriphClkInit->PLL2), DIVIDER_P_UPDATE);
 80242a6:	2100      	movs	r1, #0
 80242a8:	f104 0008 	add.w	r0, r4, #8
 80242ac:	f7ff f9d0 	bl	8023650 <RCCEx_PLL2_Config>
    if (ret == HAL_OK)
 80242b0:	2800      	cmp	r0, #0
 80242b2:	d0de      	beq.n	8024272 <HAL_RCCEx_PeriphCLKConfig+0xa12>
      status = ret;
 80242b4:	4606      	mov	r6, r0
 80242b6:	e7dc      	b.n	8024272 <HAL_RCCEx_PeriphCLKConfig+0xa12>
    ret = RCCEx_PLL2_Config(&(PeriphClkInit->PLL2), DIVIDER_Q_UPDATE);
 80242b8:	2101      	movs	r1, #1
 80242ba:	f104 0008 	add.w	r0, r4, #8
 80242be:	f7ff f9c7 	bl	8023650 <RCCEx_PLL2_Config>
    if (ret == HAL_OK)
 80242c2:	2800      	cmp	r0, #0
 80242c4:	d0d9      	beq.n	802427a <HAL_RCCEx_PeriphCLKConfig+0xa1a>
      status = ret;
 80242c6:	4606      	mov	r6, r0
 80242c8:	e7d7      	b.n	802427a <HAL_RCCEx_PeriphCLKConfig+0xa1a>
    ret = RCCEx_PLL2_Config(&(PeriphClkInit->PLL2), DIVIDER_R_UPDATE);
 80242ca:	2102      	movs	r1, #2
 80242cc:	f104 0008 	add.w	r0, r4, #8
 80242d0:	f7ff f9be 	bl	8023650 <RCCEx_PLL2_Config>
    if (ret == HAL_OK)
 80242d4:	2800      	cmp	r0, #0
 80242d6:	d0d4      	beq.n	8024282 <HAL_RCCEx_PeriphCLKConfig+0xa22>
      status = ret;
 80242d8:	4606      	mov	r6, r0
 80242da:	e7d2      	b.n	8024282 <HAL_RCCEx_PeriphCLKConfig+0xa22>
    ret = RCCEx_PLL3_Config(&(PeriphClkInit->PLL3), DIVIDER_P_UPDATE);
 80242dc:	2100      	movs	r1, #0
 80242de:	f104 0028 	add.w	r0, r4, #40	@ 0x28
 80242e2:	f7ff fa39 	bl	8023758 <RCCEx_PLL3_Config>
    if (ret == HAL_OK)
 80242e6:	2800      	cmp	r0, #0
 80242e8:	d0cf      	beq.n	802428a <HAL_RCCEx_PeriphCLKConfig+0xa2a>
      status = ret;
 80242ea:	4606      	mov	r6, r0
 80242ec:	e7cd      	b.n	802428a <HAL_RCCEx_PeriphCLKConfig+0xa2a>
    ret = RCCEx_PLL3_Config(&(PeriphClkInit->PLL3), DIVIDER_Q_UPDATE);
 80242ee:	2101      	movs	r1, #1
 80242f0:	f104 0028 	add.w	r0, r4, #40	@ 0x28
 80242f4:	f7ff fa30 	bl	8023758 <RCCEx_PLL3_Config>
    if (ret == HAL_OK)
 80242f8:	2800      	cmp	r0, #0
 80242fa:	d0ca      	beq.n	8024292 <HAL_RCCEx_PeriphCLKConfig+0xa32>
      status = ret;
 80242fc:	4606      	mov	r6, r0
 80242fe:	e7c8      	b.n	8024292 <HAL_RCCEx_PeriphCLKConfig+0xa32>
    ret = RCCEx_PLL3_Config(&(PeriphClkInit->PLL3), DIVIDER_R_UPDATE);
 8024300:	2102      	movs	r1, #2
 8024302:	f104 0028 	add.w	r0, r4, #40	@ 0x28
 8024306:	f7ff fa27 	bl	8023758 <RCCEx_PLL3_Config>
    if (ret == HAL_OK)
 802430a:	2800      	cmp	r0, #0
 802430c:	d0c5      	beq.n	802429a <HAL_RCCEx_PeriphCLKConfig+0xa3a>
  return HAL_ERROR;
 802430e:	2601      	movs	r6, #1
 8024310:	e7c5      	b.n	802429e <HAL_RCCEx_PeriphCLKConfig+0xa3e>
 8024312:	bf00      	nop
 8024314:	58024400 	.word	0x58024400

08024318 <HAL_RCCEx_GetD3PCLK1Freq>:
{
 8024318:	b508      	push	{r3, lr}
  return (HAL_RCC_GetHCLKFreq() >> (D1CorePrescTable[(RCC->D3CFGR & RCC_D3CFGR_D3PPRE) >> RCC_D3CFGR_D3PPRE_Pos] & 0x1FU));
 802431a:	f7ff f965 	bl	80235e8 <HAL_RCC_GetHCLKFreq>
 802431e:	4b05      	ldr	r3, [pc, #20]	@ (8024334 <HAL_RCCEx_GetD3PCLK1Freq+0x1c>)
 8024320:	6a1b      	ldr	r3, [r3, #32]
 8024322:	f3c3 1302 	ubfx	r3, r3, #4, #3
 8024326:	4a04      	ldr	r2, [pc, #16]	@ (8024338 <HAL_RCCEx_GetD3PCLK1Freq+0x20>)
 8024328:	5cd3      	ldrb	r3, [r2, r3]
 802432a:	f003 031f 	and.w	r3, r3, #31
}
 802432e:	40d8      	lsrs	r0, r3
 8024330:	bd08      	pop	{r3, pc}
 8024332:	bf00      	nop
 8024334:	58024400 	.word	0x58024400
 8024338:	08026e60 	.word	0x08026e60

0802433c <HAL_RCCEx_GetPLL2ClockFreq>:
{
 802433c:	b410      	push	{r4}
  pllsource = (RCC->PLLCKSELR & RCC_PLLCKSELR_PLLSRC);
 802433e:	4b79      	ldr	r3, [pc, #484]	@ (8024524 <HAL_RCCEx_GetPLL2ClockFreq+0x1e8>)
 8024340:	6a9a      	ldr	r2, [r3, #40]	@ 0x28
  pll2m = ((RCC->PLLCKSELR & RCC_PLLCKSELR_DIVM2) >> 12);
 8024342:	6a9c      	ldr	r4, [r3, #40]	@ 0x28
 8024344:	f3c4 3c05 	ubfx	ip, r4, #12, #6
  pll2fracen = (RCC->PLLCFGR & RCC_PLLCFGR_PLL2FRACEN) >> RCC_PLLCFGR_PLL2FRACEN_Pos;
 8024348:	6ad9      	ldr	r1, [r3, #44]	@ 0x2c
 802434a:	f3c1 1100 	ubfx	r1, r1, #4, #1
  fracn2 = (float_t)(uint32_t)(pll2fracen * ((RCC->PLL2FRACR & RCC_PLL2FRACR_FRACN2) >> 3));
 802434e:	6bdb      	ldr	r3, [r3, #60]	@ 0x3c
 8024350:	f3c3 03cc 	ubfx	r3, r3, #3, #13
 8024354:	fb01 f303 	mul.w	r3, r1, r3
  if (pll2m != 0U)
 8024358:	f414 3f7c 	tst.w	r4, #258048	@ 0x3f000
 802435c:	f000 80dd 	beq.w	802451a <HAL_RCCEx_GetPLL2ClockFreq+0x1de>
 8024360:	f002 0203 	and.w	r2, r2, #3
 8024364:	ee07 3a90 	vmov	s15, r3
 8024368:	eef8 7a67 	vcvt.f32.u32	s15, s15
    switch (pllsource)
 802436c:	2a01      	cmp	r2, #1
 802436e:	d04b      	beq.n	8024408 <HAL_RCCEx_GetPLL2ClockFreq+0xcc>
 8024370:	2a02      	cmp	r2, #2
 8024372:	f000 8098 	beq.w	80244a6 <HAL_RCCEx_GetPLL2ClockFreq+0x16a>
 8024376:	2a00      	cmp	r2, #0
 8024378:	f040 80b2 	bne.w	80244e0 <HAL_RCCEx_GetPLL2ClockFreq+0x1a4>
        if (__HAL_RCC_GET_FLAG(RCC_FLAG_HSIDIV) != 0U)
 802437c:	4b69      	ldr	r3, [pc, #420]	@ (8024524 <HAL_RCCEx_GetPLL2ClockFreq+0x1e8>)
 802437e:	681b      	ldr	r3, [r3, #0]
 8024380:	f013 0f20 	tst.w	r3, #32
 8024384:	d023      	beq.n	80243ce <HAL_RCCEx_GetPLL2ClockFreq+0x92>
          hsivalue = (HSI_VALUE >> (__HAL_RCC_GET_HSI_DIVIDER() >> 3));
 8024386:	4967      	ldr	r1, [pc, #412]	@ (8024524 <HAL_RCCEx_GetPLL2ClockFreq+0x1e8>)
 8024388:	680a      	ldr	r2, [r1, #0]
 802438a:	f3c2 02c1 	ubfx	r2, r2, #3, #2
 802438e:	4b66      	ldr	r3, [pc, #408]	@ (8024528 <HAL_RCCEx_GetPLL2ClockFreq+0x1ec>)
 8024390:	40d3      	lsrs	r3, r2
          pll2vco = ((float_t)hsivalue / (float_t)pll2m) * ((float_t)(uint32_t)(RCC->PLL2DIVR & RCC_PLL2DIVR_N2) + (fracn2 / (float_t)0x2000) + (float_t)1);
 8024392:	ee07 3a10 	vmov	s14, r3
 8024396:	eef8 6a47 	vcvt.f32.u32	s13, s14
 802439a:	ee07 ca10 	vmov	s14, ip
 802439e:	eeb8 6a47 	vcvt.f32.u32	s12, s14
 80243a2:	ee86 7a86 	vdiv.f32	s14, s13, s12
 80243a6:	6b8b      	ldr	r3, [r1, #56]	@ 0x38
 80243a8:	f3c3 0308 	ubfx	r3, r3, #0, #9
 80243ac:	ee06 3a90 	vmov	s13, r3
 80243b0:	eef8 6a66 	vcvt.f32.u32	s13, s13
 80243b4:	ed9f 6a5d 	vldr	s12, [pc, #372]	@ 802452c <HAL_RCCEx_GetPLL2ClockFreq+0x1f0>
 80243b8:	ee67 7a86 	vmul.f32	s15, s15, s12
 80243bc:	ee76 7aa7 	vadd.f32	s15, s13, s15
 80243c0:	eef7 6a00 	vmov.f32	s13, #112	@ 0x3f800000  1.0
 80243c4:	ee77 7aa6 	vadd.f32	s15, s15, s13
 80243c8:	ee27 7a27 	vmul.f32	s14, s14, s15
 80243cc:	e038      	b.n	8024440 <HAL_RCCEx_GetPLL2ClockFreq+0x104>
          pll2vco = ((float_t)HSI_VALUE / (float_t)pll2m) * ((float_t)(uint32_t)(RCC->PLL2DIVR & RCC_PLL2DIVR_N2) + (fracn2 / (float_t)0x2000) + (float_t)1);
 80243ce:	ee07 ca10 	vmov	s14, ip
 80243d2:	eef8 6a47 	vcvt.f32.u32	s13, s14
 80243d6:	ed9f 6a56 	vldr	s12, [pc, #344]	@ 8024530 <HAL_RCCEx_GetPLL2ClockFreq+0x1f4>
 80243da:	ee86 7a26 	vdiv.f32	s14, s12, s13
 80243de:	4b51      	ldr	r3, [pc, #324]	@ (8024524 <HAL_RCCEx_GetPLL2ClockFreq+0x1e8>)
 80243e0:	6b9b      	ldr	r3, [r3, #56]	@ 0x38
 80243e2:	f3c3 0308 	ubfx	r3, r3, #0, #9
 80243e6:	ee06 3a90 	vmov	s13, r3
 80243ea:	eef8 6a66 	vcvt.f32.u32	s13, s13
 80243ee:	ed9f 6a4f 	vldr	s12, [pc, #316]	@ 802452c <HAL_RCCEx_GetPLL2ClockFreq+0x1f0>
 80243f2:	ee67 7a86 	vmul.f32	s15, s15, s12
 80243f6:	ee76 7aa7 	vadd.f32	s15, s13, s15
 80243fa:	eef7 6a00 	vmov.f32	s13, #112	@ 0x3f800000  1.0
 80243fe:	ee77 7aa6 	vadd.f32	s15, s15, s13
 8024402:	ee27 7a27 	vmul.f32	s14, s14, s15
 8024406:	e01b      	b.n	8024440 <HAL_RCCEx_GetPLL2ClockFreq+0x104>
        pll2vco = ((float_t)CSI_VALUE / (float_t)pll2m) * ((float_t)(uint32_t)(RCC->PLL2DIVR & RCC_PLL2DIVR_N2) + (fracn2 / (float_t)0x2000) + (float_t)1);
 8024408:	ee07 ca10 	vmov	s14, ip
 802440c:	eef8 6a47 	vcvt.f32.u32	s13, s14
 8024410:	ed9f 6a48 	vldr	s12, [pc, #288]	@ 8024534 <HAL_RCCEx_GetPLL2ClockFreq+0x1f8>
 8024414:	ee86 7a26 	vdiv.f32	s14, s12, s13
 8024418:	4b42      	ldr	r3, [pc, #264]	@ (8024524 <HAL_RCCEx_GetPLL2ClockFreq+0x1e8>)
 802441a:	6b9b      	ldr	r3, [r3, #56]	@ 0x38
 802441c:	f3c3 0308 	ubfx	r3, r3, #0, #9
 8024420:	ee06 3a90 	vmov	s13, r3
 8024424:	eef8 6a66 	vcvt.f32.u32	s13, s13
 8024428:	ed9f 6a40 	vldr	s12, [pc, #256]	@ 802452c <HAL_RCCEx_GetPLL2ClockFreq+0x1f0>
 802442c:	ee67 7a86 	vmul.f32	s15, s15, s12
 8024430:	ee76 7aa7 	vadd.f32	s15, s13, s15
 8024434:	eef7 6a00 	vmov.f32	s13, #112	@ 0x3f800000  1.0
 8024438:	ee77 7aa6 	vadd.f32	s15, s15, s13
 802443c:	ee27 7a27 	vmul.f32	s14, s14, s15
    PLL2_Clocks->PLL2_P_Frequency = (uint32_t)(float_t)(pll2vco / ((float_t)(uint32_t)((RCC->PLL2DIVR & RCC_PLL2DIVR_P2) >> 9)  + (float_t)1)) ;
 8024440:	4a38      	ldr	r2, [pc, #224]	@ (8024524 <HAL_RCCEx_GetPLL2ClockFreq+0x1e8>)
 8024442:	6b93      	ldr	r3, [r2, #56]	@ 0x38
 8024444:	f3c3 2346 	ubfx	r3, r3, #9, #7
 8024448:	ee07 3a90 	vmov	s15, r3
 802444c:	eef8 7a67 	vcvt.f32.u32	s15, s15
 8024450:	eef7 6a00 	vmov.f32	s13, #112	@ 0x3f800000  1.0
 8024454:	ee77 7aa6 	vadd.f32	s15, s15, s13
 8024458:	ee87 6a27 	vdiv.f32	s12, s14, s15
 802445c:	eebc 6ac6 	vcvt.u32.f32	s12, s12
 8024460:	ed80 6a00 	vstr	s12, [r0]
    PLL2_Clocks->PLL2_Q_Frequency = (uint32_t)(float_t)(pll2vco / ((float_t)(uint32_t)((RCC->PLL2DIVR & RCC_PLL2DIVR_Q2) >> 16) + (float_t)1)) ;
 8024464:	6b93      	ldr	r3, [r2, #56]	@ 0x38
 8024466:	f3c3 4306 	ubfx	r3, r3, #16, #7
 802446a:	ee07 3a90 	vmov	s15, r3
 802446e:	eef8 7a67 	vcvt.f32.u32	s15, s15
 8024472:	ee77 7aa6 	vadd.f32	s15, s15, s13
 8024476:	ee87 6a27 	vdiv.f32	s12, s14, s15
 802447a:	eebc 6ac6 	vcvt.u32.f32	s12, s12
 802447e:	ed80 6a01 	vstr	s12, [r0, #4]
    PLL2_Clocks->PLL2_R_Frequency = (uint32_t)(float_t)(pll2vco / ((float_t)(uint32_t)((RCC->PLL2DIVR & RCC_PLL2DIVR_R2) >> 24) + (float_t)1)) ;
 8024482:	6b93      	ldr	r3, [r2, #56]	@ 0x38
 8024484:	f3c3 6306 	ubfx	r3, r3, #24, #7
 8024488:	ee07 3a90 	vmov	s15, r3
 802448c:	eef8 7a67 	vcvt.f32.u32	s15, s15
 8024490:	ee77 7aa6 	vadd.f32	s15, s15, s13
 8024494:	eec7 6a27 	vdiv.f32	s13, s14, s15
 8024498:	eefc 6ae6 	vcvt.u32.f32	s13, s13
 802449c:	edc0 6a02 	vstr	s13, [r0, #8]
}
 80244a0:	f85d 4b04 	ldr.w	r4, [sp], #4
 80244a4:	4770      	bx	lr
        pll2vco = ((float_t)HSE_VALUE / (float_t)pll2m) * ((float_t)(uint32_t)(RCC->PLL2DIVR & RCC_PLL2DIVR_N2) + (fracn2 / (float_t)0x2000) + (float_t)1);
 80244a6:	ee07 ca10 	vmov	s14, ip
 80244aa:	eef8 6a47 	vcvt.f32.u32	s13, s14
 80244ae:	ed9f 6a22 	vldr	s12, [pc, #136]	@ 8024538 <HAL_RCCEx_GetPLL2ClockFreq+0x1fc>
 80244b2:	ee86 7a26 	vdiv.f32	s14, s12, s13
 80244b6:	4b1b      	ldr	r3, [pc, #108]	@ (8024524 <HAL_RCCEx_GetPLL2ClockFreq+0x1e8>)
 80244b8:	6b9b      	ldr	r3, [r3, #56]	@ 0x38
 80244ba:	f3c3 0308 	ubfx	r3, r3, #0, #9
 80244be:	ee06 3a90 	vmov	s13, r3
 80244c2:	eef8 6a66 	vcvt.f32.u32	s13, s13
 80244c6:	ed9f 6a19 	vldr	s12, [pc, #100]	@ 802452c <HAL_RCCEx_GetPLL2ClockFreq+0x1f0>
 80244ca:	ee67 7a86 	vmul.f32	s15, s15, s12
 80244ce:	ee76 7aa7 	vadd.f32	s15, s13, s15
 80244d2:	eef7 6a00 	vmov.f32	s13, #112	@ 0x3f800000  1.0
 80244d6:	ee77 7aa6 	vadd.f32	s15, s15, s13
 80244da:	ee27 7a27 	vmul.f32	s14, s14, s15
        break;
 80244de:	e7af      	b.n	8024440 <HAL_RCCEx_GetPLL2ClockFreq+0x104>
        pll2vco = ((float_t)CSI_VALUE / (float_t)pll2m) * ((float_t)(uint32_t)(RCC->PLL2DIVR & RCC_PLL2DIVR_N2) + (fracn2 / (float_t)0x2000) + (float_t)1);
 80244e0:	ee07 ca10 	vmov	s14, ip
 80244e4:	eef8 6a47 	vcvt.f32.u32	s13, s14
 80244e8:	ed9f 6a12 	vldr	s12, [pc, #72]	@ 8024534 <HAL_RCCEx_GetPLL2ClockFreq+0x1f8>
 80244ec:	ee86 7a26 	vdiv.f32	s14, s12, s13
 80244f0:	4b0c      	ldr	r3, [pc, #48]	@ (8024524 <HAL_RCCEx_GetPLL2ClockFreq+0x1e8>)
 80244f2:	6b9b      	ldr	r3, [r3, #56]	@ 0x38
 80244f4:	f3c3 0308 	ubfx	r3, r3, #0, #9
 80244f8:	ee06 3a90 	vmov	s13, r3
 80244fc:	eef8 6a66 	vcvt.f32.u32	s13, s13
 8024500:	ed9f 6a0a 	vldr	s12, [pc, #40]	@ 802452c <HAL_RCCEx_GetPLL2ClockFreq+0x1f0>
 8024504:	ee67 7a86 	vmul.f32	s15, s15, s12
 8024508:	ee76 7aa7 	vadd.f32	s15, s13, s15
 802450c:	eef7 6a00 	vmov.f32	s13, #112	@ 0x3f800000  1.0
 8024510:	ee77 7aa6 	vadd.f32	s15, s15, s13
 8024514:	ee27 7a27 	vmul.f32	s14, s14, s15
        break;
 8024518:	e792      	b.n	8024440 <HAL_RCCEx_GetPLL2ClockFreq+0x104>
    PLL2_Clocks->PLL2_P_Frequency = 0U;
 802451a:	2300      	movs	r3, #0
 802451c:	6003      	str	r3, [r0, #0]
    PLL2_Clocks->PLL2_Q_Frequency = 0U;
 802451e:	6043      	str	r3, [r0, #4]
    PLL2_Clocks->PLL2_R_Frequency = 0U;
 8024520:	6083      	str	r3, [r0, #8]
}
 8024522:	e7bd      	b.n	80244a0 <HAL_RCCEx_GetPLL2ClockFreq+0x164>
 8024524:	58024400 	.word	0x58024400
 8024528:	03d09000 	.word	0x03d09000
 802452c:	39000000 	.word	0x39000000
 8024530:	4c742400 	.word	0x4c742400
 8024534:	4a742400 	.word	0x4a742400
 8024538:	4af42400 	.word	0x4af42400

0802453c <HAL_RCCEx_GetPLL3ClockFreq>:
{
 802453c:	b410      	push	{r4}
  pllsource = (RCC->PLLCKSELR & RCC_PLLCKSELR_PLLSRC);
 802453e:	4b79      	ldr	r3, [pc, #484]	@ (8024724 <HAL_RCCEx_GetPLL3ClockFreq+0x1e8>)
 8024540:	6a9a      	ldr	r2, [r3, #40]	@ 0x28
  pll3m = ((RCC->PLLCKSELR & RCC_PLLCKSELR_DIVM3) >> 20)  ;
 8024542:	6a9c      	ldr	r4, [r3, #40]	@ 0x28
 8024544:	f3c4 5c05 	ubfx	ip, r4, #20, #6
  pll3fracen = (RCC->PLLCFGR & RCC_PLLCFGR_PLL3FRACEN) >> RCC_PLLCFGR_PLL3FRACEN_Pos;
 8024548:	6ad9      	ldr	r1, [r3, #44]	@ 0x2c
 802454a:	f3c1 2100 	ubfx	r1, r1, #8, #1
  fracn3 = (float_t)(uint32_t)(pll3fracen * ((RCC->PLL3FRACR & RCC_PLL3FRACR_FRACN3) >> 3));
 802454e:	6c5b      	ldr	r3, [r3, #68]	@ 0x44
 8024550:	f3c3 03cc 	ubfx	r3, r3, #3, #13
 8024554:	fb01 f303 	mul.w	r3, r1, r3
  if (pll3m != 0U)
 8024558:	f014 7f7c 	tst.w	r4, #66060288	@ 0x3f00000
 802455c:	f000 80dd 	beq.w	802471a <HAL_RCCEx_GetPLL3ClockFreq+0x1de>
 8024560:	f002 0203 	and.w	r2, r2, #3
 8024564:	ee07 3a90 	vmov	s15, r3
 8024568:	eef8 7a67 	vcvt.f32.u32	s15, s15
    switch (pllsource)
 802456c:	2a01      	cmp	r2, #1
 802456e:	d04b      	beq.n	8024608 <HAL_RCCEx_GetPLL3ClockFreq+0xcc>
 8024570:	2a02      	cmp	r2, #2
 8024572:	f000 8098 	beq.w	80246a6 <HAL_RCCEx_GetPLL3ClockFreq+0x16a>
 8024576:	2a00      	cmp	r2, #0
 8024578:	f040 80b2 	bne.w	80246e0 <HAL_RCCEx_GetPLL3ClockFreq+0x1a4>
        if (__HAL_RCC_GET_FLAG(RCC_FLAG_HSIDIV) != 0U)
 802457c:	4b69      	ldr	r3, [pc, #420]	@ (8024724 <HAL_RCCEx_GetPLL3ClockFreq+0x1e8>)
 802457e:	681b      	ldr	r3, [r3, #0]
 8024580:	f013 0f20 	tst.w	r3, #32
 8024584:	d023      	beq.n	80245ce <HAL_RCCEx_GetPLL3ClockFreq+0x92>
          hsivalue = (HSI_VALUE >> (__HAL_RCC_GET_HSI_DIVIDER() >> 3));
 8024586:	4967      	ldr	r1, [pc, #412]	@ (8024724 <HAL_RCCEx_GetPLL3ClockFreq+0x1e8>)
 8024588:	680a      	ldr	r2, [r1, #0]
 802458a:	f3c2 02c1 	ubfx	r2, r2, #3, #2
 802458e:	4b66      	ldr	r3, [pc, #408]	@ (8024728 <HAL_RCCEx_GetPLL3ClockFreq+0x1ec>)
 8024590:	40d3      	lsrs	r3, r2
          pll3vco = ((float_t)hsivalue / (float_t)pll3m) * ((float_t)(uint32_t)(RCC->PLL3DIVR & RCC_PLL3DIVR_N3) + (fracn3 / (float_t)0x2000) + (float_t)1);
 8024592:	ee07 3a10 	vmov	s14, r3
 8024596:	eef8 6a47 	vcvt.f32.u32	s13, s14
 802459a:	ee07 ca10 	vmov	s14, ip
 802459e:	eeb8 6a47 	vcvt.f32.u32	s12, s14
 80245a2:	ee86 7a86 	vdiv.f32	s14, s13, s12
 80245a6:	6c0b      	ldr	r3, [r1, #64]	@ 0x40
 80245a8:	f3c3 0308 	ubfx	r3, r3, #0, #9
 80245ac:	ee06 3a90 	vmov	s13, r3
 80245b0:	eef8 6a66 	vcvt.f32.u32	s13, s13
 80245b4:	ed9f 6a5d 	vldr	s12, [pc, #372]	@ 802472c <HAL_RCCEx_GetPLL3ClockFreq+0x1f0>
 80245b8:	ee67 7a86 	vmul.f32	s15, s15, s12
 80245bc:	ee76 7aa7 	vadd.f32	s15, s13, s15
 80245c0:	eef7 6a00 	vmov.f32	s13, #112	@ 0x3f800000  1.0
 80245c4:	ee77 7aa6 	vadd.f32	s15, s15, s13
 80245c8:	ee27 7a27 	vmul.f32	s14, s14, s15
 80245cc:	e038      	b.n	8024640 <HAL_RCCEx_GetPLL3ClockFreq+0x104>
          pll3vco = ((float_t)HSI_VALUE / (float_t)pll3m) * ((float_t)(uint32_t)(RCC->PLL3DIVR & RCC_PLL3DIVR_N3) + (fracn3 / (float_t)0x2000) + (float_t)1);
 80245ce:	ee07 ca10 	vmov	s14, ip
 80245d2:	eef8 6a47 	vcvt.f32.u32	s13, s14
 80245d6:	ed9f 6a56 	vldr	s12, [pc, #344]	@ 8024730 <HAL_RCCEx_GetPLL3ClockFreq+0x1f4>
 80245da:	ee86 7a26 	vdiv.f32	s14, s12, s13
 80245de:	4b51      	ldr	r3, [pc, #324]	@ (8024724 <HAL_RCCEx_GetPLL3ClockFreq+0x1e8>)
 80245e0:	6c1b      	ldr	r3, [r3, #64]	@ 0x40
 80245e2:	f3c3 0308 	ubfx	r3, r3, #0, #9
 80245e6:	ee06 3a90 	vmov	s13, r3
 80245ea:	eef8 6a66 	vcvt.f32.u32	s13, s13
 80245ee:	ed9f 6a4f 	vldr	s12, [pc, #316]	@ 802472c <HAL_RCCEx_GetPLL3ClockFreq+0x1f0>
 80245f2:	ee67 7a86 	vmul.f32	s15, s15, s12
 80245f6:	ee76 7aa7 	vadd.f32	s15, s13, s15
 80245fa:	eef7 6a00 	vmov.f32	s13, #112	@ 0x3f800000  1.0
 80245fe:	ee77 7aa6 	vadd.f32	s15, s15, s13
 8024602:	ee27 7a27 	vmul.f32	s14, s14, s15
 8024606:	e01b      	b.n	8024640 <HAL_RCCEx_GetPLL3ClockFreq+0x104>
        pll3vco = ((float_t)CSI_VALUE / (float_t)pll3m) * ((float_t)(uint32_t)(RCC->PLL3DIVR & RCC_PLL3DIVR_N3) + (fracn3 / (float_t)0x2000) + (float_t)1);
 8024608:	ee07 ca10 	vmov	s14, ip
 802460c:	eef8 6a47 	vcvt.f32.u32	s13, s14
 8024610:	ed9f 6a48 	vldr	s12, [pc, #288]	@ 8024734 <HAL_RCCEx_GetPLL3ClockFreq+0x1f8>
 8024614:	ee86 7a26 	vdiv.f32	s14, s12, s13
 8024618:	4b42      	ldr	r3, [pc, #264]	@ (8024724 <HAL_RCCEx_GetPLL3ClockFreq+0x1e8>)
 802461a:	6c1b      	ldr	r3, [r3, #64]	@ 0x40
 802461c:	f3c3 0308 	ubfx	r3, r3, #0, #9
 8024620:	ee06 3a90 	vmov	s13, r3
 8024624:	eef8 6a66 	vcvt.f32.u32	s13, s13
 8024628:	ed9f 6a40 	vldr	s12, [pc, #256]	@ 802472c <HAL_RCCEx_GetPLL3ClockFreq+0x1f0>
 802462c:	ee67 7a86 	vmul.f32	s15, s15, s12
 8024630:	ee76 7aa7 	vadd.f32	s15, s13, s15
 8024634:	eef7 6a00 	vmov.f32	s13, #112	@ 0x3f800000  1.0
 8024638:	ee77 7aa6 	vadd.f32	s15, s15, s13
 802463c:	ee27 7a27 	vmul.f32	s14, s14, s15
    PLL3_Clocks->PLL3_P_Frequency = (uint32_t)(float_t)(pll3vco / ((float_t)(uint32_t)((RCC->PLL3DIVR & RCC_PLL3DIVR_P3) >> 9)  + (float_t)1)) ;
 8024640:	4a38      	ldr	r2, [pc, #224]	@ (8024724 <HAL_RCCEx_GetPLL3ClockFreq+0x1e8>)
 8024642:	6c13      	ldr	r3, [r2, #64]	@ 0x40
 8024644:	f3c3 2346 	ubfx	r3, r3, #9, #7
 8024648:	ee07 3a90 	vmov	s15, r3
 802464c:	eef8 7a67 	vcvt.f32.u32	s15, s15
 8024650:	eef7 6a00 	vmov.f32	s13, #112	@ 0x3f800000  1.0
 8024654:	ee77 7aa6 	vadd.f32	s15, s15, s13
 8024658:	ee87 6a27 	vdiv.f32	s12, s14, s15
 802465c:	eebc 6ac6 	vcvt.u32.f32	s12, s12
 8024660:	ed80 6a00 	vstr	s12, [r0]
    PLL3_Clocks->PLL3_Q_Frequency = (uint32_t)(float_t)(pll3vco / ((float_t)(uint32_t)((RCC->PLL3DIVR & RCC_PLL3DIVR_Q3) >> 16) + (float_t)1)) ;
 8024664:	6c13      	ldr	r3, [r2, #64]	@ 0x40
 8024666:	f3c3 4306 	ubfx	r3, r3, #16, #7
 802466a:	ee07 3a90 	vmov	s15, r3
 802466e:	eef8 7a67 	vcvt.f32.u32	s15, s15
 8024672:	ee77 7aa6 	vadd.f32	s15, s15, s13
 8024676:	ee87 6a27 	vdiv.f32	s12, s14, s15
 802467a:	eebc 6ac6 	vcvt.u32.f32	s12, s12
 802467e:	ed80 6a01 	vstr	s12, [r0, #4]
    PLL3_Clocks->PLL3_R_Frequency = (uint32_t)(float_t)(pll3vco / ((float_t)(uint32_t)((RCC->PLL3DIVR & RCC_PLL3DIVR_R3) >> 24) + (float_t)1)) ;
 8024682:	6c13      	ldr	r3, [r2, #64]	@ 0x40
 8024684:	f3c3 6306 	ubfx	r3, r3, #24, #7
 8024688:	ee07 3a90 	vmov	s15, r3
 802468c:	eef8 7a67 	vcvt.f32.u32	s15, s15
 8024690:	ee77 7aa6 	vadd.f32	s15, s15, s13
 8024694:	eec7 6a27 	vdiv.f32	s13, s14, s15
 8024698:	eefc 6ae6 	vcvt.u32.f32	s13, s13
 802469c:	edc0 6a02 	vstr	s13, [r0, #8]
}
 80246a0:	f85d 4b04 	ldr.w	r4, [sp], #4
 80246a4:	4770      	bx	lr
        pll3vco = ((float_t)HSE_VALUE / (float_t)pll3m) * ((float_t)(uint32_t)(RCC->PLL3DIVR & RCC_PLL3DIVR_N3) + (fracn3 / (float_t)0x2000) + (float_t)1);
 80246a6:	ee07 ca10 	vmov	s14, ip
 80246aa:	eef8 6a47 	vcvt.f32.u32	s13, s14
 80246ae:	ed9f 6a22 	vldr	s12, [pc, #136]	@ 8024738 <HAL_RCCEx_GetPLL3ClockFreq+0x1fc>
 80246b2:	ee86 7a26 	vdiv.f32	s14, s12, s13
 80246b6:	4b1b      	ldr	r3, [pc, #108]	@ (8024724 <HAL_RCCEx_GetPLL3ClockFreq+0x1e8>)
 80246b8:	6c1b      	ldr	r3, [r3, #64]	@ 0x40
 80246ba:	f3c3 0308 	ubfx	r3, r3, #0, #9
 80246be:	ee06 3a90 	vmov	s13, r3
 80246c2:	eef8 6a66 	vcvt.f32.u32	s13, s13
 80246c6:	ed9f 6a19 	vldr	s12, [pc, #100]	@ 802472c <HAL_RCCEx_GetPLL3ClockFreq+0x1f0>
 80246ca:	ee67 7a86 	vmul.f32	s15, s15, s12
 80246ce:	ee76 7aa7 	vadd.f32	s15, s13, s15
 80246d2:	eef7 6a00 	vmov.f32	s13, #112	@ 0x3f800000  1.0
 80246d6:	ee77 7aa6 	vadd.f32	s15, s15, s13
 80246da:	ee27 7a27 	vmul.f32	s14, s14, s15
        break;
 80246de:	e7af      	b.n	8024640 <HAL_RCCEx_GetPLL3ClockFreq+0x104>
        pll3vco = ((float_t)CSI_VALUE / (float_t)pll3m) * ((float_t)(uint32_t)(RCC->PLL3DIVR & RCC_PLL3DIVR_N3) + (fracn3 / (float_t)0x2000) + (float_t)1);
 80246e0:	ee07 ca10 	vmov	s14, ip
 80246e4:	eef8 6a47 	vcvt.f32.u32	s13, s14
 80246e8:	ed9f 6a12 	vldr	s12, [pc, #72]	@ 8024734 <HAL_RCCEx_GetPLL3ClockFreq+0x1f8>
 80246ec:	ee86 7a26 	vdiv.f32	s14, s12, s13
 80246f0:	4b0c      	ldr	r3, [pc, #48]	@ (8024724 <HAL_RCCEx_GetPLL3ClockFreq+0x1e8>)
 80246f2:	6c1b      	ldr	r3, [r3, #64]	@ 0x40
 80246f4:	f3c3 0308 	ubfx	r3, r3, #0, #9
 80246f8:	ee06 3a90 	vmov	s13, r3
 80246fc:	eef8 6a66 	vcvt.f32.u32	s13, s13
 8024700:	ed9f 6a0a 	vldr	s12, [pc, #40]	@ 802472c <HAL_RCCEx_GetPLL3ClockFreq+0x1f0>
 8024704:	ee67 7a86 	vmul.f32	s15, s15, s12
 8024708:	ee76 7aa7 	vadd.f32	s15, s13, s15
 802470c:	eef7 6a00 	vmov.f32	s13, #112	@ 0x3f800000  1.0
 8024710:	ee77 7aa6 	vadd.f32	s15, s15, s13
 8024714:	ee27 7a27 	vmul.f32	s14, s14, s15
        break;
 8024718:	e792      	b.n	8024640 <HAL_RCCEx_GetPLL3ClockFreq+0x104>
    PLL3_Clocks->PLL3_P_Frequency = 0U;
 802471a:	2300      	movs	r3, #0
 802471c:	6003      	str	r3, [r0, #0]
    PLL3_Clocks->PLL3_Q_Frequency = 0U;
 802471e:	6043      	str	r3, [r0, #4]
    PLL3_Clocks->PLL3_R_Frequency = 0U;
 8024720:	6083      	str	r3, [r0, #8]
}
 8024722:	e7bd      	b.n	80246a0 <HAL_RCCEx_GetPLL3ClockFreq+0x164>
 8024724:	58024400 	.word	0x58024400
 8024728:	03d09000 	.word	0x03d09000
 802472c:	39000000 	.word	0x39000000
 8024730:	4c742400 	.word	0x4c742400
 8024734:	4a742400 	.word	0x4a742400
 8024738:	4af42400 	.word	0x4af42400

0802473c <HAL_RCCEx_GetPLL1ClockFreq>:
{
 802473c:	b410      	push	{r4}
  pllsource = (RCC->PLLCKSELR & RCC_PLLCKSELR_PLLSRC);
 802473e:	4b79      	ldr	r3, [pc, #484]	@ (8024924 <HAL_RCCEx_GetPLL1ClockFreq+0x1e8>)
 8024740:	6a9a      	ldr	r2, [r3, #40]	@ 0x28
  pll1m = ((RCC->PLLCKSELR & RCC_PLLCKSELR_DIVM1) >> 4);
 8024742:	6a9c      	ldr	r4, [r3, #40]	@ 0x28
 8024744:	f3c4 1c05 	ubfx	ip, r4, #4, #6
  pll1fracen = RCC->PLLCFGR & RCC_PLLCFGR_PLL1FRACEN;
 8024748:	6ad9      	ldr	r1, [r3, #44]	@ 0x2c
 802474a:	f001 0101 	and.w	r1, r1, #1
  fracn1 = (float_t)(uint32_t)(pll1fracen * ((RCC->PLL1FRACR & RCC_PLL1FRACR_FRACN1) >> 3));
 802474e:	6b5b      	ldr	r3, [r3, #52]	@ 0x34
 8024750:	f3c3 03cc 	ubfx	r3, r3, #3, #13
 8024754:	fb01 f303 	mul.w	r3, r1, r3
  if (pll1m != 0U)
 8024758:	f414 7f7c 	tst.w	r4, #1008	@ 0x3f0
 802475c:	f000 80dd 	beq.w	802491a <HAL_RCCEx_GetPLL1ClockFreq+0x1de>
 8024760:	f002 0203 	and.w	r2, r2, #3
 8024764:	ee07 3a90 	vmov	s15, r3
 8024768:	eef8 7a67 	vcvt.f32.u32	s15, s15
    switch (pllsource)
 802476c:	2a01      	cmp	r2, #1
 802476e:	d04b      	beq.n	8024808 <HAL_RCCEx_GetPLL1ClockFreq+0xcc>
 8024770:	2a02      	cmp	r2, #2
 8024772:	f000 8098 	beq.w	80248a6 <HAL_RCCEx_GetPLL1ClockFreq+0x16a>
 8024776:	2a00      	cmp	r2, #0
 8024778:	f040 80b2 	bne.w	80248e0 <HAL_RCCEx_GetPLL1ClockFreq+0x1a4>
        if (__HAL_RCC_GET_FLAG(RCC_FLAG_HSIDIV) != 0U)
 802477c:	4b69      	ldr	r3, [pc, #420]	@ (8024924 <HAL_RCCEx_GetPLL1ClockFreq+0x1e8>)
 802477e:	681b      	ldr	r3, [r3, #0]
 8024780:	f013 0f20 	tst.w	r3, #32
 8024784:	d023      	beq.n	80247ce <HAL_RCCEx_GetPLL1ClockFreq+0x92>
          hsivalue = (HSI_VALUE >> (__HAL_RCC_GET_HSI_DIVIDER() >> 3));
 8024786:	4967      	ldr	r1, [pc, #412]	@ (8024924 <HAL_RCCEx_GetPLL1ClockFreq+0x1e8>)
 8024788:	680a      	ldr	r2, [r1, #0]
 802478a:	f3c2 02c1 	ubfx	r2, r2, #3, #2
 802478e:	4b66      	ldr	r3, [pc, #408]	@ (8024928 <HAL_RCCEx_GetPLL1ClockFreq+0x1ec>)
 8024790:	40d3      	lsrs	r3, r2
          pll1vco = ((float_t)hsivalue / (float_t)pll1m) * ((float_t)(uint32_t)(RCC->PLL1DIVR & RCC_PLL1DIVR_N1) + (fracn1 / (float_t)0x2000) + (float_t)1);
 8024792:	ee07 3a10 	vmov	s14, r3
 8024796:	eef8 6a47 	vcvt.f32.u32	s13, s14
 802479a:	ee07 ca10 	vmov	s14, ip
 802479e:	eeb8 6a47 	vcvt.f32.u32	s12, s14
 80247a2:	ee86 7a86 	vdiv.f32	s14, s13, s12
 80247a6:	6b0b      	ldr	r3, [r1, #48]	@ 0x30
 80247a8:	f3c3 0308 	ubfx	r3, r3, #0, #9
 80247ac:	ee06 3a90 	vmov	s13, r3
 80247b0:	eef8 6a66 	vcvt.f32.u32	s13, s13
 80247b4:	ed9f 6a5d 	vldr	s12, [pc, #372]	@ 802492c <HAL_RCCEx_GetPLL1ClockFreq+0x1f0>
 80247b8:	ee67 7a86 	vmul.f32	s15, s15, s12
 80247bc:	ee76 7aa7 	vadd.f32	s15, s13, s15
 80247c0:	eef7 6a00 	vmov.f32	s13, #112	@ 0x3f800000  1.0
 80247c4:	ee77 7aa6 	vadd.f32	s15, s15, s13
 80247c8:	ee27 7a27 	vmul.f32	s14, s14, s15
 80247cc:	e038      	b.n	8024840 <HAL_RCCEx_GetPLL1ClockFreq+0x104>
          pll1vco = ((float_t)HSI_VALUE / (float_t)pll1m) * ((float_t)(uint32_t)(RCC->PLL1DIVR & RCC_PLL1DIVR_N1) + (fracn1 / (float_t)0x2000) + (float_t)1);
 80247ce:	ee07 ca10 	vmov	s14, ip
 80247d2:	eef8 6a47 	vcvt.f32.u32	s13, s14
 80247d6:	ed9f 6a56 	vldr	s12, [pc, #344]	@ 8024930 <HAL_RCCEx_GetPLL1ClockFreq+0x1f4>
 80247da:	ee86 7a26 	vdiv.f32	s14, s12, s13
 80247de:	4b51      	ldr	r3, [pc, #324]	@ (8024924 <HAL_RCCEx_GetPLL1ClockFreq+0x1e8>)
 80247e0:	6b1b      	ldr	r3, [r3, #48]	@ 0x30
 80247e2:	f3c3 0308 	ubfx	r3, r3, #0, #9
 80247e6:	ee06 3a90 	vmov	s13, r3
 80247ea:	eef8 6a66 	vcvt.f32.u32	s13, s13
 80247ee:	ed9f 6a4f 	vldr	s12, [pc, #316]	@ 802492c <HAL_RCCEx_GetPLL1ClockFreq+0x1f0>
 80247f2:	ee67 7a86 	vmul.f32	s15, s15, s12
 80247f6:	ee76 7aa7 	vadd.f32	s15, s13, s15
 80247fa:	eef7 6a00 	vmov.f32	s13, #112	@ 0x3f800000  1.0
 80247fe:	ee77 7aa6 	vadd.f32	s15, s15, s13
 8024802:	ee27 7a27 	vmul.f32	s14, s14, s15
 8024806:	e01b      	b.n	8024840 <HAL_RCCEx_GetPLL1ClockFreq+0x104>
        pll1vco = ((float_t)CSI_VALUE / (float_t)pll1m) * ((float_t)(uint32_t)(RCC->PLL1DIVR & RCC_PLL1DIVR_N1) + (fracn1 / (float_t)0x2000) + (float_t)1);
 8024808:	ee07 ca10 	vmov	s14, ip
 802480c:	eef8 6a47 	vcvt.f32.u32	s13, s14
 8024810:	ed9f 6a48 	vldr	s12, [pc, #288]	@ 8024934 <HAL_RCCEx_GetPLL1ClockFreq+0x1f8>
 8024814:	ee86 7a26 	vdiv.f32	s14, s12, s13
 8024818:	4b42      	ldr	r3, [pc, #264]	@ (8024924 <HAL_RCCEx_GetPLL1ClockFreq+0x1e8>)
 802481a:	6b1b      	ldr	r3, [r3, #48]	@ 0x30
 802481c:	f3c3 0308 	ubfx	r3, r3, #0, #9
 8024820:	ee06 3a90 	vmov	s13, r3
 8024824:	eef8 6a66 	vcvt.f32.u32	s13, s13
 8024828:	ed9f 6a40 	vldr	s12, [pc, #256]	@ 802492c <HAL_RCCEx_GetPLL1ClockFreq+0x1f0>
 802482c:	ee67 7a86 	vmul.f32	s15, s15, s12
 8024830:	ee76 7aa7 	vadd.f32	s15, s13, s15
 8024834:	eef7 6a00 	vmov.f32	s13, #112	@ 0x3f800000  1.0
 8024838:	ee77 7aa6 	vadd.f32	s15, s15, s13
 802483c:	ee27 7a27 	vmul.f32	s14, s14, s15
    PLL1_Clocks->PLL1_P_Frequency = (uint32_t)(float_t)(pll1vco / ((float_t)(uint32_t)((RCC->PLL1DIVR & RCC_PLL1DIVR_P1) >> 9)  + (float_t)1)) ;
 8024840:	4a38      	ldr	r2, [pc, #224]	@ (8024924 <HAL_RCCEx_GetPLL1ClockFreq+0x1e8>)
 8024842:	6b13      	ldr	r3, [r2, #48]	@ 0x30
 8024844:	f3c3 2346 	ubfx	r3, r3, #9, #7
 8024848:	ee07 3a90 	vmov	s15, r3
 802484c:	eef8 7a67 	vcvt.f32.u32	s15, s15
 8024850:	eef7 6a00 	vmov.f32	s13, #112	@ 0x3f800000  1.0
 8024854:	ee77 7aa6 	vadd.f32	s15, s15, s13
 8024858:	ee87 6a27 	vdiv.f32	s12, s14, s15
 802485c:	eebc 6ac6 	vcvt.u32.f32	s12, s12
 8024860:	ed80 6a00 	vstr	s12, [r0]
    PLL1_Clocks->PLL1_Q_Frequency = (uint32_t)(float_t)(pll1vco / ((float_t)(uint32_t)((RCC->PLL1DIVR & RCC_PLL1DIVR_Q1) >> 16) + (float_t)1)) ;
 8024864:	6b13      	ldr	r3, [r2, #48]	@ 0x30
 8024866:	f3c3 4306 	ubfx	r3, r3, #16, #7
 802486a:	ee07 3a90 	vmov	s15, r3
 802486e:	eef8 7a67 	vcvt.f32.u32	s15, s15
 8024872:	ee77 7aa6 	vadd.f32	s15, s15, s13
 8024876:	ee87 6a27 	vdiv.f32	s12, s14, s15
 802487a:	eebc 6ac6 	vcvt.u32.f32	s12, s12
 802487e:	ed80 6a01 	vstr	s12, [r0, #4]
    PLL1_Clocks->PLL1_R_Frequency = (uint32_t)(float_t)(pll1vco / ((float_t)(uint32_t)((RCC->PLL1DIVR & RCC_PLL1DIVR_R1) >> 24) + (float_t)1)) ;
 8024882:	6b13      	ldr	r3, [r2, #48]	@ 0x30
 8024884:	f3c3 6306 	ubfx	r3, r3, #24, #7
 8024888:	ee07 3a90 	vmov	s15, r3
 802488c:	eef8 7a67 	vcvt.f32.u32	s15, s15
 8024890:	ee77 7aa6 	vadd.f32	s15, s15, s13
 8024894:	eec7 6a27 	vdiv.f32	s13, s14, s15
 8024898:	eefc 6ae6 	vcvt.u32.f32	s13, s13
 802489c:	edc0 6a02 	vstr	s13, [r0, #8]
}
 80248a0:	f85d 4b04 	ldr.w	r4, [sp], #4
 80248a4:	4770      	bx	lr
        pll1vco = ((float_t)HSE_VALUE / (float_t)pll1m) * ((float_t)(uint32_t)(RCC->PLL1DIVR & RCC_PLL1DIVR_N1) + (fracn1 / (float_t)0x2000) + (float_t)1);
 80248a6:	ee07 ca10 	vmov	s14, ip
 80248aa:	eef8 6a47 	vcvt.f32.u32	s13, s14
 80248ae:	ed9f 6a22 	vldr	s12, [pc, #136]	@ 8024938 <HAL_RCCEx_GetPLL1ClockFreq+0x1fc>
 80248b2:	ee86 7a26 	vdiv.f32	s14, s12, s13
 80248b6:	4b1b      	ldr	r3, [pc, #108]	@ (8024924 <HAL_RCCEx_GetPLL1ClockFreq+0x1e8>)
 80248b8:	6b1b      	ldr	r3, [r3, #48]	@ 0x30
 80248ba:	f3c3 0308 	ubfx	r3, r3, #0, #9
 80248be:	ee06 3a90 	vmov	s13, r3
 80248c2:	eef8 6a66 	vcvt.f32.u32	s13, s13
 80248c6:	ed9f 6a19 	vldr	s12, [pc, #100]	@ 802492c <HAL_RCCEx_GetPLL1ClockFreq+0x1f0>
 80248ca:	ee67 7a86 	vmul.f32	s15, s15, s12
 80248ce:	ee76 7aa7 	vadd.f32	s15, s13, s15
 80248d2:	eef7 6a00 	vmov.f32	s13, #112	@ 0x3f800000  1.0
 80248d6:	ee77 7aa6 	vadd.f32	s15, s15, s13
 80248da:	ee27 7a27 	vmul.f32	s14, s14, s15
        break;
 80248de:	e7af      	b.n	8024840 <HAL_RCCEx_GetPLL1ClockFreq+0x104>
        pll1vco = ((float_t)HSI_VALUE / (float_t)pll1m) * ((float_t)(uint32_t)(RCC->PLL1DIVR & RCC_PLL1DIVR_N1) + (fracn1 / (float_t)0x2000) + (float_t)1);
 80248e0:	ee07 ca10 	vmov	s14, ip
 80248e4:	eef8 6a47 	vcvt.f32.u32	s13, s14
 80248e8:	ed9f 6a11 	vldr	s12, [pc, #68]	@ 8024930 <HAL_RCCEx_GetPLL1ClockFreq+0x1f4>
 80248ec:	ee86 7a26 	vdiv.f32	s14, s12, s13
 80248f0:	4b0c      	ldr	r3, [pc, #48]	@ (8024924 <HAL_RCCEx_GetPLL1ClockFreq+0x1e8>)
 80248f2:	6b1b      	ldr	r3, [r3, #48]	@ 0x30
 80248f4:	f3c3 0308 	ubfx	r3, r3, #0, #9
 80248f8:	ee06 3a90 	vmov	s13, r3
 80248fc:	eef8 6a66 	vcvt.f32.u32	s13, s13
 8024900:	ed9f 6a0a 	vldr	s12, [pc, #40]	@ 802492c <HAL_RCCEx_GetPLL1ClockFreq+0x1f0>
 8024904:	ee67 7a86 	vmul.f32	s15, s15, s12
 8024908:	ee76 7aa7 	vadd.f32	s15, s13, s15
 802490c:	eef7 6a00 	vmov.f32	s13, #112	@ 0x3f800000  1.0
 8024910:	ee77 7aa6 	vadd.f32	s15, s15, s13
 8024914:	ee27 7a27 	vmul.f32	s14, s14, s15
        break;
 8024918:	e792      	b.n	8024840 <HAL_RCCEx_GetPLL1ClockFreq+0x104>
    PLL1_Clocks->PLL1_P_Frequency = 0U;
 802491a:	2300      	movs	r3, #0
 802491c:	6003      	str	r3, [r0, #0]
    PLL1_Clocks->PLL1_Q_Frequency = 0U;
 802491e:	6043      	str	r3, [r0, #4]
    PLL1_Clocks->PLL1_R_Frequency = 0U;
 8024920:	6083      	str	r3, [r0, #8]
}
 8024922:	e7bd      	b.n	80248a0 <HAL_RCCEx_GetPLL1ClockFreq+0x164>
 8024924:	58024400 	.word	0x58024400
 8024928:	03d09000 	.word	0x03d09000
 802492c:	39000000 	.word	0x39000000
 8024930:	4c742400 	.word	0x4c742400
 8024934:	4a742400 	.word	0x4a742400
 8024938:	4af42400 	.word	0x4af42400

0802493c <HAL_RCCEx_GetPeriphCLKFreq>:
{
 802493c:	b500      	push	{lr}
 802493e:	b08b      	sub	sp, #44	@ 0x2c
  if (PeriphClk == RCC_PERIPHCLK_SAI1)
 8024940:	f5a0 7380 	sub.w	r3, r0, #256	@ 0x100
 8024944:	430b      	orrs	r3, r1
 8024946:	d02d      	beq.n	80249a4 <HAL_RCCEx_GetPeriphCLKFreq+0x68>
  else if (PeriphClk == RCC_PERIPHCLK_SAI23)
 8024948:	f5a0 7300 	sub.w	r3, r0, #512	@ 0x200
 802494c:	430b      	orrs	r3, r1
 802494e:	d07b      	beq.n	8024a48 <HAL_RCCEx_GetPeriphCLKFreq+0x10c>
  else if (PeriphClk == RCC_PERIPHCLK_SAI4A)
 8024950:	f5a0 6380 	sub.w	r3, r0, #1024	@ 0x400
 8024954:	430b      	orrs	r3, r1
 8024956:	f000 80cf 	beq.w	8024af8 <HAL_RCCEx_GetPeriphCLKFreq+0x1bc>
  else if (PeriphClk == RCC_PERIPHCLK_SAI4B)
 802495a:	f5a0 6300 	sub.w	r3, r0, #2048	@ 0x800
 802495e:	430b      	orrs	r3, r1
 8024960:	f000 8127 	beq.w	8024bb2 <HAL_RCCEx_GetPeriphCLKFreq+0x276>
  else if (PeriphClk == RCC_PERIPHCLK_SPI123)
 8024964:	f5a0 5380 	sub.w	r3, r0, #4096	@ 0x1000
 8024968:	430b      	orrs	r3, r1
 802496a:	f000 8187 	beq.w	8024c7c <HAL_RCCEx_GetPeriphCLKFreq+0x340>
  else if (PeriphClk == RCC_PERIPHCLK_SPI45)
 802496e:	f5a0 5300 	sub.w	r3, r0, #8192	@ 0x2000
 8024972:	430b      	orrs	r3, r1
 8024974:	f000 81df 	beq.w	8024d36 <HAL_RCCEx_GetPeriphCLKFreq+0x3fa>
  else if (PeriphClk == RCC_PERIPHCLK_ADC)
 8024978:	f5a0 2300 	sub.w	r3, r0, #524288	@ 0x80000
 802497c:	430b      	orrs	r3, r1
 802497e:	f000 8228 	beq.w	8024dd2 <HAL_RCCEx_GetPeriphCLKFreq+0x496>
  else if (PeriphClk == RCC_PERIPHCLK_SDMMC)
 8024982:	f5a0 3380 	sub.w	r3, r0, #65536	@ 0x10000
 8024986:	430b      	orrs	r3, r1
 8024988:	f000 826b 	beq.w	8024e62 <HAL_RCCEx_GetPeriphCLKFreq+0x526>
  else if (PeriphClk == RCC_PERIPHCLK_SPI6)
 802498c:	f5a0 4380 	sub.w	r3, r0, #16384	@ 0x4000
 8024990:	430b      	orrs	r3, r1
 8024992:	f000 828d 	beq.w	8024eb0 <HAL_RCCEx_GetPeriphCLKFreq+0x574>
  else if (PeriphClk == RCC_PERIPHCLK_FDCAN)
 8024996:	f5a0 4000 	sub.w	r0, r0, #32768	@ 0x8000
 802499a:	4308      	orrs	r0, r1
 802499c:	f000 82d6 	beq.w	8024f4c <HAL_RCCEx_GetPeriphCLKFreq+0x610>
    frequency = 0;
 80249a0:	2000      	movs	r0, #0
 80249a2:	e00c      	b.n	80249be <HAL_RCCEx_GetPeriphCLKFreq+0x82>
    saiclocksource = __HAL_RCC_GET_SAI1_SOURCE();
 80249a4:	4b93      	ldr	r3, [pc, #588]	@ (8024bf4 <HAL_RCCEx_GetPeriphCLKFreq+0x2b8>)
 80249a6:	6d1b      	ldr	r3, [r3, #80]	@ 0x50
 80249a8:	f003 0307 	and.w	r3, r3, #7
    switch (saiclocksource)
 80249ac:	2b04      	cmp	r3, #4
 80249ae:	f200 82f7 	bhi.w	8024fa0 <HAL_RCCEx_GetPeriphCLKFreq+0x664>
 80249b2:	e8df f003 	tbb	[pc, r3]
 80249b6:	1006      	.short	0x1006
 80249b8:	031a      	.short	0x031a
 80249ba:	24          	.byte	0x24
 80249bb:	00          	.byte	0x00
 80249bc:	488e      	ldr	r0, [pc, #568]	@ (8024bf8 <HAL_RCCEx_GetPeriphCLKFreq+0x2bc>)
}
 80249be:	b00b      	add	sp, #44	@ 0x2c
 80249c0:	bd00      	pop	{pc}
        if (HAL_IS_BIT_SET(RCC->CR, RCC_CR_PLL1RDY))
 80249c2:	4b8c      	ldr	r3, [pc, #560]	@ (8024bf4 <HAL_RCCEx_GetPeriphCLKFreq+0x2b8>)
 80249c4:	6818      	ldr	r0, [r3, #0]
 80249c6:	f010 7000 	ands.w	r0, r0, #33554432	@ 0x2000000
 80249ca:	d0f8      	beq.n	80249be <HAL_RCCEx_GetPeriphCLKFreq+0x82>
          HAL_RCCEx_GetPLL1ClockFreq(&pll1_clocks);
 80249cc:	a807      	add	r0, sp, #28
 80249ce:	f7ff feb5 	bl	802473c <HAL_RCCEx_GetPLL1ClockFreq>
          frequency = pll1_clocks.PLL1_Q_Frequency;
 80249d2:	9808      	ldr	r0, [sp, #32]
 80249d4:	e7f3      	b.n	80249be <HAL_RCCEx_GetPeriphCLKFreq+0x82>
        if (HAL_IS_BIT_SET(RCC->CR, RCC_CR_PLL2RDY))
 80249d6:	4b87      	ldr	r3, [pc, #540]	@ (8024bf4 <HAL_RCCEx_GetPeriphCLKFreq+0x2b8>)
 80249d8:	6818      	ldr	r0, [r3, #0]
 80249da:	f010 6000 	ands.w	r0, r0, #134217728	@ 0x8000000
 80249de:	d0ee      	beq.n	80249be <HAL_RCCEx_GetPeriphCLKFreq+0x82>
          HAL_RCCEx_GetPLL2ClockFreq(&pll2_clocks);
 80249e0:	a804      	add	r0, sp, #16
 80249e2:	f7ff fcab 	bl	802433c <HAL_RCCEx_GetPLL2ClockFreq>
          frequency = pll2_clocks.PLL2_P_Frequency;
 80249e6:	9804      	ldr	r0, [sp, #16]
 80249e8:	e7e9      	b.n	80249be <HAL_RCCEx_GetPeriphCLKFreq+0x82>
        if (HAL_IS_BIT_SET(RCC->CR, RCC_CR_PLL3RDY))
 80249ea:	4b82      	ldr	r3, [pc, #520]	@ (8024bf4 <HAL_RCCEx_GetPeriphCLKFreq+0x2b8>)
 80249ec:	6818      	ldr	r0, [r3, #0]
 80249ee:	f010 5000 	ands.w	r0, r0, #536870912	@ 0x20000000
 80249f2:	d0e4      	beq.n	80249be <HAL_RCCEx_GetPeriphCLKFreq+0x82>
          HAL_RCCEx_GetPLL3ClockFreq(&pll3_clocks);
 80249f4:	a801      	add	r0, sp, #4
 80249f6:	f7ff fda1 	bl	802453c <HAL_RCCEx_GetPLL3ClockFreq>
          frequency = pll3_clocks.PLL3_P_Frequency;
 80249fa:	9801      	ldr	r0, [sp, #4]
 80249fc:	e7df      	b.n	80249be <HAL_RCCEx_GetPeriphCLKFreq+0x82>
        ckpclocksource = __HAL_RCC_GET_CLKP_SOURCE();
 80249fe:	4a7d      	ldr	r2, [pc, #500]	@ (8024bf4 <HAL_RCCEx_GetPeriphCLKFreq+0x2b8>)
 8024a00:	6cd3      	ldr	r3, [r2, #76]	@ 0x4c
 8024a02:	f003 5340 	and.w	r3, r3, #805306368	@ 0x30000000
        if ((HAL_IS_BIT_SET(RCC->CR, RCC_CR_HSIRDY)) && (ckpclocksource == RCC_CLKPSOURCE_HSI))
 8024a06:	6812      	ldr	r2, [r2, #0]
 8024a08:	f012 0f04 	tst.w	r2, #4
 8024a0c:	d007      	beq.n	8024a1e <HAL_RCCEx_GetPeriphCLKFreq+0xe2>
 8024a0e:	b933      	cbnz	r3, 8024a1e <HAL_RCCEx_GetPeriphCLKFreq+0xe2>
          frequency = (HSI_VALUE >> (__HAL_RCC_GET_HSI_DIVIDER() >> 3));
 8024a10:	4b78      	ldr	r3, [pc, #480]	@ (8024bf4 <HAL_RCCEx_GetPeriphCLKFreq+0x2b8>)
 8024a12:	681b      	ldr	r3, [r3, #0]
 8024a14:	f3c3 03c1 	ubfx	r3, r3, #3, #2
 8024a18:	4878      	ldr	r0, [pc, #480]	@ (8024bfc <HAL_RCCEx_GetPeriphCLKFreq+0x2c0>)
 8024a1a:	40d8      	lsrs	r0, r3
 8024a1c:	e7cf      	b.n	80249be <HAL_RCCEx_GetPeriphCLKFreq+0x82>
        else if ((HAL_IS_BIT_SET(RCC->CR, RCC_CR_CSIRDY)) && (ckpclocksource == RCC_CLKPSOURCE_CSI))
 8024a1e:	4a75      	ldr	r2, [pc, #468]	@ (8024bf4 <HAL_RCCEx_GetPeriphCLKFreq+0x2b8>)
 8024a20:	6812      	ldr	r2, [r2, #0]
 8024a22:	f412 7f80 	tst.w	r2, #256	@ 0x100
 8024a26:	d003      	beq.n	8024a30 <HAL_RCCEx_GetPeriphCLKFreq+0xf4>
 8024a28:	f1b3 5f80 	cmp.w	r3, #268435456	@ 0x10000000
 8024a2c:	f000 82ba 	beq.w	8024fa4 <HAL_RCCEx_GetPeriphCLKFreq+0x668>
        else if ((HAL_IS_BIT_SET(RCC->CR, RCC_CR_HSERDY)) && (ckpclocksource == RCC_CLKPSOURCE_HSE))
 8024a30:	4a70      	ldr	r2, [pc, #448]	@ (8024bf4 <HAL_RCCEx_GetPeriphCLKFreq+0x2b8>)
 8024a32:	6812      	ldr	r2, [r2, #0]
 8024a34:	f412 3f00 	tst.w	r2, #131072	@ 0x20000
 8024a38:	f000 82b6 	beq.w	8024fa8 <HAL_RCCEx_GetPeriphCLKFreq+0x66c>
 8024a3c:	f1b3 5f00 	cmp.w	r3, #536870912	@ 0x20000000
 8024a40:	f000 82b4 	beq.w	8024fac <HAL_RCCEx_GetPeriphCLKFreq+0x670>
          frequency = 0;
 8024a44:	2000      	movs	r0, #0
 8024a46:	e7ba      	b.n	80249be <HAL_RCCEx_GetPeriphCLKFreq+0x82>
    saiclocksource = __HAL_RCC_GET_SAI23_SOURCE();
 8024a48:	4b6a      	ldr	r3, [pc, #424]	@ (8024bf4 <HAL_RCCEx_GetPeriphCLKFreq+0x2b8>)
 8024a4a:	6d1b      	ldr	r3, [r3, #80]	@ 0x50
 8024a4c:	f403 73e0 	and.w	r3, r3, #448	@ 0x1c0
    switch (saiclocksource)
 8024a50:	2b80      	cmp	r3, #128	@ 0x80
 8024a52:	d031      	beq.n	8024ab8 <HAL_RCCEx_GetPeriphCLKFreq+0x17c>
 8024a54:	d915      	bls.n	8024a82 <HAL_RCCEx_GetPeriphCLKFreq+0x146>
 8024a56:	2bc0      	cmp	r3, #192	@ 0xc0
 8024a58:	f000 82aa 	beq.w	8024fb0 <HAL_RCCEx_GetPeriphCLKFreq+0x674>
 8024a5c:	f5b3 7f80 	cmp.w	r3, #256	@ 0x100
 8024a60:	d11e      	bne.n	8024aa0 <HAL_RCCEx_GetPeriphCLKFreq+0x164>
        ckpclocksource = __HAL_RCC_GET_CLKP_SOURCE();
 8024a62:	4a64      	ldr	r2, [pc, #400]	@ (8024bf4 <HAL_RCCEx_GetPeriphCLKFreq+0x2b8>)
 8024a64:	6cd3      	ldr	r3, [r2, #76]	@ 0x4c
 8024a66:	f003 5340 	and.w	r3, r3, #805306368	@ 0x30000000
        if ((HAL_IS_BIT_SET(RCC->CR, RCC_CR_HSIRDY)) && (ckpclocksource == RCC_CLKPSOURCE_HSI))
 8024a6a:	6812      	ldr	r2, [r2, #0]
 8024a6c:	f012 0f04 	tst.w	r2, #4
 8024a70:	d02d      	beq.n	8024ace <HAL_RCCEx_GetPeriphCLKFreq+0x192>
 8024a72:	bb63      	cbnz	r3, 8024ace <HAL_RCCEx_GetPeriphCLKFreq+0x192>
          frequency = (HSI_VALUE >> (__HAL_RCC_GET_HSI_DIVIDER() >> 3));
 8024a74:	4b5f      	ldr	r3, [pc, #380]	@ (8024bf4 <HAL_RCCEx_GetPeriphCLKFreq+0x2b8>)
 8024a76:	681b      	ldr	r3, [r3, #0]
 8024a78:	f3c3 03c1 	ubfx	r3, r3, #3, #2
 8024a7c:	485f      	ldr	r0, [pc, #380]	@ (8024bfc <HAL_RCCEx_GetPeriphCLKFreq+0x2c0>)
 8024a7e:	40d8      	lsrs	r0, r3
 8024a80:	e79d      	b.n	80249be <HAL_RCCEx_GetPeriphCLKFreq+0x82>
    switch (saiclocksource)
 8024a82:	b17b      	cbz	r3, 8024aa4 <HAL_RCCEx_GetPeriphCLKFreq+0x168>
 8024a84:	2b40      	cmp	r3, #64	@ 0x40
 8024a86:	d109      	bne.n	8024a9c <HAL_RCCEx_GetPeriphCLKFreq+0x160>
        if (HAL_IS_BIT_SET(RCC->CR, RCC_CR_PLL2RDY))
 8024a88:	4b5a      	ldr	r3, [pc, #360]	@ (8024bf4 <HAL_RCCEx_GetPeriphCLKFreq+0x2b8>)
 8024a8a:	6818      	ldr	r0, [r3, #0]
 8024a8c:	f010 6000 	ands.w	r0, r0, #134217728	@ 0x8000000
 8024a90:	d095      	beq.n	80249be <HAL_RCCEx_GetPeriphCLKFreq+0x82>
          HAL_RCCEx_GetPLL2ClockFreq(&pll2_clocks);
 8024a92:	a804      	add	r0, sp, #16
 8024a94:	f7ff fc52 	bl	802433c <HAL_RCCEx_GetPLL2ClockFreq>
          frequency = pll2_clocks.PLL2_P_Frequency;
 8024a98:	9804      	ldr	r0, [sp, #16]
 8024a9a:	e790      	b.n	80249be <HAL_RCCEx_GetPeriphCLKFreq+0x82>
        frequency = 0;
 8024a9c:	2000      	movs	r0, #0
 8024a9e:	e78e      	b.n	80249be <HAL_RCCEx_GetPeriphCLKFreq+0x82>
 8024aa0:	2000      	movs	r0, #0
 8024aa2:	e78c      	b.n	80249be <HAL_RCCEx_GetPeriphCLKFreq+0x82>
        if (HAL_IS_BIT_SET(RCC->CR, RCC_CR_PLL1RDY))
 8024aa4:	4b53      	ldr	r3, [pc, #332]	@ (8024bf4 <HAL_RCCEx_GetPeriphCLKFreq+0x2b8>)
 8024aa6:	6818      	ldr	r0, [r3, #0]
 8024aa8:	f010 7000 	ands.w	r0, r0, #33554432	@ 0x2000000
 8024aac:	d087      	beq.n	80249be <HAL_RCCEx_GetPeriphCLKFreq+0x82>
          HAL_RCCEx_GetPLL1ClockFreq(&pll1_clocks);
 8024aae:	a807      	add	r0, sp, #28
 8024ab0:	f7ff fe44 	bl	802473c <HAL_RCCEx_GetPLL1ClockFreq>
          frequency = pll1_clocks.PLL1_Q_Frequency;
 8024ab4:	9808      	ldr	r0, [sp, #32]
 8024ab6:	e782      	b.n	80249be <HAL_RCCEx_GetPeriphCLKFreq+0x82>
        if (HAL_IS_BIT_SET(RCC->CR, RCC_CR_PLL3RDY))
 8024ab8:	4b4e      	ldr	r3, [pc, #312]	@ (8024bf4 <HAL_RCCEx_GetPeriphCLKFreq+0x2b8>)
 8024aba:	6818      	ldr	r0, [r3, #0]
 8024abc:	f010 5000 	ands.w	r0, r0, #536870912	@ 0x20000000
 8024ac0:	f43f af7d 	beq.w	80249be <HAL_RCCEx_GetPeriphCLKFreq+0x82>
          HAL_RCCEx_GetPLL3ClockFreq(&pll3_clocks);
 8024ac4:	a801      	add	r0, sp, #4
 8024ac6:	f7ff fd39 	bl	802453c <HAL_RCCEx_GetPLL3ClockFreq>
          frequency = pll3_clocks.PLL3_P_Frequency;
 8024aca:	9801      	ldr	r0, [sp, #4]
 8024acc:	e777      	b.n	80249be <HAL_RCCEx_GetPeriphCLKFreq+0x82>
        else if ((HAL_IS_BIT_SET(RCC->CR, RCC_CR_CSIRDY)) && (ckpclocksource == RCC_CLKPSOURCE_CSI))
 8024ace:	4a49      	ldr	r2, [pc, #292]	@ (8024bf4 <HAL_RCCEx_GetPeriphCLKFreq+0x2b8>)
 8024ad0:	6812      	ldr	r2, [r2, #0]
 8024ad2:	f412 7f80 	tst.w	r2, #256	@ 0x100
 8024ad6:	d003      	beq.n	8024ae0 <HAL_RCCEx_GetPeriphCLKFreq+0x1a4>
 8024ad8:	f1b3 5f80 	cmp.w	r3, #268435456	@ 0x10000000
 8024adc:	f000 826a 	beq.w	8024fb4 <HAL_RCCEx_GetPeriphCLKFreq+0x678>
        else if ((HAL_IS_BIT_SET(RCC->CR, RCC_CR_HSERDY)) && (ckpclocksource == RCC_CLKPSOURCE_HSE))
 8024ae0:	4a44      	ldr	r2, [pc, #272]	@ (8024bf4 <HAL_RCCEx_GetPeriphCLKFreq+0x2b8>)
 8024ae2:	6812      	ldr	r2, [r2, #0]
 8024ae4:	f412 3f00 	tst.w	r2, #131072	@ 0x20000
 8024ae8:	f000 8266 	beq.w	8024fb8 <HAL_RCCEx_GetPeriphCLKFreq+0x67c>
 8024aec:	f1b3 5f00 	cmp.w	r3, #536870912	@ 0x20000000
 8024af0:	f000 8264 	beq.w	8024fbc <HAL_RCCEx_GetPeriphCLKFreq+0x680>
          frequency = 0;
 8024af4:	2000      	movs	r0, #0
 8024af6:	e762      	b.n	80249be <HAL_RCCEx_GetPeriphCLKFreq+0x82>
    saiclocksource = __HAL_RCC_GET_SAI4A_SOURCE();
 8024af8:	4b3e      	ldr	r3, [pc, #248]	@ (8024bf4 <HAL_RCCEx_GetPeriphCLKFreq+0x2b8>)
 8024afa:	6d9b      	ldr	r3, [r3, #88]	@ 0x58
 8024afc:	f403 0360 	and.w	r3, r3, #14680064	@ 0xe00000
    switch (saiclocksource)
 8024b00:	f5b3 0f80 	cmp.w	r3, #4194304	@ 0x400000
 8024b04:	d035      	beq.n	8024b72 <HAL_RCCEx_GetPeriphCLKFreq+0x236>
 8024b06:	d916      	bls.n	8024b36 <HAL_RCCEx_GetPeriphCLKFreq+0x1fa>
 8024b08:	f5b3 0fc0 	cmp.w	r3, #6291456	@ 0x600000
 8024b0c:	f000 8258 	beq.w	8024fc0 <HAL_RCCEx_GetPeriphCLKFreq+0x684>
 8024b10:	f5b3 0f00 	cmp.w	r3, #8388608	@ 0x800000
 8024b14:	d120      	bne.n	8024b58 <HAL_RCCEx_GetPeriphCLKFreq+0x21c>
        ckpclocksource = __HAL_RCC_GET_CLKP_SOURCE();
 8024b16:	4a37      	ldr	r2, [pc, #220]	@ (8024bf4 <HAL_RCCEx_GetPeriphCLKFreq+0x2b8>)
 8024b18:	6cd3      	ldr	r3, [r2, #76]	@ 0x4c
 8024b1a:	f003 5340 	and.w	r3, r3, #805306368	@ 0x30000000
        if ((HAL_IS_BIT_SET(RCC->CR, RCC_CR_HSIRDY)) && (ckpclocksource == RCC_CLKPSOURCE_HSI))
 8024b1e:	6812      	ldr	r2, [r2, #0]
 8024b20:	f012 0f04 	tst.w	r2, #4
 8024b24:	d030      	beq.n	8024b88 <HAL_RCCEx_GetPeriphCLKFreq+0x24c>
 8024b26:	bb7b      	cbnz	r3, 8024b88 <HAL_RCCEx_GetPeriphCLKFreq+0x24c>
          frequency = (HSI_VALUE >> (__HAL_RCC_GET_HSI_DIVIDER() >> 3));
 8024b28:	4b32      	ldr	r3, [pc, #200]	@ (8024bf4 <HAL_RCCEx_GetPeriphCLKFreq+0x2b8>)
 8024b2a:	681b      	ldr	r3, [r3, #0]
 8024b2c:	f3c3 03c1 	ubfx	r3, r3, #3, #2
 8024b30:	4832      	ldr	r0, [pc, #200]	@ (8024bfc <HAL_RCCEx_GetPeriphCLKFreq+0x2c0>)
 8024b32:	40d8      	lsrs	r0, r3
 8024b34:	e743      	b.n	80249be <HAL_RCCEx_GetPeriphCLKFreq+0x82>
    switch (saiclocksource)
 8024b36:	b18b      	cbz	r3, 8024b5c <HAL_RCCEx_GetPeriphCLKFreq+0x220>
 8024b38:	f5b3 1f00 	cmp.w	r3, #2097152	@ 0x200000
 8024b3c:	d10a      	bne.n	8024b54 <HAL_RCCEx_GetPeriphCLKFreq+0x218>
        if (HAL_IS_BIT_SET(RCC->CR, RCC_CR_PLL2RDY))
 8024b3e:	4b2d      	ldr	r3, [pc, #180]	@ (8024bf4 <HAL_RCCEx_GetPeriphCLKFreq+0x2b8>)
 8024b40:	6818      	ldr	r0, [r3, #0]
 8024b42:	f010 6000 	ands.w	r0, r0, #134217728	@ 0x8000000
 8024b46:	f43f af3a 	beq.w	80249be <HAL_RCCEx_GetPeriphCLKFreq+0x82>
          HAL_RCCEx_GetPLL2ClockFreq(&pll2_clocks);
 8024b4a:	a804      	add	r0, sp, #16
 8024b4c:	f7ff fbf6 	bl	802433c <HAL_RCCEx_GetPLL2ClockFreq>
          frequency = pll2_clocks.PLL2_P_Frequency;
 8024b50:	9804      	ldr	r0, [sp, #16]
 8024b52:	e734      	b.n	80249be <HAL_RCCEx_GetPeriphCLKFreq+0x82>
        frequency = 0;
 8024b54:	2000      	movs	r0, #0
 8024b56:	e732      	b.n	80249be <HAL_RCCEx_GetPeriphCLKFreq+0x82>
 8024b58:	2000      	movs	r0, #0
 8024b5a:	e730      	b.n	80249be <HAL_RCCEx_GetPeriphCLKFreq+0x82>
        if (HAL_IS_BIT_SET(RCC->CR, RCC_CR_PLL1RDY))
 8024b5c:	4b25      	ldr	r3, [pc, #148]	@ (8024bf4 <HAL_RCCEx_GetPeriphCLKFreq+0x2b8>)
 8024b5e:	6818      	ldr	r0, [r3, #0]
 8024b60:	f010 7000 	ands.w	r0, r0, #33554432	@ 0x2000000
 8024b64:	f43f af2b 	beq.w	80249be <HAL_RCCEx_GetPeriphCLKFreq+0x82>
          HAL_RCCEx_GetPLL1ClockFreq(&pll1_clocks);
 8024b68:	a807      	add	r0, sp, #28
 8024b6a:	f7ff fde7 	bl	802473c <HAL_RCCEx_GetPLL1ClockFreq>
          frequency = pll1_clocks.PLL1_Q_Frequency;
 8024b6e:	9808      	ldr	r0, [sp, #32]
 8024b70:	e725      	b.n	80249be <HAL_RCCEx_GetPeriphCLKFreq+0x82>
        if (HAL_IS_BIT_SET(RCC->CR, RCC_CR_PLL3RDY))
 8024b72:	4b20      	ldr	r3, [pc, #128]	@ (8024bf4 <HAL_RCCEx_GetPeriphCLKFreq+0x2b8>)
 8024b74:	6818      	ldr	r0, [r3, #0]
 8024b76:	f010 5000 	ands.w	r0, r0, #536870912	@ 0x20000000
 8024b7a:	f43f af20 	beq.w	80249be <HAL_RCCEx_GetPeriphCLKFreq+0x82>
          HAL_RCCEx_GetPLL3ClockFreq(&pll3_clocks);
 8024b7e:	a801      	add	r0, sp, #4
 8024b80:	f7ff fcdc 	bl	802453c <HAL_RCCEx_GetPLL3ClockFreq>
          frequency = pll3_clocks.PLL3_P_Frequency;
 8024b84:	9801      	ldr	r0, [sp, #4]
 8024b86:	e71a      	b.n	80249be <HAL_RCCEx_GetPeriphCLKFreq+0x82>
        else if ((HAL_IS_BIT_SET(RCC->CR, RCC_CR_CSIRDY)) && (ckpclocksource == RCC_CLKPSOURCE_CSI))
 8024b88:	4a1a      	ldr	r2, [pc, #104]	@ (8024bf4 <HAL_RCCEx_GetPeriphCLKFreq+0x2b8>)
 8024b8a:	6812      	ldr	r2, [r2, #0]
 8024b8c:	f412 7f80 	tst.w	r2, #256	@ 0x100
 8024b90:	d003      	beq.n	8024b9a <HAL_RCCEx_GetPeriphCLKFreq+0x25e>
 8024b92:	f1b3 5f80 	cmp.w	r3, #268435456	@ 0x10000000
 8024b96:	f000 8215 	beq.w	8024fc4 <HAL_RCCEx_GetPeriphCLKFreq+0x688>
        else if ((HAL_IS_BIT_SET(RCC->CR, RCC_CR_HSERDY)) && (ckpclocksource == RCC_CLKPSOURCE_HSE))
 8024b9a:	4a16      	ldr	r2, [pc, #88]	@ (8024bf4 <HAL_RCCEx_GetPeriphCLKFreq+0x2b8>)
 8024b9c:	6812      	ldr	r2, [r2, #0]
 8024b9e:	f412 3f00 	tst.w	r2, #131072	@ 0x20000
 8024ba2:	f000 8211 	beq.w	8024fc8 <HAL_RCCEx_GetPeriphCLKFreq+0x68c>
 8024ba6:	f1b3 5f00 	cmp.w	r3, #536870912	@ 0x20000000
 8024baa:	f000 820f 	beq.w	8024fcc <HAL_RCCEx_GetPeriphCLKFreq+0x690>
          frequency = 0;
 8024bae:	2000      	movs	r0, #0
 8024bb0:	e705      	b.n	80249be <HAL_RCCEx_GetPeriphCLKFreq+0x82>
    saiclocksource = __HAL_RCC_GET_SAI4B_SOURCE();
 8024bb2:	4b10      	ldr	r3, [pc, #64]	@ (8024bf4 <HAL_RCCEx_GetPeriphCLKFreq+0x2b8>)
 8024bb4:	6d9b      	ldr	r3, [r3, #88]	@ 0x58
 8024bb6:	f003 63e0 	and.w	r3, r3, #117440512	@ 0x7000000
    switch (saiclocksource)
 8024bba:	f1b3 7f00 	cmp.w	r3, #33554432	@ 0x2000000
 8024bbe:	d03d      	beq.n	8024c3c <HAL_RCCEx_GetPeriphCLKFreq+0x300>
 8024bc0:	d91e      	bls.n	8024c00 <HAL_RCCEx_GetPeriphCLKFreq+0x2c4>
 8024bc2:	f1b3 7f40 	cmp.w	r3, #50331648	@ 0x3000000
 8024bc6:	f000 8203 	beq.w	8024fd0 <HAL_RCCEx_GetPeriphCLKFreq+0x694>
 8024bca:	f1b3 6f80 	cmp.w	r3, #67108864	@ 0x4000000
 8024bce:	d128      	bne.n	8024c22 <HAL_RCCEx_GetPeriphCLKFreq+0x2e6>
        ckpclocksource = __HAL_RCC_GET_CLKP_SOURCE();
 8024bd0:	4a08      	ldr	r2, [pc, #32]	@ (8024bf4 <HAL_RCCEx_GetPeriphCLKFreq+0x2b8>)
 8024bd2:	6cd3      	ldr	r3, [r2, #76]	@ 0x4c
 8024bd4:	f003 5340 	and.w	r3, r3, #805306368	@ 0x30000000
        if ((HAL_IS_BIT_SET(RCC->CR, RCC_CR_HSIRDY)) && (ckpclocksource == RCC_CLKPSOURCE_HSI))
 8024bd8:	6812      	ldr	r2, [r2, #0]
 8024bda:	f012 0f04 	tst.w	r2, #4
 8024bde:	d038      	beq.n	8024c52 <HAL_RCCEx_GetPeriphCLKFreq+0x316>
 8024be0:	2b00      	cmp	r3, #0
 8024be2:	d136      	bne.n	8024c52 <HAL_RCCEx_GetPeriphCLKFreq+0x316>
          frequency = (HSI_VALUE >> (__HAL_RCC_GET_HSI_DIVIDER() >> 3));
 8024be4:	4b03      	ldr	r3, [pc, #12]	@ (8024bf4 <HAL_RCCEx_GetPeriphCLKFreq+0x2b8>)
 8024be6:	681b      	ldr	r3, [r3, #0]
 8024be8:	f3c3 03c1 	ubfx	r3, r3, #3, #2
 8024bec:	4803      	ldr	r0, [pc, #12]	@ (8024bfc <HAL_RCCEx_GetPeriphCLKFreq+0x2c0>)
 8024bee:	40d8      	lsrs	r0, r3
 8024bf0:	e6e5      	b.n	80249be <HAL_RCCEx_GetPeriphCLKFreq+0x82>
 8024bf2:	bf00      	nop
 8024bf4:	58024400 	.word	0x58024400
 8024bf8:	00bb8000 	.word	0x00bb8000
 8024bfc:	03d09000 	.word	0x03d09000
    switch (saiclocksource)
 8024c00:	b18b      	cbz	r3, 8024c26 <HAL_RCCEx_GetPeriphCLKFreq+0x2ea>
 8024c02:	f1b3 7f80 	cmp.w	r3, #16777216	@ 0x1000000
 8024c06:	d10a      	bne.n	8024c1e <HAL_RCCEx_GetPeriphCLKFreq+0x2e2>
        if (HAL_IS_BIT_SET(RCC->CR, RCC_CR_PLL2RDY))
 8024c08:	4b9a      	ldr	r3, [pc, #616]	@ (8024e74 <HAL_RCCEx_GetPeriphCLKFreq+0x538>)
 8024c0a:	6818      	ldr	r0, [r3, #0]
 8024c0c:	f010 6000 	ands.w	r0, r0, #134217728	@ 0x8000000
 8024c10:	f43f aed5 	beq.w	80249be <HAL_RCCEx_GetPeriphCLKFreq+0x82>
          HAL_RCCEx_GetPLL2ClockFreq(&pll2_clocks);
 8024c14:	a804      	add	r0, sp, #16
 8024c16:	f7ff fb91 	bl	802433c <HAL_RCCEx_GetPLL2ClockFreq>
          frequency = pll2_clocks.PLL2_P_Frequency;
 8024c1a:	9804      	ldr	r0, [sp, #16]
 8024c1c:	e6cf      	b.n	80249be <HAL_RCCEx_GetPeriphCLKFreq+0x82>
        frequency = 0;
 8024c1e:	2000      	movs	r0, #0
 8024c20:	e6cd      	b.n	80249be <HAL_RCCEx_GetPeriphCLKFreq+0x82>
 8024c22:	2000      	movs	r0, #0
 8024c24:	e6cb      	b.n	80249be <HAL_RCCEx_GetPeriphCLKFreq+0x82>
        if (HAL_IS_BIT_SET(RCC->CR, RCC_CR_PLL1RDY))
 8024c26:	4b93      	ldr	r3, [pc, #588]	@ (8024e74 <HAL_RCCEx_GetPeriphCLKFreq+0x538>)
 8024c28:	6818      	ldr	r0, [r3, #0]
 8024c2a:	f010 7000 	ands.w	r0, r0, #33554432	@ 0x2000000
 8024c2e:	f43f aec6 	beq.w	80249be <HAL_RCCEx_GetPeriphCLKFreq+0x82>
          HAL_RCCEx_GetPLL1ClockFreq(&pll1_clocks);
 8024c32:	a807      	add	r0, sp, #28
 8024c34:	f7ff fd82 	bl	802473c <HAL_RCCEx_GetPLL1ClockFreq>
          frequency = pll1_clocks.PLL1_Q_Frequency;
 8024c38:	9808      	ldr	r0, [sp, #32]
 8024c3a:	e6c0      	b.n	80249be <HAL_RCCEx_GetPeriphCLKFreq+0x82>
        if (HAL_IS_BIT_SET(RCC->CR, RCC_CR_PLL3RDY))
 8024c3c:	4b8d      	ldr	r3, [pc, #564]	@ (8024e74 <HAL_RCCEx_GetPeriphCLKFreq+0x538>)
 8024c3e:	6818      	ldr	r0, [r3, #0]
 8024c40:	f010 5000 	ands.w	r0, r0, #536870912	@ 0x20000000
 8024c44:	f43f aebb 	beq.w	80249be <HAL_RCCEx_GetPeriphCLKFreq+0x82>
          HAL_RCCEx_GetPLL3ClockFreq(&pll3_clocks);
 8024c48:	a801      	add	r0, sp, #4
 8024c4a:	f7ff fc77 	bl	802453c <HAL_RCCEx_GetPLL3ClockFreq>
          frequency = pll3_clocks.PLL3_P_Frequency;
 8024c4e:	9801      	ldr	r0, [sp, #4]
 8024c50:	e6b5      	b.n	80249be <HAL_RCCEx_GetPeriphCLKFreq+0x82>
        else if ((HAL_IS_BIT_SET(RCC->CR, RCC_CR_CSIRDY)) && (ckpclocksource == RCC_CLKPSOURCE_CSI))
 8024c52:	4a88      	ldr	r2, [pc, #544]	@ (8024e74 <HAL_RCCEx_GetPeriphCLKFreq+0x538>)
 8024c54:	6812      	ldr	r2, [r2, #0]
 8024c56:	f412 7f80 	tst.w	r2, #256	@ 0x100
 8024c5a:	d003      	beq.n	8024c64 <HAL_RCCEx_GetPeriphCLKFreq+0x328>
 8024c5c:	f1b3 5f80 	cmp.w	r3, #268435456	@ 0x10000000
 8024c60:	f000 81b8 	beq.w	8024fd4 <HAL_RCCEx_GetPeriphCLKFreq+0x698>
        else if ((HAL_IS_BIT_SET(RCC->CR, RCC_CR_HSERDY)) && (ckpclocksource == RCC_CLKPSOURCE_HSE))
 8024c64:	4a83      	ldr	r2, [pc, #524]	@ (8024e74 <HAL_RCCEx_GetPeriphCLKFreq+0x538>)
 8024c66:	6812      	ldr	r2, [r2, #0]
 8024c68:	f412 3f00 	tst.w	r2, #131072	@ 0x20000
 8024c6c:	f000 81b4 	beq.w	8024fd8 <HAL_RCCEx_GetPeriphCLKFreq+0x69c>
 8024c70:	f1b3 5f00 	cmp.w	r3, #536870912	@ 0x20000000
 8024c74:	f000 81b2 	beq.w	8024fdc <HAL_RCCEx_GetPeriphCLKFreq+0x6a0>
          frequency = 0;
 8024c78:	2000      	movs	r0, #0
 8024c7a:	e6a0      	b.n	80249be <HAL_RCCEx_GetPeriphCLKFreq+0x82>
    srcclk = __HAL_RCC_GET_SPI123_SOURCE();
 8024c7c:	4b7d      	ldr	r3, [pc, #500]	@ (8024e74 <HAL_RCCEx_GetPeriphCLKFreq+0x538>)
 8024c7e:	6d1b      	ldr	r3, [r3, #80]	@ 0x50
 8024c80:	f403 43e0 	and.w	r3, r3, #28672	@ 0x7000
    switch (srcclk)
 8024c84:	f5b3 5f00 	cmp.w	r3, #8192	@ 0x2000
 8024c88:	d035      	beq.n	8024cf6 <HAL_RCCEx_GetPeriphCLKFreq+0x3ba>
 8024c8a:	d916      	bls.n	8024cba <HAL_RCCEx_GetPeriphCLKFreq+0x37e>
 8024c8c:	f5b3 5f40 	cmp.w	r3, #12288	@ 0x3000
 8024c90:	f000 81a6 	beq.w	8024fe0 <HAL_RCCEx_GetPeriphCLKFreq+0x6a4>
 8024c94:	f5b3 4f80 	cmp.w	r3, #16384	@ 0x4000
 8024c98:	d120      	bne.n	8024cdc <HAL_RCCEx_GetPeriphCLKFreq+0x3a0>
        ckpclocksource = __HAL_RCC_GET_CLKP_SOURCE();
 8024c9a:	4a76      	ldr	r2, [pc, #472]	@ (8024e74 <HAL_RCCEx_GetPeriphCLKFreq+0x538>)
 8024c9c:	6cd3      	ldr	r3, [r2, #76]	@ 0x4c
 8024c9e:	f003 5340 	and.w	r3, r3, #805306368	@ 0x30000000
        if ((HAL_IS_BIT_SET(RCC->CR, RCC_CR_HSIRDY)) && (ckpclocksource == RCC_CLKPSOURCE_HSI))
 8024ca2:	6812      	ldr	r2, [r2, #0]
 8024ca4:	f012 0f04 	tst.w	r2, #4
 8024ca8:	d030      	beq.n	8024d0c <HAL_RCCEx_GetPeriphCLKFreq+0x3d0>
 8024caa:	bb7b      	cbnz	r3, 8024d0c <HAL_RCCEx_GetPeriphCLKFreq+0x3d0>
          frequency = (HSI_VALUE >> (__HAL_RCC_GET_HSI_DIVIDER() >> 3));
 8024cac:	4b71      	ldr	r3, [pc, #452]	@ (8024e74 <HAL_RCCEx_GetPeriphCLKFreq+0x538>)
 8024cae:	681b      	ldr	r3, [r3, #0]
 8024cb0:	f3c3 03c1 	ubfx	r3, r3, #3, #2
 8024cb4:	4870      	ldr	r0, [pc, #448]	@ (8024e78 <HAL_RCCEx_GetPeriphCLKFreq+0x53c>)
 8024cb6:	40d8      	lsrs	r0, r3
 8024cb8:	e681      	b.n	80249be <HAL_RCCEx_GetPeriphCLKFreq+0x82>
    switch (srcclk)
 8024cba:	b18b      	cbz	r3, 8024ce0 <HAL_RCCEx_GetPeriphCLKFreq+0x3a4>
 8024cbc:	f5b3 5f80 	cmp.w	r3, #4096	@ 0x1000
 8024cc0:	d10a      	bne.n	8024cd8 <HAL_RCCEx_GetPeriphCLKFreq+0x39c>
        if (HAL_IS_BIT_SET(RCC->CR, RCC_CR_PLL2RDY))
 8024cc2:	4b6c      	ldr	r3, [pc, #432]	@ (8024e74 <HAL_RCCEx_GetPeriphCLKFreq+0x538>)
 8024cc4:	6818      	ldr	r0, [r3, #0]
 8024cc6:	f010 6000 	ands.w	r0, r0, #134217728	@ 0x8000000
 8024cca:	f43f ae78 	beq.w	80249be <HAL_RCCEx_GetPeriphCLKFreq+0x82>
          HAL_RCCEx_GetPLL2ClockFreq(&pll2_clocks);
 8024cce:	a804      	add	r0, sp, #16
 8024cd0:	f7ff fb34 	bl	802433c <HAL_RCCEx_GetPLL2ClockFreq>
          frequency = pll2_clocks.PLL2_P_Frequency;
 8024cd4:	9804      	ldr	r0, [sp, #16]
 8024cd6:	e672      	b.n	80249be <HAL_RCCEx_GetPeriphCLKFreq+0x82>
        frequency = 0;
 8024cd8:	2000      	movs	r0, #0
 8024cda:	e670      	b.n	80249be <HAL_RCCEx_GetPeriphCLKFreq+0x82>
 8024cdc:	2000      	movs	r0, #0
 8024cde:	e66e      	b.n	80249be <HAL_RCCEx_GetPeriphCLKFreq+0x82>
        if (HAL_IS_BIT_SET(RCC->CR, RCC_CR_PLL1RDY))
 8024ce0:	4b64      	ldr	r3, [pc, #400]	@ (8024e74 <HAL_RCCEx_GetPeriphCLKFreq+0x538>)
 8024ce2:	6818      	ldr	r0, [r3, #0]
 8024ce4:	f010 7000 	ands.w	r0, r0, #33554432	@ 0x2000000
 8024ce8:	f43f ae69 	beq.w	80249be <HAL_RCCEx_GetPeriphCLKFreq+0x82>
          HAL_RCCEx_GetPLL1ClockFreq(&pll1_clocks);
 8024cec:	a807      	add	r0, sp, #28
 8024cee:	f7ff fd25 	bl	802473c <HAL_RCCEx_GetPLL1ClockFreq>
          frequency = pll1_clocks.PLL1_Q_Frequency;
 8024cf2:	9808      	ldr	r0, [sp, #32]
 8024cf4:	e663      	b.n	80249be <HAL_RCCEx_GetPeriphCLKFreq+0x82>
        if (HAL_IS_BIT_SET(RCC->CR, RCC_CR_PLL3RDY))
 8024cf6:	4b5f      	ldr	r3, [pc, #380]	@ (8024e74 <HAL_RCCEx_GetPeriphCLKFreq+0x538>)
 8024cf8:	6818      	ldr	r0, [r3, #0]
 8024cfa:	f010 5000 	ands.w	r0, r0, #536870912	@ 0x20000000
 8024cfe:	f43f ae5e 	beq.w	80249be <HAL_RCCEx_GetPeriphCLKFreq+0x82>
          HAL_RCCEx_GetPLL3ClockFreq(&pll3_clocks);
 8024d02:	a801      	add	r0, sp, #4
 8024d04:	f7ff fc1a 	bl	802453c <HAL_RCCEx_GetPLL3ClockFreq>
          frequency = pll3_clocks.PLL3_P_Frequency;
 8024d08:	9801      	ldr	r0, [sp, #4]
 8024d0a:	e658      	b.n	80249be <HAL_RCCEx_GetPeriphCLKFreq+0x82>
        else if ((HAL_IS_BIT_SET(RCC->CR, RCC_CR_CSIRDY)) && (ckpclocksource == RCC_CLKPSOURCE_CSI))
 8024d0c:	4a59      	ldr	r2, [pc, #356]	@ (8024e74 <HAL_RCCEx_GetPeriphCLKFreq+0x538>)
 8024d0e:	6812      	ldr	r2, [r2, #0]
 8024d10:	f412 7f80 	tst.w	r2, #256	@ 0x100
 8024d14:	d003      	beq.n	8024d1e <HAL_RCCEx_GetPeriphCLKFreq+0x3e2>
 8024d16:	f1b3 5f80 	cmp.w	r3, #268435456	@ 0x10000000
 8024d1a:	f000 8163 	beq.w	8024fe4 <HAL_RCCEx_GetPeriphCLKFreq+0x6a8>
        else if ((HAL_IS_BIT_SET(RCC->CR, RCC_CR_HSERDY)) && (ckpclocksource == RCC_CLKPSOURCE_HSE))
 8024d1e:	4a55      	ldr	r2, [pc, #340]	@ (8024e74 <HAL_RCCEx_GetPeriphCLKFreq+0x538>)
 8024d20:	6812      	ldr	r2, [r2, #0]
 8024d22:	f412 3f00 	tst.w	r2, #131072	@ 0x20000
 8024d26:	f000 815f 	beq.w	8024fe8 <HAL_RCCEx_GetPeriphCLKFreq+0x6ac>
 8024d2a:	f1b3 5f00 	cmp.w	r3, #536870912	@ 0x20000000
 8024d2e:	f000 815d 	beq.w	8024fec <HAL_RCCEx_GetPeriphCLKFreq+0x6b0>
          frequency = 0;
 8024d32:	2000      	movs	r0, #0
 8024d34:	e643      	b.n	80249be <HAL_RCCEx_GetPeriphCLKFreq+0x82>
    srcclk = __HAL_RCC_GET_SPI45_SOURCE();
 8024d36:	4b4f      	ldr	r3, [pc, #316]	@ (8024e74 <HAL_RCCEx_GetPeriphCLKFreq+0x538>)
 8024d38:	6d1b      	ldr	r3, [r3, #80]	@ 0x50
 8024d3a:	f403 23e0 	and.w	r3, r3, #458752	@ 0x70000
    switch (srcclk)
 8024d3e:	f5b3 3f40 	cmp.w	r3, #196608	@ 0x30000
 8024d42:	d032      	beq.n	8024daa <HAL_RCCEx_GetPeriphCLKFreq+0x46e>
 8024d44:	d80b      	bhi.n	8024d5e <HAL_RCCEx_GetPeriphCLKFreq+0x422>
 8024d46:	f5b3 3f80 	cmp.w	r3, #65536	@ 0x10000
 8024d4a:	d018      	beq.n	8024d7e <HAL_RCCEx_GetPeriphCLKFreq+0x442>
 8024d4c:	f5b3 3f00 	cmp.w	r3, #131072	@ 0x20000
 8024d50:	d020      	beq.n	8024d94 <HAL_RCCEx_GetPeriphCLKFreq+0x458>
 8024d52:	b913      	cbnz	r3, 8024d5a <HAL_RCCEx_GetPeriphCLKFreq+0x41e>
        frequency = HAL_RCC_GetPCLK1Freq();
 8024d54:	f7fe fc6a 	bl	802362c <HAL_RCC_GetPCLK1Freq>
        break;
 8024d58:	e631      	b.n	80249be <HAL_RCCEx_GetPeriphCLKFreq+0x82>
    switch (srcclk)
 8024d5a:	2000      	movs	r0, #0
 8024d5c:	e62f      	b.n	80249be <HAL_RCCEx_GetPeriphCLKFreq+0x82>
 8024d5e:	f5b3 2f80 	cmp.w	r3, #262144	@ 0x40000
 8024d62:	d02e      	beq.n	8024dc2 <HAL_RCCEx_GetPeriphCLKFreq+0x486>
 8024d64:	f5b3 2fa0 	cmp.w	r3, #327680	@ 0x50000
 8024d68:	d107      	bne.n	8024d7a <HAL_RCCEx_GetPeriphCLKFreq+0x43e>
        if (HAL_IS_BIT_SET(RCC->CR, RCC_CR_HSERDY))
 8024d6a:	4b42      	ldr	r3, [pc, #264]	@ (8024e74 <HAL_RCCEx_GetPeriphCLKFreq+0x538>)
 8024d6c:	6818      	ldr	r0, [r3, #0]
 8024d6e:	f410 3000 	ands.w	r0, r0, #131072	@ 0x20000
 8024d72:	f43f ae24 	beq.w	80249be <HAL_RCCEx_GetPeriphCLKFreq+0x82>
          frequency = HSE_VALUE;
 8024d76:	4841      	ldr	r0, [pc, #260]	@ (8024e7c <HAL_RCCEx_GetPeriphCLKFreq+0x540>)
 8024d78:	e621      	b.n	80249be <HAL_RCCEx_GetPeriphCLKFreq+0x82>
    switch (srcclk)
 8024d7a:	2000      	movs	r0, #0
 8024d7c:	e61f      	b.n	80249be <HAL_RCCEx_GetPeriphCLKFreq+0x82>
        if (HAL_IS_BIT_SET(RCC->CR, RCC_CR_PLL2RDY))
 8024d7e:	4b3d      	ldr	r3, [pc, #244]	@ (8024e74 <HAL_RCCEx_GetPeriphCLKFreq+0x538>)
 8024d80:	6818      	ldr	r0, [r3, #0]
 8024d82:	f010 6000 	ands.w	r0, r0, #134217728	@ 0x8000000
 8024d86:	f43f ae1a 	beq.w	80249be <HAL_RCCEx_GetPeriphCLKFreq+0x82>
          HAL_RCCEx_GetPLL2ClockFreq(&pll2_clocks);
 8024d8a:	a804      	add	r0, sp, #16
 8024d8c:	f7ff fad6 	bl	802433c <HAL_RCCEx_GetPLL2ClockFreq>
          frequency = pll2_clocks.PLL2_Q_Frequency;
 8024d90:	9805      	ldr	r0, [sp, #20]
 8024d92:	e614      	b.n	80249be <HAL_RCCEx_GetPeriphCLKFreq+0x82>
        if (HAL_IS_BIT_SET(RCC->CR, RCC_CR_PLL3RDY))
 8024d94:	4b37      	ldr	r3, [pc, #220]	@ (8024e74 <HAL_RCCEx_GetPeriphCLKFreq+0x538>)
 8024d96:	6818      	ldr	r0, [r3, #0]
 8024d98:	f010 5000 	ands.w	r0, r0, #536870912	@ 0x20000000
 8024d9c:	f43f ae0f 	beq.w	80249be <HAL_RCCEx_GetPeriphCLKFreq+0x82>
          HAL_RCCEx_GetPLL3ClockFreq(&pll3_clocks);
 8024da0:	a801      	add	r0, sp, #4
 8024da2:	f7ff fbcb 	bl	802453c <HAL_RCCEx_GetPLL3ClockFreq>
          frequency = pll3_clocks.PLL3_Q_Frequency;
 8024da6:	9802      	ldr	r0, [sp, #8]
 8024da8:	e609      	b.n	80249be <HAL_RCCEx_GetPeriphCLKFreq+0x82>
        if (HAL_IS_BIT_SET(RCC->CR, RCC_CR_HSIRDY))
 8024daa:	4b32      	ldr	r3, [pc, #200]	@ (8024e74 <HAL_RCCEx_GetPeriphCLKFreq+0x538>)
 8024dac:	6818      	ldr	r0, [r3, #0]
 8024dae:	f010 0004 	ands.w	r0, r0, #4
 8024db2:	f43f ae04 	beq.w	80249be <HAL_RCCEx_GetPeriphCLKFreq+0x82>
          frequency = (HSI_VALUE >> (__HAL_RCC_GET_HSI_DIVIDER() >> 3));
 8024db6:	681b      	ldr	r3, [r3, #0]
 8024db8:	f3c3 03c1 	ubfx	r3, r3, #3, #2
 8024dbc:	482e      	ldr	r0, [pc, #184]	@ (8024e78 <HAL_RCCEx_GetPeriphCLKFreq+0x53c>)
 8024dbe:	40d8      	lsrs	r0, r3
 8024dc0:	e5fd      	b.n	80249be <HAL_RCCEx_GetPeriphCLKFreq+0x82>
        if (HAL_IS_BIT_SET(RCC->CR, RCC_CR_CSIRDY))
 8024dc2:	4b2c      	ldr	r3, [pc, #176]	@ (8024e74 <HAL_RCCEx_GetPeriphCLKFreq+0x538>)
 8024dc4:	6818      	ldr	r0, [r3, #0]
 8024dc6:	f410 7080 	ands.w	r0, r0, #256	@ 0x100
 8024dca:	f43f adf8 	beq.w	80249be <HAL_RCCEx_GetPeriphCLKFreq+0x82>
          frequency = CSI_VALUE;
 8024dce:	482c      	ldr	r0, [pc, #176]	@ (8024e80 <HAL_RCCEx_GetPeriphCLKFreq+0x544>)
 8024dd0:	e5f5      	b.n	80249be <HAL_RCCEx_GetPeriphCLKFreq+0x82>
    srcclk = __HAL_RCC_GET_ADC_SOURCE();
 8024dd2:	4b28      	ldr	r3, [pc, #160]	@ (8024e74 <HAL_RCCEx_GetPeriphCLKFreq+0x538>)
 8024dd4:	6d9b      	ldr	r3, [r3, #88]	@ 0x58
 8024dd6:	f403 3340 	and.w	r3, r3, #196608	@ 0x30000
    switch (srcclk)
 8024dda:	f5b3 3f80 	cmp.w	r3, #65536	@ 0x10000
 8024dde:	d010      	beq.n	8024e02 <HAL_RCCEx_GetPeriphCLKFreq+0x4c6>
 8024de0:	f5b3 3f00 	cmp.w	r3, #131072	@ 0x20000
 8024de4:	d018      	beq.n	8024e18 <HAL_RCCEx_GetPeriphCLKFreq+0x4dc>
 8024de6:	2b00      	cmp	r3, #0
 8024de8:	f040 8102 	bne.w	8024ff0 <HAL_RCCEx_GetPeriphCLKFreq+0x6b4>
        if (HAL_IS_BIT_SET(RCC->CR, RCC_CR_PLL2RDY))
 8024dec:	4b21      	ldr	r3, [pc, #132]	@ (8024e74 <HAL_RCCEx_GetPeriphCLKFreq+0x538>)
 8024dee:	6818      	ldr	r0, [r3, #0]
 8024df0:	f010 6000 	ands.w	r0, r0, #134217728	@ 0x8000000
 8024df4:	f43f ade3 	beq.w	80249be <HAL_RCCEx_GetPeriphCLKFreq+0x82>
          HAL_RCCEx_GetPLL2ClockFreq(&pll2_clocks);
 8024df8:	a804      	add	r0, sp, #16
 8024dfa:	f7ff fa9f 	bl	802433c <HAL_RCCEx_GetPLL2ClockFreq>
          frequency = pll2_clocks.PLL2_P_Frequency;
 8024dfe:	9804      	ldr	r0, [sp, #16]
 8024e00:	e5dd      	b.n	80249be <HAL_RCCEx_GetPeriphCLKFreq+0x82>
        if (HAL_IS_BIT_SET(RCC->CR, RCC_CR_PLL3RDY))
 8024e02:	4b1c      	ldr	r3, [pc, #112]	@ (8024e74 <HAL_RCCEx_GetPeriphCLKFreq+0x538>)
 8024e04:	6818      	ldr	r0, [r3, #0]
 8024e06:	f010 5000 	ands.w	r0, r0, #536870912	@ 0x20000000
 8024e0a:	f43f add8 	beq.w	80249be <HAL_RCCEx_GetPeriphCLKFreq+0x82>
          HAL_RCCEx_GetPLL3ClockFreq(&pll3_clocks);
 8024e0e:	a801      	add	r0, sp, #4
 8024e10:	f7ff fb94 	bl	802453c <HAL_RCCEx_GetPLL3ClockFreq>
          frequency = pll3_clocks.PLL3_R_Frequency;
 8024e14:	9803      	ldr	r0, [sp, #12]
 8024e16:	e5d2      	b.n	80249be <HAL_RCCEx_GetPeriphCLKFreq+0x82>
        ckpclocksource = __HAL_RCC_GET_CLKP_SOURCE();
 8024e18:	4a16      	ldr	r2, [pc, #88]	@ (8024e74 <HAL_RCCEx_GetPeriphCLKFreq+0x538>)
 8024e1a:	6cd3      	ldr	r3, [r2, #76]	@ 0x4c
 8024e1c:	f003 5340 	and.w	r3, r3, #805306368	@ 0x30000000
        if ((HAL_IS_BIT_SET(RCC->CR, RCC_CR_HSIRDY)) && (ckpclocksource == RCC_CLKPSOURCE_HSI))
 8024e20:	6812      	ldr	r2, [r2, #0]
 8024e22:	f012 0f04 	tst.w	r2, #4
 8024e26:	d007      	beq.n	8024e38 <HAL_RCCEx_GetPeriphCLKFreq+0x4fc>
 8024e28:	b933      	cbnz	r3, 8024e38 <HAL_RCCEx_GetPeriphCLKFreq+0x4fc>
          frequency = (HSI_VALUE >> (__HAL_RCC_GET_HSI_DIVIDER() >> 3));
 8024e2a:	4b12      	ldr	r3, [pc, #72]	@ (8024e74 <HAL_RCCEx_GetPeriphCLKFreq+0x538>)
 8024e2c:	681b      	ldr	r3, [r3, #0]
 8024e2e:	f3c3 03c1 	ubfx	r3, r3, #3, #2
 8024e32:	4811      	ldr	r0, [pc, #68]	@ (8024e78 <HAL_RCCEx_GetPeriphCLKFreq+0x53c>)
 8024e34:	40d8      	lsrs	r0, r3
 8024e36:	e5c2      	b.n	80249be <HAL_RCCEx_GetPeriphCLKFreq+0x82>
        else if ((HAL_IS_BIT_SET(RCC->CR, RCC_CR_CSIRDY)) && (ckpclocksource == RCC_CLKPSOURCE_CSI))
 8024e38:	4a0e      	ldr	r2, [pc, #56]	@ (8024e74 <HAL_RCCEx_GetPeriphCLKFreq+0x538>)
 8024e3a:	6812      	ldr	r2, [r2, #0]
 8024e3c:	f412 7f80 	tst.w	r2, #256	@ 0x100
 8024e40:	d003      	beq.n	8024e4a <HAL_RCCEx_GetPeriphCLKFreq+0x50e>
 8024e42:	f1b3 5f80 	cmp.w	r3, #268435456	@ 0x10000000
 8024e46:	f000 80d5 	beq.w	8024ff4 <HAL_RCCEx_GetPeriphCLKFreq+0x6b8>
        else if ((HAL_IS_BIT_SET(RCC->CR, RCC_CR_HSERDY)) && (ckpclocksource == RCC_CLKPSOURCE_HSE))
 8024e4a:	4a0a      	ldr	r2, [pc, #40]	@ (8024e74 <HAL_RCCEx_GetPeriphCLKFreq+0x538>)
 8024e4c:	6812      	ldr	r2, [r2, #0]
 8024e4e:	f412 3f00 	tst.w	r2, #131072	@ 0x20000
 8024e52:	f000 80d1 	beq.w	8024ff8 <HAL_RCCEx_GetPeriphCLKFreq+0x6bc>
 8024e56:	f1b3 5f00 	cmp.w	r3, #536870912	@ 0x20000000
 8024e5a:	f000 80cf 	beq.w	8024ffc <HAL_RCCEx_GetPeriphCLKFreq+0x6c0>
          frequency = 0;
 8024e5e:	2000      	movs	r0, #0
 8024e60:	e5ad      	b.n	80249be <HAL_RCCEx_GetPeriphCLKFreq+0x82>
    srcclk = __HAL_RCC_GET_SDMMC_SOURCE();
 8024e62:	4b04      	ldr	r3, [pc, #16]	@ (8024e74 <HAL_RCCEx_GetPeriphCLKFreq+0x538>)
 8024e64:	6cdb      	ldr	r3, [r3, #76]	@ 0x4c
    switch (srcclk)
 8024e66:	f413 3380 	ands.w	r3, r3, #65536	@ 0x10000
 8024e6a:	d00b      	beq.n	8024e84 <HAL_RCCEx_GetPeriphCLKFreq+0x548>
 8024e6c:	b9ab      	cbnz	r3, 8024e9a <HAL_RCCEx_GetPeriphCLKFreq+0x55e>
 8024e6e:	2000      	movs	r0, #0
 8024e70:	e5a5      	b.n	80249be <HAL_RCCEx_GetPeriphCLKFreq+0x82>
 8024e72:	bf00      	nop
 8024e74:	58024400 	.word	0x58024400
 8024e78:	03d09000 	.word	0x03d09000
 8024e7c:	007a1200 	.word	0x007a1200
 8024e80:	003d0900 	.word	0x003d0900
        if (HAL_IS_BIT_SET(RCC->CR, RCC_CR_PLL1RDY))
 8024e84:	4b5f      	ldr	r3, [pc, #380]	@ (8025004 <HAL_RCCEx_GetPeriphCLKFreq+0x6c8>)
 8024e86:	6818      	ldr	r0, [r3, #0]
 8024e88:	f010 7000 	ands.w	r0, r0, #33554432	@ 0x2000000
 8024e8c:	f43f ad97 	beq.w	80249be <HAL_RCCEx_GetPeriphCLKFreq+0x82>
          HAL_RCCEx_GetPLL1ClockFreq(&pll1_clocks);
 8024e90:	a807      	add	r0, sp, #28
 8024e92:	f7ff fc53 	bl	802473c <HAL_RCCEx_GetPLL1ClockFreq>
          frequency = pll1_clocks.PLL1_Q_Frequency;
 8024e96:	9808      	ldr	r0, [sp, #32]
 8024e98:	e591      	b.n	80249be <HAL_RCCEx_GetPeriphCLKFreq+0x82>
        if (HAL_IS_BIT_SET(RCC->CR, RCC_CR_PLL2RDY))
 8024e9a:	4b5a      	ldr	r3, [pc, #360]	@ (8025004 <HAL_RCCEx_GetPeriphCLKFreq+0x6c8>)
 8024e9c:	6818      	ldr	r0, [r3, #0]
 8024e9e:	f010 6000 	ands.w	r0, r0, #134217728	@ 0x8000000
 8024ea2:	f43f ad8c 	beq.w	80249be <HAL_RCCEx_GetPeriphCLKFreq+0x82>
          HAL_RCCEx_GetPLL2ClockFreq(&pll2_clocks);
 8024ea6:	a804      	add	r0, sp, #16
 8024ea8:	f7ff fa48 	bl	802433c <HAL_RCCEx_GetPLL2ClockFreq>
          frequency = pll2_clocks.PLL2_R_Frequency;
 8024eac:	9806      	ldr	r0, [sp, #24]
 8024eae:	e586      	b.n	80249be <HAL_RCCEx_GetPeriphCLKFreq+0x82>
    srcclk = __HAL_RCC_GET_SPI6_SOURCE();
 8024eb0:	4b54      	ldr	r3, [pc, #336]	@ (8025004 <HAL_RCCEx_GetPeriphCLKFreq+0x6c8>)
 8024eb2:	6d9b      	ldr	r3, [r3, #88]	@ 0x58
 8024eb4:	f003 43e0 	and.w	r3, r3, #1879048192	@ 0x70000000
    switch (srcclk)
 8024eb8:	f1b3 5f40 	cmp.w	r3, #805306368	@ 0x30000000
 8024ebc:	d032      	beq.n	8024f24 <HAL_RCCEx_GetPeriphCLKFreq+0x5e8>
 8024ebe:	d80b      	bhi.n	8024ed8 <HAL_RCCEx_GetPeriphCLKFreq+0x59c>
 8024ec0:	f1b3 5f80 	cmp.w	r3, #268435456	@ 0x10000000
 8024ec4:	d018      	beq.n	8024ef8 <HAL_RCCEx_GetPeriphCLKFreq+0x5bc>
 8024ec6:	f1b3 5f00 	cmp.w	r3, #536870912	@ 0x20000000
 8024eca:	d020      	beq.n	8024f0e <HAL_RCCEx_GetPeriphCLKFreq+0x5d2>
 8024ecc:	b913      	cbnz	r3, 8024ed4 <HAL_RCCEx_GetPeriphCLKFreq+0x598>
        frequency = HAL_RCCEx_GetD3PCLK1Freq();
 8024ece:	f7ff fa23 	bl	8024318 <HAL_RCCEx_GetD3PCLK1Freq>
        break;
 8024ed2:	e574      	b.n	80249be <HAL_RCCEx_GetPeriphCLKFreq+0x82>
    switch (srcclk)
 8024ed4:	2000      	movs	r0, #0
 8024ed6:	e572      	b.n	80249be <HAL_RCCEx_GetPeriphCLKFreq+0x82>
 8024ed8:	f1b3 4f80 	cmp.w	r3, #1073741824	@ 0x40000000
 8024edc:	d02e      	beq.n	8024f3c <HAL_RCCEx_GetPeriphCLKFreq+0x600>
 8024ede:	f1b3 4fa0 	cmp.w	r3, #1342177280	@ 0x50000000
 8024ee2:	d107      	bne.n	8024ef4 <HAL_RCCEx_GetPeriphCLKFreq+0x5b8>
        if (HAL_IS_BIT_SET(RCC->CR, RCC_CR_HSERDY))
 8024ee4:	4b47      	ldr	r3, [pc, #284]	@ (8025004 <HAL_RCCEx_GetPeriphCLKFreq+0x6c8>)
 8024ee6:	6818      	ldr	r0, [r3, #0]
 8024ee8:	f410 3000 	ands.w	r0, r0, #131072	@ 0x20000
 8024eec:	f43f ad67 	beq.w	80249be <HAL_RCCEx_GetPeriphCLKFreq+0x82>
          frequency = HSE_VALUE;
 8024ef0:	4845      	ldr	r0, [pc, #276]	@ (8025008 <HAL_RCCEx_GetPeriphCLKFreq+0x6cc>)
 8024ef2:	e564      	b.n	80249be <HAL_RCCEx_GetPeriphCLKFreq+0x82>
    switch (srcclk)
 8024ef4:	2000      	movs	r0, #0
 8024ef6:	e562      	b.n	80249be <HAL_RCCEx_GetPeriphCLKFreq+0x82>
        if (HAL_IS_BIT_SET(RCC->CR, RCC_CR_PLL2RDY))
 8024ef8:	4b42      	ldr	r3, [pc, #264]	@ (8025004 <HAL_RCCEx_GetPeriphCLKFreq+0x6c8>)
 8024efa:	6818      	ldr	r0, [r3, #0]
 8024efc:	f010 6000 	ands.w	r0, r0, #134217728	@ 0x8000000
 8024f00:	f43f ad5d 	beq.w	80249be <HAL_RCCEx_GetPeriphCLKFreq+0x82>
          HAL_RCCEx_GetPLL2ClockFreq(&pll2_clocks);
 8024f04:	a804      	add	r0, sp, #16
 8024f06:	f7ff fa19 	bl	802433c <HAL_RCCEx_GetPLL2ClockFreq>
          frequency = pll2_clocks.PLL2_Q_Frequency;
 8024f0a:	9805      	ldr	r0, [sp, #20]
 8024f0c:	e557      	b.n	80249be <HAL_RCCEx_GetPeriphCLKFreq+0x82>
        if (HAL_IS_BIT_SET(RCC->CR, RCC_CR_PLL3RDY))
 8024f0e:	4b3d      	ldr	r3, [pc, #244]	@ (8025004 <HAL_RCCEx_GetPeriphCLKFreq+0x6c8>)
 8024f10:	6818      	ldr	r0, [r3, #0]
 8024f12:	f010 5000 	ands.w	r0, r0, #536870912	@ 0x20000000
 8024f16:	f43f ad52 	beq.w	80249be <HAL_RCCEx_GetPeriphCLKFreq+0x82>
          HAL_RCCEx_GetPLL3ClockFreq(&pll3_clocks);
 8024f1a:	a801      	add	r0, sp, #4
 8024f1c:	f7ff fb0e 	bl	802453c <HAL_RCCEx_GetPLL3ClockFreq>
          frequency = pll3_clocks.PLL3_Q_Frequency;
 8024f20:	9802      	ldr	r0, [sp, #8]
 8024f22:	e54c      	b.n	80249be <HAL_RCCEx_GetPeriphCLKFreq+0x82>
        if (HAL_IS_BIT_SET(RCC->CR, RCC_CR_HSIRDY))
 8024f24:	4b37      	ldr	r3, [pc, #220]	@ (8025004 <HAL_RCCEx_GetPeriphCLKFreq+0x6c8>)
 8024f26:	6818      	ldr	r0, [r3, #0]
 8024f28:	f010 0004 	ands.w	r0, r0, #4
 8024f2c:	f43f ad47 	beq.w	80249be <HAL_RCCEx_GetPeriphCLKFreq+0x82>
          frequency = (HSI_VALUE >> (__HAL_RCC_GET_HSI_DIVIDER() >> 3));
 8024f30:	681b      	ldr	r3, [r3, #0]
 8024f32:	f3c3 03c1 	ubfx	r3, r3, #3, #2
 8024f36:	4835      	ldr	r0, [pc, #212]	@ (802500c <HAL_RCCEx_GetPeriphCLKFreq+0x6d0>)
 8024f38:	40d8      	lsrs	r0, r3
 8024f3a:	e540      	b.n	80249be <HAL_RCCEx_GetPeriphCLKFreq+0x82>
        if (HAL_IS_BIT_SET(RCC->CR, RCC_CR_CSIRDY))
 8024f3c:	4b31      	ldr	r3, [pc, #196]	@ (8025004 <HAL_RCCEx_GetPeriphCLKFreq+0x6c8>)
 8024f3e:	6818      	ldr	r0, [r3, #0]
 8024f40:	f410 7080 	ands.w	r0, r0, #256	@ 0x100
 8024f44:	f43f ad3b 	beq.w	80249be <HAL_RCCEx_GetPeriphCLKFreq+0x82>
          frequency = CSI_VALUE;
 8024f48:	4831      	ldr	r0, [pc, #196]	@ (8025010 <HAL_RCCEx_GetPeriphCLKFreq+0x6d4>)
 8024f4a:	e538      	b.n	80249be <HAL_RCCEx_GetPeriphCLKFreq+0x82>
    srcclk = __HAL_RCC_GET_FDCAN_SOURCE();
 8024f4c:	4b2d      	ldr	r3, [pc, #180]	@ (8025004 <HAL_RCCEx_GetPeriphCLKFreq+0x6c8>)
 8024f4e:	6d1b      	ldr	r3, [r3, #80]	@ 0x50
 8024f50:	f003 5340 	and.w	r3, r3, #805306368	@ 0x30000000
    switch (srcclk)
 8024f54:	f1b3 5f80 	cmp.w	r3, #268435456	@ 0x10000000
 8024f58:	d00c      	beq.n	8024f74 <HAL_RCCEx_GetPeriphCLKFreq+0x638>
 8024f5a:	f1b3 5f00 	cmp.w	r3, #536870912	@ 0x20000000
 8024f5e:	d014      	beq.n	8024f8a <HAL_RCCEx_GetPeriphCLKFreq+0x64e>
 8024f60:	2b00      	cmp	r3, #0
 8024f62:	d14d      	bne.n	8025000 <HAL_RCCEx_GetPeriphCLKFreq+0x6c4>
        if (HAL_IS_BIT_SET(RCC->CR, RCC_CR_HSERDY))
 8024f64:	4b27      	ldr	r3, [pc, #156]	@ (8025004 <HAL_RCCEx_GetPeriphCLKFreq+0x6c8>)
 8024f66:	6818      	ldr	r0, [r3, #0]
 8024f68:	f410 3000 	ands.w	r0, r0, #131072	@ 0x20000
 8024f6c:	f43f ad27 	beq.w	80249be <HAL_RCCEx_GetPeriphCLKFreq+0x82>
          frequency = HSE_VALUE;
 8024f70:	4825      	ldr	r0, [pc, #148]	@ (8025008 <HAL_RCCEx_GetPeriphCLKFreq+0x6cc>)
 8024f72:	e524      	b.n	80249be <HAL_RCCEx_GetPeriphCLKFreq+0x82>
        if (HAL_IS_BIT_SET(RCC->CR, RCC_CR_PLL1RDY))
 8024f74:	4b23      	ldr	r3, [pc, #140]	@ (8025004 <HAL_RCCEx_GetPeriphCLKFreq+0x6c8>)
 8024f76:	6818      	ldr	r0, [r3, #0]
 8024f78:	f010 7000 	ands.w	r0, r0, #33554432	@ 0x2000000
 8024f7c:	f43f ad1f 	beq.w	80249be <HAL_RCCEx_GetPeriphCLKFreq+0x82>
          HAL_RCCEx_GetPLL1ClockFreq(&pll1_clocks);
 8024f80:	a807      	add	r0, sp, #28
 8024f82:	f7ff fbdb 	bl	802473c <HAL_RCCEx_GetPLL1ClockFreq>
          frequency = pll1_clocks.PLL1_Q_Frequency;
 8024f86:	9808      	ldr	r0, [sp, #32]
 8024f88:	e519      	b.n	80249be <HAL_RCCEx_GetPeriphCLKFreq+0x82>
        if (HAL_IS_BIT_SET(RCC->CR, RCC_CR_PLL2RDY))
 8024f8a:	4b1e      	ldr	r3, [pc, #120]	@ (8025004 <HAL_RCCEx_GetPeriphCLKFreq+0x6c8>)
 8024f8c:	6818      	ldr	r0, [r3, #0]
 8024f8e:	f010 6000 	ands.w	r0, r0, #134217728	@ 0x8000000
 8024f92:	f43f ad14 	beq.w	80249be <HAL_RCCEx_GetPeriphCLKFreq+0x82>
          HAL_RCCEx_GetPLL2ClockFreq(&pll2_clocks);
 8024f96:	a804      	add	r0, sp, #16
 8024f98:	f7ff f9d0 	bl	802433c <HAL_RCCEx_GetPLL2ClockFreq>
          frequency = pll2_clocks.PLL2_Q_Frequency;
 8024f9c:	9805      	ldr	r0, [sp, #20]
 8024f9e:	e50e      	b.n	80249be <HAL_RCCEx_GetPeriphCLKFreq+0x82>
        frequency = 0;
 8024fa0:	2000      	movs	r0, #0
 8024fa2:	e50c      	b.n	80249be <HAL_RCCEx_GetPeriphCLKFreq+0x82>
          frequency = CSI_VALUE;
 8024fa4:	481a      	ldr	r0, [pc, #104]	@ (8025010 <HAL_RCCEx_GetPeriphCLKFreq+0x6d4>)
 8024fa6:	e50a      	b.n	80249be <HAL_RCCEx_GetPeriphCLKFreq+0x82>
          frequency = 0;
 8024fa8:	2000      	movs	r0, #0
 8024faa:	e508      	b.n	80249be <HAL_RCCEx_GetPeriphCLKFreq+0x82>
          frequency = HSE_VALUE;
 8024fac:	4816      	ldr	r0, [pc, #88]	@ (8025008 <HAL_RCCEx_GetPeriphCLKFreq+0x6cc>)
 8024fae:	e506      	b.n	80249be <HAL_RCCEx_GetPeriphCLKFreq+0x82>
    switch (saiclocksource)
 8024fb0:	4818      	ldr	r0, [pc, #96]	@ (8025014 <HAL_RCCEx_GetPeriphCLKFreq+0x6d8>)
 8024fb2:	e504      	b.n	80249be <HAL_RCCEx_GetPeriphCLKFreq+0x82>
          frequency = CSI_VALUE;
 8024fb4:	4816      	ldr	r0, [pc, #88]	@ (8025010 <HAL_RCCEx_GetPeriphCLKFreq+0x6d4>)
 8024fb6:	e502      	b.n	80249be <HAL_RCCEx_GetPeriphCLKFreq+0x82>
          frequency = 0;
 8024fb8:	2000      	movs	r0, #0
 8024fba:	e500      	b.n	80249be <HAL_RCCEx_GetPeriphCLKFreq+0x82>
          frequency = HSE_VALUE;
 8024fbc:	4812      	ldr	r0, [pc, #72]	@ (8025008 <HAL_RCCEx_GetPeriphCLKFreq+0x6cc>)
 8024fbe:	e4fe      	b.n	80249be <HAL_RCCEx_GetPeriphCLKFreq+0x82>
    switch (saiclocksource)
 8024fc0:	4814      	ldr	r0, [pc, #80]	@ (8025014 <HAL_RCCEx_GetPeriphCLKFreq+0x6d8>)
 8024fc2:	e4fc      	b.n	80249be <HAL_RCCEx_GetPeriphCLKFreq+0x82>
          frequency = CSI_VALUE;
 8024fc4:	4812      	ldr	r0, [pc, #72]	@ (8025010 <HAL_RCCEx_GetPeriphCLKFreq+0x6d4>)
 8024fc6:	e4fa      	b.n	80249be <HAL_RCCEx_GetPeriphCLKFreq+0x82>
          frequency = 0;
 8024fc8:	2000      	movs	r0, #0
 8024fca:	e4f8      	b.n	80249be <HAL_RCCEx_GetPeriphCLKFreq+0x82>
          frequency = HSE_VALUE;
 8024fcc:	480e      	ldr	r0, [pc, #56]	@ (8025008 <HAL_RCCEx_GetPeriphCLKFreq+0x6cc>)
 8024fce:	e4f6      	b.n	80249be <HAL_RCCEx_GetPeriphCLKFreq+0x82>
    switch (saiclocksource)
 8024fd0:	4810      	ldr	r0, [pc, #64]	@ (8025014 <HAL_RCCEx_GetPeriphCLKFreq+0x6d8>)
 8024fd2:	e4f4      	b.n	80249be <HAL_RCCEx_GetPeriphCLKFreq+0x82>
          frequency = CSI_VALUE;
 8024fd4:	480e      	ldr	r0, [pc, #56]	@ (8025010 <HAL_RCCEx_GetPeriphCLKFreq+0x6d4>)
 8024fd6:	e4f2      	b.n	80249be <HAL_RCCEx_GetPeriphCLKFreq+0x82>
          frequency = 0;
 8024fd8:	2000      	movs	r0, #0
 8024fda:	e4f0      	b.n	80249be <HAL_RCCEx_GetPeriphCLKFreq+0x82>
          frequency = HSE_VALUE;
 8024fdc:	480a      	ldr	r0, [pc, #40]	@ (8025008 <HAL_RCCEx_GetPeriphCLKFreq+0x6cc>)
 8024fde:	e4ee      	b.n	80249be <HAL_RCCEx_GetPeriphCLKFreq+0x82>
    switch (srcclk)
 8024fe0:	480c      	ldr	r0, [pc, #48]	@ (8025014 <HAL_RCCEx_GetPeriphCLKFreq+0x6d8>)
 8024fe2:	e4ec      	b.n	80249be <HAL_RCCEx_GetPeriphCLKFreq+0x82>
          frequency = CSI_VALUE;
 8024fe4:	480a      	ldr	r0, [pc, #40]	@ (8025010 <HAL_RCCEx_GetPeriphCLKFreq+0x6d4>)
 8024fe6:	e4ea      	b.n	80249be <HAL_RCCEx_GetPeriphCLKFreq+0x82>
          frequency = 0;
 8024fe8:	2000      	movs	r0, #0
 8024fea:	e4e8      	b.n	80249be <HAL_RCCEx_GetPeriphCLKFreq+0x82>
          frequency = HSE_VALUE;
 8024fec:	4806      	ldr	r0, [pc, #24]	@ (8025008 <HAL_RCCEx_GetPeriphCLKFreq+0x6cc>)
 8024fee:	e4e6      	b.n	80249be <HAL_RCCEx_GetPeriphCLKFreq+0x82>
    switch (srcclk)
 8024ff0:	2000      	movs	r0, #0
 8024ff2:	e4e4      	b.n	80249be <HAL_RCCEx_GetPeriphCLKFreq+0x82>
          frequency = CSI_VALUE;
 8024ff4:	4806      	ldr	r0, [pc, #24]	@ (8025010 <HAL_RCCEx_GetPeriphCLKFreq+0x6d4>)
 8024ff6:	e4e2      	b.n	80249be <HAL_RCCEx_GetPeriphCLKFreq+0x82>
          frequency = 0;
 8024ff8:	2000      	movs	r0, #0
 8024ffa:	e4e0      	b.n	80249be <HAL_RCCEx_GetPeriphCLKFreq+0x82>
          frequency = HSE_VALUE;
 8024ffc:	4802      	ldr	r0, [pc, #8]	@ (8025008 <HAL_RCCEx_GetPeriphCLKFreq+0x6cc>)
 8024ffe:	e4de      	b.n	80249be <HAL_RCCEx_GetPeriphCLKFreq+0x82>
    switch (srcclk)
 8025000:	2000      	movs	r0, #0
  return frequency;
 8025002:	e4dc      	b.n	80249be <HAL_RCCEx_GetPeriphCLKFreq+0x82>
 8025004:	58024400 	.word	0x58024400
 8025008:	007a1200 	.word	0x007a1200
 802500c:	03d09000 	.word	0x03d09000
 8025010:	003d0900 	.word	0x003d0900
 8025014:	00bb8000 	.word	0x00bb8000

08025018 <clock_time>:
#include "clock-arch.h"

/*---------------------------------------------------------------------------*/
clock_time_t
clock_time(void)
{
 8025018:	b508      	push	{r3, lr}
  return (clock_time_t)TimerGet();
 802501a:	f7fb fc78 	bl	802090e <TimerGet>
}
 802501e:	bd08      	pop	{r3, pc}

08025020 <LAN8742_RegisterBusIO>:
  * @retval LAN8742_STATUS_OK  if OK
  *         LAN8742_STATUS_ERROR if missing mandatory function
  */
int32_t  LAN8742_RegisterBusIO(lan8742_Object_t *pObj, lan8742_IOCtx_t *ioctx)
{
  if(!pObj || !ioctx->ReadReg || !ioctx->WriteReg || !ioctx->GetTick)
 8025020:	b188      	cbz	r0, 8025046 <LAN8742_RegisterBusIO+0x26>
 8025022:	68ca      	ldr	r2, [r1, #12]
 8025024:	b192      	cbz	r2, 802504c <LAN8742_RegisterBusIO+0x2c>
 8025026:	688a      	ldr	r2, [r1, #8]
 8025028:	b19a      	cbz	r2, 8025052 <LAN8742_RegisterBusIO+0x32>
 802502a:	690a      	ldr	r2, [r1, #16]
 802502c:	b1a2      	cbz	r2, 8025058 <LAN8742_RegisterBusIO+0x38>
  {
    return LAN8742_STATUS_ERROR;
  }

  pObj->IO.Init = ioctx->Init;
 802502e:	680a      	ldr	r2, [r1, #0]
 8025030:	6082      	str	r2, [r0, #8]
  pObj->IO.DeInit = ioctx->DeInit;
 8025032:	684a      	ldr	r2, [r1, #4]
 8025034:	60c2      	str	r2, [r0, #12]
  pObj->IO.ReadReg = ioctx->ReadReg;
 8025036:	68ca      	ldr	r2, [r1, #12]
 8025038:	6142      	str	r2, [r0, #20]
  pObj->IO.WriteReg = ioctx->WriteReg;
 802503a:	688a      	ldr	r2, [r1, #8]
 802503c:	6102      	str	r2, [r0, #16]
  pObj->IO.GetTick = ioctx->GetTick;
 802503e:	690a      	ldr	r2, [r1, #16]
 8025040:	6182      	str	r2, [r0, #24]

  return LAN8742_STATUS_OK;
 8025042:	2000      	movs	r0, #0
 8025044:	4770      	bx	lr
    return LAN8742_STATUS_ERROR;
 8025046:	f04f 30ff 	mov.w	r0, #4294967295
 802504a:	4770      	bx	lr
 802504c:	f04f 30ff 	mov.w	r0, #4294967295
 8025050:	4770      	bx	lr
 8025052:	f04f 30ff 	mov.w	r0, #4294967295
 8025056:	4770      	bx	lr
 8025058:	f04f 30ff 	mov.w	r0, #4294967295
}
 802505c:	4770      	bx	lr

0802505e <LAN8742_Init>:
  *         LAN8742_STATUS_READ_ERROR if cannot read register
  *         LAN8742_STATUS_WRITE_ERROR if cannot write to register
  *         LAN8742_STATUS_RESET_TIMEOUT if cannot perform a software reset
  */
 int32_t LAN8742_Init(lan8742_Object_t *pObj)
 {
 802505e:	b570      	push	{r4, r5, r6, lr}
 8025060:	b082      	sub	sp, #8
 8025062:	4605      	mov	r5, r0
   uint32_t tickstart = 0, regvalue = 0, addr = 0;
 8025064:	2300      	movs	r3, #0
 8025066:	9301      	str	r3, [sp, #4]
   int32_t status = LAN8742_STATUS_OK;

   if(pObj->Is_Initialized == 0)
 8025068:	6844      	ldr	r4, [r0, #4]
 802506a:	2c00      	cmp	r4, #0
 802506c:	d14a      	bne.n	8025104 <LAN8742_Init+0xa6>
   {
     if(pObj->IO.Init != 0)
 802506e:	6883      	ldr	r3, [r0, #8]
 8025070:	b103      	cbz	r3, 8025074 <LAN8742_Init+0x16>
     {
       /* GPIO and Clocks initialization */
       pObj->IO.Init();
 8025072:	4798      	blx	r3
     }

     /* for later check */
     pObj->DevAddr = LAN8742_MAX_DEV_ADDR + 1;
 8025074:	2320      	movs	r3, #32
 8025076:	602b      	str	r3, [r5, #0]
   int32_t status = LAN8742_STATUS_OK;
 8025078:	2600      	movs	r6, #0

     /* Get the device address from special mode register */
     for(addr = 0; addr <= LAN8742_MAX_DEV_ADDR; addr ++)
 802507a:	e002      	b.n	8025082 <LAN8742_Init+0x24>
     {
       if(pObj->IO.ReadReg(addr, LAN8742_SMR, &regvalue) < 0)
       {
         status = LAN8742_STATUS_READ_ERROR;
 802507c:	f06f 0604 	mvn.w	r6, #4
     for(addr = 0; addr <= LAN8742_MAX_DEV_ADDR; addr ++)
 8025080:	3401      	adds	r4, #1
 8025082:	2c1f      	cmp	r4, #31
 8025084:	d80d      	bhi.n	80250a2 <LAN8742_Init+0x44>
       if(pObj->IO.ReadReg(addr, LAN8742_SMR, &regvalue) < 0)
 8025086:	696b      	ldr	r3, [r5, #20]
 8025088:	aa01      	add	r2, sp, #4
 802508a:	2112      	movs	r1, #18
 802508c:	4620      	mov	r0, r4
 802508e:	4798      	blx	r3
 8025090:	2800      	cmp	r0, #0
 8025092:	dbf3      	blt.n	802507c <LAN8742_Init+0x1e>
         /* Can't read from this device address
            continue with next address */
         continue;
       }

       if((regvalue & LAN8742_SMR_PHY_ADDR) == addr)
 8025094:	9b01      	ldr	r3, [sp, #4]
 8025096:	f003 031f 	and.w	r3, r3, #31
 802509a:	42a3      	cmp	r3, r4
 802509c:	d1f0      	bne.n	8025080 <LAN8742_Init+0x22>
       {
         pObj->DevAddr = addr;
 802509e:	602c      	str	r4, [r5, #0]
         status = LAN8742_STATUS_OK;
 80250a0:	2600      	movs	r6, #0
         break;
       }
     }

     if(pObj->DevAddr > LAN8742_MAX_DEV_ADDR)
 80250a2:	6828      	ldr	r0, [r5, #0]
 80250a4:	281f      	cmp	r0, #31
 80250a6:	d826      	bhi.n	80250f6 <LAN8742_Init+0x98>
     {
       status = LAN8742_STATUS_ADDRESS_ERROR;
     }

     /* if device address is matched */
     if(status == LAN8742_STATUS_OK)
 80250a8:	2e00      	cmp	r6, #0
 80250aa:	d137      	bne.n	802511c <LAN8742_Init+0xbe>
     {
       /* set a software reset  */
       if(pObj->IO.WriteReg(pObj->DevAddr, LAN8742_BCR, LAN8742_BCR_SOFT_RESET) >= 0)
 80250ac:	692b      	ldr	r3, [r5, #16]
 80250ae:	f44f 4200 	mov.w	r2, #32768	@ 0x8000
 80250b2:	2100      	movs	r1, #0
 80250b4:	4798      	blx	r3
 80250b6:	2800      	cmp	r0, #0
 80250b8:	db33      	blt.n	8025122 <LAN8742_Init+0xc4>
       {
         /* get software reset status */
         if(pObj->IO.ReadReg(pObj->DevAddr, LAN8742_BCR, &regvalue) >= 0)
 80250ba:	696b      	ldr	r3, [r5, #20]
 80250bc:	aa01      	add	r2, sp, #4
 80250be:	2100      	movs	r1, #0
 80250c0:	6828      	ldr	r0, [r5, #0]
 80250c2:	4798      	blx	r3
 80250c4:	2800      	cmp	r0, #0
 80250c6:	db2f      	blt.n	8025128 <LAN8742_Init+0xca>
         {
           tickstart = pObj->IO.GetTick();
 80250c8:	69ab      	ldr	r3, [r5, #24]
 80250ca:	4798      	blx	r3
 80250cc:	4604      	mov	r4, r0

           /* wait until software reset is done or timeout occurred */
           while(regvalue & LAN8742_BCR_SOFT_RESET)
 80250ce:	9b01      	ldr	r3, [sp, #4]
 80250d0:	f413 4f00 	tst.w	r3, #32768	@ 0x8000
 80250d4:	d011      	beq.n	80250fa <LAN8742_Init+0x9c>
           {
             if((pObj->IO.GetTick() - tickstart) <= LAN8742_SW_RESET_TO)
 80250d6:	69ab      	ldr	r3, [r5, #24]
 80250d8:	4798      	blx	r3
 80250da:	1b00      	subs	r0, r0, r4
 80250dc:	f5b0 7ffa 	cmp.w	r0, #500	@ 0x1f4
 80250e0:	d80d      	bhi.n	80250fe <LAN8742_Init+0xa0>
             {
               if(pObj->IO.ReadReg(pObj->DevAddr, LAN8742_BCR, &regvalue) < 0)
 80250e2:	696b      	ldr	r3, [r5, #20]
 80250e4:	aa01      	add	r2, sp, #4
 80250e6:	2100      	movs	r1, #0
 80250e8:	6828      	ldr	r0, [r5, #0]
 80250ea:	4798      	blx	r3
 80250ec:	2800      	cmp	r0, #0
 80250ee:	daee      	bge.n	80250ce <LAN8742_Init+0x70>
               {
                 status = LAN8742_STATUS_READ_ERROR;
 80250f0:	f06f 0604 	mvn.w	r6, #4
 80250f4:	e001      	b.n	80250fa <LAN8742_Init+0x9c>
       status = LAN8742_STATUS_ADDRESS_ERROR;
 80250f6:	f06f 0602 	mvn.w	r6, #2
         status = LAN8742_STATUS_WRITE_ERROR;
       }
     }
   }

   if(status == LAN8742_STATUS_OK)
 80250fa:	b97e      	cbnz	r6, 802511c <LAN8742_Init+0xbe>
 80250fc:	e003      	b.n	8025106 <LAN8742_Init+0xa8>
               status = LAN8742_STATUS_RESET_TIMEOUT;
 80250fe:	f06f 0601 	mvn.w	r6, #1
 8025102:	e7fa      	b.n	80250fa <LAN8742_Init+0x9c>
   int32_t status = LAN8742_STATUS_OK;
 8025104:	2600      	movs	r6, #0
   {
     tickstart =  pObj->IO.GetTick();
 8025106:	69ab      	ldr	r3, [r5, #24]
 8025108:	4798      	blx	r3
 802510a:	4604      	mov	r4, r0

     /* Wait for 2s to perform initialization */
     while((pObj->IO.GetTick() - tickstart) <= LAN8742_INIT_TO)
 802510c:	69ab      	ldr	r3, [r5, #24]
 802510e:	4798      	blx	r3
 8025110:	1b03      	subs	r3, r0, r4
 8025112:	f5b3 6ffa 	cmp.w	r3, #2000	@ 0x7d0
 8025116:	d9f9      	bls.n	802510c <LAN8742_Init+0xae>
     {
     }
     pObj->Is_Initialized = 1;
 8025118:	2301      	movs	r3, #1
 802511a:	606b      	str	r3, [r5, #4]
   }

   return status;
 }
 802511c:	4630      	mov	r0, r6
 802511e:	b002      	add	sp, #8
 8025120:	bd70      	pop	{r4, r5, r6, pc}
         status = LAN8742_STATUS_WRITE_ERROR;
 8025122:	f06f 0603 	mvn.w	r6, #3
 8025126:	e7f9      	b.n	802511c <LAN8742_Init+0xbe>
           status = LAN8742_STATUS_READ_ERROR;
 8025128:	f06f 0604 	mvn.w	r6, #4
   return status;
 802512c:	e7f6      	b.n	802511c <LAN8742_Init+0xbe>

0802512e <LAN8742_GetLinkState>:
  *         LAN8742_STATUS_10MBITS_HALFDUPLEX  if 10Mb/s HD
  *         LAN8742_STATUS_READ_ERROR if cannot read register
  *         LAN8742_STATUS_WRITE_ERROR if cannot write to register
  */
int32_t LAN8742_GetLinkState(lan8742_Object_t *pObj)
{
 802512e:	b510      	push	{r4, lr}
 8025130:	b082      	sub	sp, #8
 8025132:	4604      	mov	r4, r0
  uint32_t readval = 0;
 8025134:	2300      	movs	r3, #0
 8025136:	9301      	str	r3, [sp, #4]

  /* Read Status register  */
  if(pObj->IO.ReadReg(pObj->DevAddr, LAN8742_BSR, &readval) < 0)
 8025138:	6943      	ldr	r3, [r0, #20]
 802513a:	aa01      	add	r2, sp, #4
 802513c:	2101      	movs	r1, #1
 802513e:	6800      	ldr	r0, [r0, #0]
 8025140:	4798      	blx	r3
 8025142:	2800      	cmp	r0, #0
 8025144:	db39      	blt.n	80251ba <LAN8742_GetLinkState+0x8c>
  {
    return LAN8742_STATUS_READ_ERROR;
  }

  /* Read Status register again */
  if(pObj->IO.ReadReg(pObj->DevAddr, LAN8742_BSR, &readval) < 0)
 8025146:	6963      	ldr	r3, [r4, #20]
 8025148:	aa01      	add	r2, sp, #4
 802514a:	2101      	movs	r1, #1
 802514c:	6820      	ldr	r0, [r4, #0]
 802514e:	4798      	blx	r3
 8025150:	2800      	cmp	r0, #0
 8025152:	db35      	blt.n	80251c0 <LAN8742_GetLinkState+0x92>
  {
    return LAN8742_STATUS_READ_ERROR;
  }

  if((readval & LAN8742_BSR_LINK_STATUS) == 0)
 8025154:	9b01      	ldr	r3, [sp, #4]
 8025156:	f013 0f04 	tst.w	r3, #4
 802515a:	d034      	beq.n	80251c6 <LAN8742_GetLinkState+0x98>
    /* Return Link Down status */
    return LAN8742_STATUS_LINK_DOWN;
  }

  /* Check Auto negotiation */
  if(pObj->IO.ReadReg(pObj->DevAddr, LAN8742_BCR, &readval) < 0)
 802515c:	6963      	ldr	r3, [r4, #20]
 802515e:	aa01      	add	r2, sp, #4
 8025160:	2100      	movs	r1, #0
 8025162:	6820      	ldr	r0, [r4, #0]
 8025164:	4798      	blx	r3
 8025166:	2800      	cmp	r0, #0
 8025168:	db30      	blt.n	80251cc <LAN8742_GetLinkState+0x9e>
  {
    return LAN8742_STATUS_READ_ERROR;
  }

  if((readval & LAN8742_BCR_AUTONEGO_EN) != LAN8742_BCR_AUTONEGO_EN)
 802516a:	9b01      	ldr	r3, [sp, #4]
 802516c:	f413 5f80 	tst.w	r3, #4096	@ 0x1000
 8025170:	d10c      	bne.n	802518c <LAN8742_GetLinkState+0x5e>
  {
    if(((readval & LAN8742_BCR_SPEED_SELECT) == LAN8742_BCR_SPEED_SELECT) && ((readval & LAN8742_BCR_DUPLEX_MODE) == LAN8742_BCR_DUPLEX_MODE))
 8025172:	f403 5204 	and.w	r2, r3, #8448	@ 0x2100
 8025176:	f5b2 5f04 	cmp.w	r2, #8448	@ 0x2100
 802517a:	d02a      	beq.n	80251d2 <LAN8742_GetLinkState+0xa4>
    {
      return LAN8742_STATUS_100MBITS_FULLDUPLEX;
    }
    else if ((readval & LAN8742_BCR_SPEED_SELECT) == LAN8742_BCR_SPEED_SELECT)
 802517c:	f413 5f00 	tst.w	r3, #8192	@ 0x2000
 8025180:	d129      	bne.n	80251d6 <LAN8742_GetLinkState+0xa8>
    {
      return LAN8742_STATUS_100MBITS_HALFDUPLEX;
    }
    else if ((readval & LAN8742_BCR_DUPLEX_MODE) == LAN8742_BCR_DUPLEX_MODE)
 8025182:	f413 7f80 	tst.w	r3, #256	@ 0x100
 8025186:	d028      	beq.n	80251da <LAN8742_GetLinkState+0xac>
    {
      return LAN8742_STATUS_10MBITS_FULLDUPLEX;
 8025188:	2004      	movs	r0, #4
 802518a:	e01d      	b.n	80251c8 <LAN8742_GetLinkState+0x9a>
      return LAN8742_STATUS_10MBITS_HALFDUPLEX;
    }
  }
  else /* Auto Nego enabled */
  {
    if(pObj->IO.ReadReg(pObj->DevAddr, LAN8742_PHYSCSR, &readval) < 0)
 802518c:	6963      	ldr	r3, [r4, #20]
 802518e:	aa01      	add	r2, sp, #4
 8025190:	211f      	movs	r1, #31
 8025192:	6820      	ldr	r0, [r4, #0]
 8025194:	4798      	blx	r3
 8025196:	2800      	cmp	r0, #0
 8025198:	db21      	blt.n	80251de <LAN8742_GetLinkState+0xb0>
    {
      return LAN8742_STATUS_READ_ERROR;
    }

    /* Check if auto nego not done */
    if((readval & LAN8742_PHYSCSR_AUTONEGO_DONE) == 0)
 802519a:	9b01      	ldr	r3, [sp, #4]
 802519c:	f413 5f80 	tst.w	r3, #4096	@ 0x1000
 80251a0:	d020      	beq.n	80251e4 <LAN8742_GetLinkState+0xb6>
    {
      return LAN8742_STATUS_AUTONEGO_NOTDONE;
    }

    if((readval & LAN8742_PHYSCSR_HCDSPEEDMASK) == LAN8742_PHYSCSR_100BTX_FD)
 80251a2:	f003 031c 	and.w	r3, r3, #28
 80251a6:	2b18      	cmp	r3, #24
 80251a8:	d01e      	beq.n	80251e8 <LAN8742_GetLinkState+0xba>
    {
      return LAN8742_STATUS_100MBITS_FULLDUPLEX;
    }
    else if ((readval & LAN8742_PHYSCSR_HCDSPEEDMASK) == LAN8742_PHYSCSR_100BTX_HD)
 80251aa:	2b08      	cmp	r3, #8
 80251ac:	d01e      	beq.n	80251ec <LAN8742_GetLinkState+0xbe>
    {
      return LAN8742_STATUS_100MBITS_HALFDUPLEX;
    }
    else if ((readval & LAN8742_PHYSCSR_HCDSPEEDMASK) == LAN8742_PHYSCSR_10BT_FD)
 80251ae:	2b14      	cmp	r3, #20
 80251b0:	d001      	beq.n	80251b6 <LAN8742_GetLinkState+0x88>
    {
      return LAN8742_STATUS_10MBITS_FULLDUPLEX;
    }
    else
    {
      return LAN8742_STATUS_10MBITS_HALFDUPLEX;
 80251b2:	2005      	movs	r0, #5
 80251b4:	e008      	b.n	80251c8 <LAN8742_GetLinkState+0x9a>
      return LAN8742_STATUS_10MBITS_FULLDUPLEX;
 80251b6:	2004      	movs	r0, #4
 80251b8:	e006      	b.n	80251c8 <LAN8742_GetLinkState+0x9a>
    return LAN8742_STATUS_READ_ERROR;
 80251ba:	f06f 0004 	mvn.w	r0, #4
 80251be:	e003      	b.n	80251c8 <LAN8742_GetLinkState+0x9a>
    return LAN8742_STATUS_READ_ERROR;
 80251c0:	f06f 0004 	mvn.w	r0, #4
 80251c4:	e000      	b.n	80251c8 <LAN8742_GetLinkState+0x9a>
    return LAN8742_STATUS_LINK_DOWN;
 80251c6:	2001      	movs	r0, #1
    }
  }
}
 80251c8:	b002      	add	sp, #8
 80251ca:	bd10      	pop	{r4, pc}
    return LAN8742_STATUS_READ_ERROR;
 80251cc:	f06f 0004 	mvn.w	r0, #4
 80251d0:	e7fa      	b.n	80251c8 <LAN8742_GetLinkState+0x9a>
      return LAN8742_STATUS_100MBITS_FULLDUPLEX;
 80251d2:	2002      	movs	r0, #2
 80251d4:	e7f8      	b.n	80251c8 <LAN8742_GetLinkState+0x9a>
      return LAN8742_STATUS_100MBITS_HALFDUPLEX;
 80251d6:	2003      	movs	r0, #3
 80251d8:	e7f6      	b.n	80251c8 <LAN8742_GetLinkState+0x9a>
      return LAN8742_STATUS_10MBITS_HALFDUPLEX;
 80251da:	2005      	movs	r0, #5
 80251dc:	e7f4      	b.n	80251c8 <LAN8742_GetLinkState+0x9a>
      return LAN8742_STATUS_READ_ERROR;
 80251de:	f06f 0004 	mvn.w	r0, #4
 80251e2:	e7f1      	b.n	80251c8 <LAN8742_GetLinkState+0x9a>
      return LAN8742_STATUS_AUTONEGO_NOTDONE;
 80251e4:	2006      	movs	r0, #6
 80251e6:	e7ef      	b.n	80251c8 <LAN8742_GetLinkState+0x9a>
      return LAN8742_STATUS_100MBITS_FULLDUPLEX;
 80251e8:	2002      	movs	r0, #2
 80251ea:	e7ed      	b.n	80251c8 <LAN8742_GetLinkState+0x9a>
      return LAN8742_STATUS_100MBITS_HALFDUPLEX;
 80251ec:	2003      	movs	r0, #3
 80251ee:	e7eb      	b.n	80251c8 <LAN8742_GetLinkState+0x9a>

080251f0 <rxbuf_alloc>:
{
  uint8_t *     result      = NULL;
  const uint8_t totalRxBufs = sizeof(rxBufs)/sizeof(rxBufs[0]);

  /* Find the next free buffer. */
  for (uint8_t rxBufIdx = 0; rxBufIdx < totalRxBufs; rxBufIdx++)
 80251f0:	2300      	movs	r3, #0
 80251f2:	2b07      	cmp	r3, #7
 80251f4:	d813      	bhi.n	802521e <rxbuf_alloc+0x2e>
  {
    /* Is the buffer at this index available? */
    if ((rxBufAllocFlags & (1 << rxBufIdx)) == 0U)
 80251f6:	2201      	movs	r2, #1
 80251f8:	409a      	lsls	r2, r3
 80251fa:	490a      	ldr	r1, [pc, #40]	@ (8025224 <rxbuf_alloc+0x34>)
 80251fc:	6809      	ldr	r1, [r1, #0]
 80251fe:	420a      	tst	r2, r1
 8025200:	d002      	beq.n	8025208 <rxbuf_alloc+0x18>
  for (uint8_t rxBufIdx = 0; rxBufIdx < totalRxBufs; rxBufIdx++)
 8025202:	3301      	adds	r3, #1
 8025204:	b2db      	uxtb	r3, r3
 8025206:	e7f4      	b.n	80251f2 <rxbuf_alloc+0x2>
    {
      /* Flag this one as allocated. */
      rxBufAllocFlags |= (1 << rxBufIdx);
 8025208:	430a      	orrs	r2, r1
 802520a:	4906      	ldr	r1, [pc, #24]	@ (8025224 <rxbuf_alloc+0x34>)
 802520c:	600a      	str	r2, [r1, #0]
      /* Update the result. */
      result = rxBufs[rxBufIdx].data;
 802520e:	f44f 62c4 	mov.w	r2, #1568	@ 0x620
 8025212:	fb02 f003 	mul.w	r0, r2, r3
 8025216:	3020      	adds	r0, #32
 8025218:	4b03      	ldr	r3, [pc, #12]	@ (8025228 <rxbuf_alloc+0x38>)
 802521a:	4418      	add	r0, r3
      /* Stop the loop. */
      break;
 802521c:	4770      	bx	lr
  uint8_t *     result      = NULL;
 802521e:	2000      	movs	r0, #0
    }
  }
  /* Give the result back to the caller. */
  return result;
} /*** end of rxbuf_alloc ***/
 8025220:	4770      	bx	lr
 8025222:	bf00      	nop
 8025224:	240001f0 	.word	0x240001f0
 8025228:	30040200 	.word	0x30040200

0802522c <rxbuf_free>:
static void rxbuf_free(uint8_t * rx_buf_data)
{
  const uint8_t totalRxBufs = sizeof(rxBufs)/sizeof(rxBufs[0]);

  /* Find the index of the specified buffer in the pool. */
  for (uint8_t rxBufIdx = 0; rxBufIdx < totalRxBufs; rxBufIdx++)
 802522c:	2200      	movs	r2, #0
 802522e:	2a07      	cmp	r2, #7
 8025230:	d814      	bhi.n	802525c <rxbuf_free+0x30>
  {
    /* Is this the one that should be released? */
    if (rxBufs[rxBufIdx].data == rx_buf_data)
 8025232:	f44f 63c4 	mov.w	r3, #1568	@ 0x620
 8025236:	fb02 f303 	mul.w	r3, r2, r3
 802523a:	3320      	adds	r3, #32
 802523c:	4908      	ldr	r1, [pc, #32]	@ (8025260 <rxbuf_free+0x34>)
 802523e:	440b      	add	r3, r1
 8025240:	4283      	cmp	r3, r0
 8025242:	d002      	beq.n	802524a <rxbuf_free+0x1e>
  for (uint8_t rxBufIdx = 0; rxBufIdx < totalRxBufs; rxBufIdx++)
 8025244:	3201      	adds	r2, #1
 8025246:	b2d2      	uxtb	r2, r2
 8025248:	e7f1      	b.n	802522e <rxbuf_free+0x2>
    {
      /* Flag this one as free. */
      rxBufAllocFlags &= ~(1 << rxBufIdx);
 802524a:	2301      	movs	r3, #1
 802524c:	fa03 f202 	lsl.w	r2, r3, r2
 8025250:	4904      	ldr	r1, [pc, #16]	@ (8025264 <rxbuf_free+0x38>)
 8025252:	680b      	ldr	r3, [r1, #0]
 8025254:	ea23 0302 	bic.w	r3, r3, r2
 8025258:	600b      	str	r3, [r1, #0]
      /* Stop the loop. */
      break;
 802525a:	4770      	bx	lr
    }
  }
} /*** end of rxbuf_free ***/
 802525c:	4770      	bx	lr
 802525e:	bf00      	nop
 8025260:	30040200 	.word	0x30040200
 8025264:	240001f0 	.word	0x240001f0

08025268 <txbuf_alloc>:
{
  uint8_t *     result      = NULL;
  const uint8_t totalTxBufs = sizeof(txBufs)/sizeof(txBufs[0]);

  /* Find the next free buffer. */
  for (uint8_t txBufIdx = 0; txBufIdx < totalTxBufs; txBufIdx++)
 8025268:	2300      	movs	r3, #0
 802526a:	2b01      	cmp	r3, #1
 802526c:	d811      	bhi.n	8025292 <txbuf_alloc+0x2a>
  {
    /* Is the buffer at this index available? */
    if ((txBufAllocFlags & (1 << txBufIdx)) == 0U)
 802526e:	2201      	movs	r2, #1
 8025270:	409a      	lsls	r2, r3
 8025272:	4909      	ldr	r1, [pc, #36]	@ (8025298 <txbuf_alloc+0x30>)
 8025274:	6809      	ldr	r1, [r1, #0]
 8025276:	420a      	tst	r2, r1
 8025278:	d002      	beq.n	8025280 <txbuf_alloc+0x18>
  for (uint8_t txBufIdx = 0; txBufIdx < totalTxBufs; txBufIdx++)
 802527a:	3301      	adds	r3, #1
 802527c:	b2db      	uxtb	r3, r3
 802527e:	e7f4      	b.n	802526a <txbuf_alloc+0x2>
    {
      /* Flag this one as allocated. */
      txBufAllocFlags |= (1 << txBufIdx);
 8025280:	430a      	orrs	r2, r1
 8025282:	4905      	ldr	r1, [pc, #20]	@ (8025298 <txbuf_alloc+0x30>)
 8025284:	600a      	str	r2, [r1, #0]
      /* Update the result. */
      result = txBufs[txBufIdx].data;
 8025286:	eb03 0343 	add.w	r3, r3, r3, lsl #1
 802528a:	0258      	lsls	r0, r3, #9
 802528c:	4b03      	ldr	r3, [pc, #12]	@ (802529c <txbuf_alloc+0x34>)
 802528e:	4418      	add	r0, r3
      /* Stop the loop. */
      break;
 8025290:	4770      	bx	lr
  uint8_t *     result      = NULL;
 8025292:	2000      	movs	r0, #0
    }
  }
  /* Give the result back to the caller. */
  return result;
} /*** end of txbuf_alloc ***/
 8025294:	4770      	bx	lr
 8025296:	bf00      	nop
 8025298:	240001ec 	.word	0x240001ec
 802529c:	30044200 	.word	0x30044200

080252a0 <txbuf_free>:
static void txbuf_free(uint8_t * tx_buf_data)
{
  const uint8_t totalTxBufs = sizeof(txBufs)/sizeof(txBufs[0]);

  /* Find the index of the specified buffer in the pool. */
  for (uint8_t txBufIdx = 0; txBufIdx < totalTxBufs; txBufIdx++)
 80252a0:	2300      	movs	r3, #0
 80252a2:	2b01      	cmp	r3, #1
 80252a4:	d811      	bhi.n	80252ca <txbuf_free+0x2a>
  {
    /* Is this the one that should be released? */
    if (txBufs[txBufIdx].data == tx_buf_data)
 80252a6:	eb03 0143 	add.w	r1, r3, r3, lsl #1
 80252aa:	4a08      	ldr	r2, [pc, #32]	@ (80252cc <txbuf_free+0x2c>)
 80252ac:	eb02 2241 	add.w	r2, r2, r1, lsl #9
 80252b0:	4282      	cmp	r2, r0
 80252b2:	d002      	beq.n	80252ba <txbuf_free+0x1a>
  for (uint8_t txBufIdx = 0; txBufIdx < totalTxBufs; txBufIdx++)
 80252b4:	3301      	adds	r3, #1
 80252b6:	b2db      	uxtb	r3, r3
 80252b8:	e7f3      	b.n	80252a2 <txbuf_free+0x2>
    {
      /* Flag this one as free. */
      txBufAllocFlags &= ~(1 << txBufIdx);
 80252ba:	2201      	movs	r2, #1
 80252bc:	409a      	lsls	r2, r3
 80252be:	4904      	ldr	r1, [pc, #16]	@ (80252d0 <txbuf_free+0x30>)
 80252c0:	680b      	ldr	r3, [r1, #0]
 80252c2:	ea23 0302 	bic.w	r3, r3, r2
 80252c6:	600b      	str	r3, [r1, #0]
      /* Stop the loop. */
      break;
 80252c8:	4770      	bx	lr
    }
  }
} /*** end of txbuf_free ***/
 80252ca:	4770      	bx	lr
 80252cc:	30044200 	.word	0x30044200
 80252d0:	240001ec 	.word	0x240001ec

080252d4 <ETH_PHY_IO_DeInit>:
****************************************************************************************/
static int32_t ETH_PHY_IO_DeInit(void)
{
  /* Nothing to do for this specific PHY. */
  return 0;
} /*** end of ETH_PHY_IO_DeInit ***/
 80252d4:	2000      	movs	r0, #0
 80252d6:	4770      	bx	lr

080252d8 <ETH_PHY_IO_GetTick>:
** \brief     Get the time in milliseconds used for internal PHY driver process.
** \return    Current system time in milliseconds.
**
****************************************************************************************/
static int32_t ETH_PHY_IO_GetTick(void)
{
 80252d8:	b508      	push	{r3, lr}
  return HAL_GetTick();
 80252da:	f7fb fea5 	bl	8021028 <HAL_GetTick>
} /*** end of ETH_PHY_IO_GetTick ***/
 80252de:	bd08      	pop	{r3, pc}

080252e0 <ETH_PHY_IO_ReadReg>:
{
 80252e0:	b508      	push	{r3, lr}
 80252e2:	4613      	mov	r3, r2
  if (HAL_ETH_ReadPHYRegister(&heth, devAddr, regAddr, regValPtr) != HAL_OK)
 80252e4:	460a      	mov	r2, r1
 80252e6:	4601      	mov	r1, r0
 80252e8:	4803      	ldr	r0, [pc, #12]	@ (80252f8 <ETH_PHY_IO_ReadReg+0x18>)
 80252ea:	f7fc fc99 	bl	8021c20 <HAL_ETH_ReadPHYRegister>
 80252ee:	b900      	cbnz	r0, 80252f2 <ETH_PHY_IO_ReadReg+0x12>
} /*** end of ETH_PHY_IO_ReadReg ***/
 80252f0:	bd08      	pop	{r3, pc}
    result = -1;
 80252f2:	f04f 30ff 	mov.w	r0, #4294967295
  return result;
 80252f6:	e7fb      	b.n	80252f0 <ETH_PHY_IO_ReadReg+0x10>
 80252f8:	24000138 	.word	0x24000138

080252fc <ETH_PHY_IO_WriteReg>:
{
 80252fc:	b508      	push	{r3, lr}
 80252fe:	4613      	mov	r3, r2
  if (HAL_ETH_WritePHYRegister(&heth, devAddr, regAddr, regVal) != HAL_OK)
 8025300:	460a      	mov	r2, r1
 8025302:	4601      	mov	r1, r0
 8025304:	4803      	ldr	r0, [pc, #12]	@ (8025314 <ETH_PHY_IO_WriteReg+0x18>)
 8025306:	f7fc fcbb 	bl	8021c80 <HAL_ETH_WritePHYRegister>
 802530a:	b900      	cbnz	r0, 802530e <ETH_PHY_IO_WriteReg+0x12>
} /*** end of ETH_PHY_IO_WriteReg ***/
 802530c:	bd08      	pop	{r3, pc}
    result = -1;
 802530e:	f04f 30ff 	mov.w	r0, #4294967295
  return result;
 8025312:	e7fb      	b.n	802530c <ETH_PHY_IO_WriteReg+0x10>
 8025314:	24000138 	.word	0x24000138

08025318 <ETH_PHY_IO_Init>:
{
 8025318:	b508      	push	{r3, lr}
  HAL_ETH_SetMDIOClockRange(&heth);
 802531a:	4802      	ldr	r0, [pc, #8]	@ (8025324 <ETH_PHY_IO_Init+0xc>)
 802531c:	f7fc fde6 	bl	8021eec <HAL_ETH_SetMDIOClockRange>
} /*** end of ETH_PHY_IO_Init ***/
 8025320:	2000      	movs	r0, #0
 8025322:	bd08      	pop	{r3, pc}
 8025324:	24000138 	.word	0x24000138

08025328 <netdev_init>:
{
 8025328:	b5f0      	push	{r4, r5, r6, r7, lr}
 802532a:	b09b      	sub	sp, #108	@ 0x6c
  ETH_MACConfigTypeDef macConf = {0};
 802532c:	2264      	movs	r2, #100	@ 0x64
 802532e:	2100      	movs	r1, #0
 8025330:	a801      	add	r0, sp, #4
 8025332:	f001 fd28 	bl	8026d86 <memset>
  macAddress.addr[0] = NETDEV_DEFAULT_MACADDR0;
 8025336:	4b26      	ldr	r3, [pc, #152]	@ (80253d0 <netdev_init+0xa8>)
 8025338:	2208      	movs	r2, #8
 802533a:	701a      	strb	r2, [r3, #0]
  macAddress.addr[1] = NETDEV_DEFAULT_MACADDR1;
 802533c:	2200      	movs	r2, #0
 802533e:	705a      	strb	r2, [r3, #1]
  macAddress.addr[2] = NETDEV_DEFAULT_MACADDR2;
 8025340:	2227      	movs	r2, #39	@ 0x27
 8025342:	709a      	strb	r2, [r3, #2]
  macAddress.addr[3] = NETDEV_DEFAULT_MACADDR3;
 8025344:	2269      	movs	r2, #105	@ 0x69
 8025346:	70da      	strb	r2, [r3, #3]
  macAddress.addr[4] = NETDEV_DEFAULT_MACADDR4;
 8025348:	225b      	movs	r2, #91	@ 0x5b
 802534a:	711a      	strb	r2, [r3, #4]
  macAddress.addr[5] = NETDEV_DEFAULT_MACADDR5;
 802534c:	2245      	movs	r2, #69	@ 0x45
 802534e:	715a      	strb	r2, [r3, #5]
  heth.Instance = ETH;
 8025350:	4820      	ldr	r0, [pc, #128]	@ (80253d4 <netdev_init+0xac>)
 8025352:	4a21      	ldr	r2, [pc, #132]	@ (80253d8 <netdev_init+0xb0>)
 8025354:	6002      	str	r2, [r0, #0]
  heth.Init.MACAddr = &macAddress.addr[0];
 8025356:	6043      	str	r3, [r0, #4]
  heth.Init.MediaInterface = HAL_ETH_RMII_MODE;
 8025358:	2301      	movs	r3, #1
 802535a:	7203      	strb	r3, [r0, #8]
  heth.Init.TxDesc = DMATxDscrTab;
 802535c:	4b1f      	ldr	r3, [pc, #124]	@ (80253dc <netdev_init+0xb4>)
 802535e:	60c3      	str	r3, [r0, #12]
  heth.Init.RxDesc = DMARxDscrTab;
 8025360:	4b1f      	ldr	r3, [pc, #124]	@ (80253e0 <netdev_init+0xb8>)
 8025362:	6103      	str	r3, [r0, #16]
  heth.Init.RxBuffLen = (UIP_CONF_BUFFER_SIZE + 31) & ~31;
 8025364:	f44f 63c0 	mov.w	r3, #1536	@ 0x600
 8025368:	6143      	str	r3, [r0, #20]
  (void)HAL_ETH_Init(&heth);
 802536a:	f7fc fdf3 	bl	8021f54 <HAL_ETH_Init>
  LAN8742_RegisterBusIO(&lan8742Object, &lan8742IOCtx);
 802536e:	4c1d      	ldr	r4, [pc, #116]	@ (80253e4 <netdev_init+0xbc>)
 8025370:	491d      	ldr	r1, [pc, #116]	@ (80253e8 <netdev_init+0xc0>)
 8025372:	4620      	mov	r0, r4
 8025374:	f7ff fe54 	bl	8025020 <LAN8742_RegisterBusIO>
  LAN8742_Init(&lan8742Object);
 8025378:	4620      	mov	r0, r4
 802537a:	f7ff fe70 	bl	802505e <LAN8742_Init>
  phyLinkState = LAN8742_GetLinkState(&lan8742Object);
 802537e:	4620      	mov	r0, r4
 8025380:	f7ff fed5 	bl	802512e <LAN8742_GetLinkState>
  switch (phyLinkState)
 8025384:	2804      	cmp	r0, #4
 8025386:	d007      	beq.n	8025398 <netdev_init+0x70>
 8025388:	2805      	cmp	r0, #5
 802538a:	d009      	beq.n	80253a0 <netdev_init+0x78>
 802538c:	2803      	cmp	r0, #3
 802538e:	d11a      	bne.n	80253c6 <netdev_init+0x9e>
      speed = ETH_SPEED_100M;
 8025390:	f44f 4680 	mov.w	r6, #16384	@ 0x4000
      duplex = ETH_HALFDUPLEX_MODE;
 8025394:	2700      	movs	r7, #0
 8025396:	e005      	b.n	80253a4 <netdev_init+0x7c>
      speed = ETH_SPEED_10M;
 8025398:	2600      	movs	r6, #0
      duplex = ETH_FULLDUPLEX_MODE;
 802539a:	f44f 5700 	mov.w	r7, #8192	@ 0x2000
 802539e:	e001      	b.n	80253a4 <netdev_init+0x7c>
      speed = ETH_SPEED_10M;
 80253a0:	2600      	movs	r6, #0
      duplex = ETH_HALFDUPLEX_MODE;
 80253a2:	4637      	mov	r7, r6
  HAL_ETH_GetMACConfig(&heth, &macConf);
 80253a4:	ad01      	add	r5, sp, #4
 80253a6:	4c0b      	ldr	r4, [pc, #44]	@ (80253d4 <netdev_init+0xac>)
 80253a8:	4629      	mov	r1, r5
 80253aa:	4620      	mov	r0, r4
 80253ac:	f7fc fc9c 	bl	8021ce8 <HAL_ETH_GetMACConfig>
  macConf.DuplexMode = duplex;
 80253b0:	9707      	str	r7, [sp, #28]
  macConf.Speed = speed;
 80253b2:	9606      	str	r6, [sp, #24]
  HAL_ETH_SetMACConfig(&heth, &macConf);
 80253b4:	4629      	mov	r1, r5
 80253b6:	4620      	mov	r0, r4
 80253b8:	f7fc fd89 	bl	8021ece <HAL_ETH_SetMACConfig>
  HAL_ETH_Start(&heth);
 80253bc:	4620      	mov	r0, r4
 80253be:	f7fc faf5 	bl	80219ac <HAL_ETH_Start>
} /*** end of netdev_init ***/
 80253c2:	b01b      	add	sp, #108	@ 0x6c
 80253c4:	bdf0      	pop	{r4, r5, r6, r7, pc}
  switch (phyLinkState)
 80253c6:	f44f 4680 	mov.w	r6, #16384	@ 0x4000
 80253ca:	f44f 5700 	mov.w	r7, #8192	@ 0x2000
 80253ce:	e7e9      	b.n	80253a4 <netdev_init+0x7c>
 80253d0:	24000214 	.word	0x24000214
 80253d4:	24000138 	.word	0x24000138
 80253d8:	40028000 	.word	0x40028000
 80253dc:	30040100 	.word	0x30040100
 80253e0:	30040000 	.word	0x30040000
 80253e4:	240001f4 	.word	0x240001f4
 80253e8:	24000050 	.word	0x24000050

080253ec <netdev_init_mac>:
  uip_setethaddr(macAddress);
 80253ec:	4a07      	ldr	r2, [pc, #28]	@ (802540c <netdev_init_mac+0x20>)
 80253ee:	7811      	ldrb	r1, [r2, #0]
 80253f0:	4b07      	ldr	r3, [pc, #28]	@ (8025410 <netdev_init_mac+0x24>)
 80253f2:	7019      	strb	r1, [r3, #0]
 80253f4:	7851      	ldrb	r1, [r2, #1]
 80253f6:	7059      	strb	r1, [r3, #1]
 80253f8:	7891      	ldrb	r1, [r2, #2]
 80253fa:	7099      	strb	r1, [r3, #2]
 80253fc:	78d1      	ldrb	r1, [r2, #3]
 80253fe:	70d9      	strb	r1, [r3, #3]
 8025400:	7911      	ldrb	r1, [r2, #4]
 8025402:	7119      	strb	r1, [r3, #4]
 8025404:	7952      	ldrb	r2, [r2, #5]
 8025406:	715a      	strb	r2, [r3, #5]
} /*** end of netdev_init_mac ***/
 8025408:	4770      	bx	lr
 802540a:	bf00      	nop
 802540c:	24000214 	.word	0x24000214
 8025410:	240008d4 	.word	0x240008d4

08025414 <netdev_get_mac>:
  mac_addr[0] = macAddress.addr[0];
 8025414:	4b06      	ldr	r3, [pc, #24]	@ (8025430 <netdev_get_mac+0x1c>)
 8025416:	781a      	ldrb	r2, [r3, #0]
 8025418:	7002      	strb	r2, [r0, #0]
  mac_addr[1] = macAddress.addr[1];
 802541a:	785a      	ldrb	r2, [r3, #1]
 802541c:	7042      	strb	r2, [r0, #1]
  mac_addr[2] = macAddress.addr[2];
 802541e:	789a      	ldrb	r2, [r3, #2]
 8025420:	7082      	strb	r2, [r0, #2]
  mac_addr[3] = macAddress.addr[3];
 8025422:	78da      	ldrb	r2, [r3, #3]
 8025424:	70c2      	strb	r2, [r0, #3]
  mac_addr[4] = macAddress.addr[4];
 8025426:	791a      	ldrb	r2, [r3, #4]
 8025428:	7102      	strb	r2, [r0, #4]
  mac_addr[5] = macAddress.addr[5];
 802542a:	795b      	ldrb	r3, [r3, #5]
 802542c:	7143      	strb	r3, [r0, #5]
} /*** end of netdev_get_mac ***/
 802542e:	4770      	bx	lr
 8025430:	24000214 	.word	0x24000214

08025434 <netdev_read>:
{
 8025434:	b530      	push	{r4, r5, lr}
 8025436:	b083      	sub	sp, #12
  tRxBuf       * rxBuf  = NULL;
 8025438:	2300      	movs	r3, #0
 802543a:	9301      	str	r3, [sp, #4]
  if (HAL_ETH_ReadData(&heth, (void **)&rxBuf) == HAL_OK)
 802543c:	a901      	add	r1, sp, #4
 802543e:	4814      	ldr	r0, [pc, #80]	@ (8025490 <netdev_read+0x5c>)
 8025440:	f7fc fb5c 	bl	8021afc <HAL_ETH_ReadData>
 8025444:	b9f8      	cbnz	r0, 8025486 <netdev_read+0x52>
    if (rxBuf != NULL)
 8025446:	9c01      	ldr	r4, [sp, #4]
 8025448:	b10c      	cbz	r4, 802544e <netdev_read+0x1a>
  unsigned int   result = 0;
 802544a:	2500      	movs	r5, #0
 802544c:	e006      	b.n	802545c <netdev_read+0x28>
 802544e:	2500      	movs	r5, #0
 8025450:	e01a      	b.n	8025488 <netdev_read+0x54>
        rxbuf_free(p->data);
 8025452:	f104 0020 	add.w	r0, r4, #32
 8025456:	f7ff fee9 	bl	802522c <rxbuf_free>
      for (tRxBuf * p = rxBuf; p != NULL; p = p->next)
 802545a:	6824      	ldr	r4, [r4, #0]
 802545c:	b1a4      	cbz	r4, 8025488 <netdev_read+0x54>
        if ((p->length > 0U) && (p->total_length > 0U) &&
 802545e:	88a2      	ldrh	r2, [r4, #4]
 8025460:	2a00      	cmp	r2, #0
 8025462:	d0f6      	beq.n	8025452 <netdev_read+0x1e>
 8025464:	88e3      	ldrh	r3, [r4, #6]
 8025466:	2b00      	cmp	r3, #0
 8025468:	d0f3      	beq.n	8025452 <netdev_read+0x1e>
 802546a:	429a      	cmp	r2, r3
 802546c:	d8f1      	bhi.n	8025452 <netdev_read+0x1e>
            (p->length <= p->total_length) && (p->total_length <= UIP_CONF_BUFFER_SIZE))
 802546e:	f5b3 6fbe 	cmp.w	r3, #1520	@ 0x5f0
 8025472:	d8ee      	bhi.n	8025452 <netdev_read+0x1e>
          memcpy(&uip_buf[result], p->data, p->length);
 8025474:	f104 0120 	add.w	r1, r4, #32
 8025478:	4806      	ldr	r0, [pc, #24]	@ (8025494 <netdev_read+0x60>)
 802547a:	4428      	add	r0, r5
 802547c:	f001 fcb0 	bl	8026de0 <memcpy>
          result += p->length;
 8025480:	88a3      	ldrh	r3, [r4, #4]
 8025482:	441d      	add	r5, r3
 8025484:	e7e5      	b.n	8025452 <netdev_read+0x1e>
  unsigned int   result = 0;
 8025486:	2500      	movs	r5, #0
} /*** end of netdev_read ***/
 8025488:	4628      	mov	r0, r5
 802548a:	b003      	add	sp, #12
 802548c:	bd30      	pop	{r4, r5, pc}
 802548e:	bf00      	nop
 8025490:	24000138 	.word	0x24000138
 8025494:	240002e0 	.word	0x240002e0

08025498 <netdev_send>:
{
 8025498:	b530      	push	{r4, r5, lr}
 802549a:	b093      	sub	sp, #76	@ 0x4c
  ETH_TxPacketConfig   txPacketConfig = {0};
 802549c:	2238      	movs	r2, #56	@ 0x38
 802549e:	2100      	movs	r1, #0
 80254a0:	a804      	add	r0, sp, #16
 80254a2:	f001 fc70 	bl	8026d86 <memset>
  ETH_BufferTypeDef    txBuffer       = {0};
 80254a6:	2300      	movs	r3, #0
 80254a8:	9301      	str	r3, [sp, #4]
 80254aa:	9302      	str	r3, [sp, #8]
 80254ac:	9303      	str	r3, [sp, #12]
  txData = txbuf_alloc();
 80254ae:	f7ff fedb 	bl	8025268 <txbuf_alloc>
  if (txData != NULL)
 80254b2:	b1e0      	cbz	r0, 80254ee <netdev_send+0x56>
 80254b4:	4604      	mov	r4, r0
    memcpy(txData, uip_buf, uip_len);
 80254b6:	4d0f      	ldr	r5, [pc, #60]	@ (80254f4 <netdev_send+0x5c>)
 80254b8:	882a      	ldrh	r2, [r5, #0]
 80254ba:	490f      	ldr	r1, [pc, #60]	@ (80254f8 <netdev_send+0x60>)
 80254bc:	f001 fc90 	bl	8026de0 <memcpy>
    txBuffer.buffer = txData;
 80254c0:	9401      	str	r4, [sp, #4]
    txBuffer.len    = uip_len;
 80254c2:	882b      	ldrh	r3, [r5, #0]
 80254c4:	9302      	str	r3, [sp, #8]
    txBuffer.next   = NULL;
 80254c6:	2200      	movs	r2, #0
 80254c8:	9203      	str	r2, [sp, #12]
    txPacketConfig.Attributes   = ETH_TX_PACKETS_FEATURES_CSUM |
 80254ca:	2121      	movs	r1, #33	@ 0x21
 80254cc:	9104      	str	r1, [sp, #16]
    txPacketConfig.ChecksumCtrl = ETH_CHECKSUM_IPHDR_PAYLOAD_INSERT_PHDR_CALC;
 80254ce:	f44f 3140 	mov.w	r1, #196608	@ 0x30000
 80254d2:	9109      	str	r1, [sp, #36]	@ 0x24
    txPacketConfig.CRCPadCtrl   = ETH_CRC_PAD_INSERT;
 80254d4:	9208      	str	r2, [sp, #32]
    txPacketConfig.Length       = uip_len;
 80254d6:	9305      	str	r3, [sp, #20]
    txPacketConfig.TxBuffer     = &txBuffer;
 80254d8:	ab01      	add	r3, sp, #4
 80254da:	9306      	str	r3, [sp, #24]
    txPacketConfig.pData        = txBuffer.buffer;
 80254dc:	9411      	str	r4, [sp, #68]	@ 0x44
    HAL_ETH_Transmit(&heth, &txPacketConfig, NETDEV_TX_PACKET_TIMEOUT_MS);
 80254de:	22fa      	movs	r2, #250	@ 0xfa
 80254e0:	a904      	add	r1, sp, #16
 80254e2:	4806      	ldr	r0, [pc, #24]	@ (80254fc <netdev_send+0x64>)
 80254e4:	f7fc faa2 	bl	8021a2c <HAL_ETH_Transmit>
    txbuf_free(txData);
 80254e8:	4620      	mov	r0, r4
 80254ea:	f7ff fed9 	bl	80252a0 <txbuf_free>
} /*** end of netdev_send ***/
 80254ee:	b013      	add	sp, #76	@ 0x4c
 80254f0:	bd30      	pop	{r4, r5, pc}
 80254f2:	bf00      	nop
 80254f4:	240002d4 	.word	0x240002d4
 80254f8:	240002e0 	.word	0x240002e0
 80254fc:	24000138 	.word	0x24000138

08025500 <HAL_ETH_RxAllocateCallback>:
{
 8025500:	b510      	push	{r4, lr}
 8025502:	4604      	mov	r4, r0
  *buff = rxbuf_alloc();
 8025504:	f7ff fe74 	bl	80251f0 <rxbuf_alloc>
 8025508:	6020      	str	r0, [r4, #0]
} /*** end of HAL_ETH_RxAllocateCallback ***/
 802550a:	bd10      	pop	{r4, pc}

0802550c <HAL_ETH_RxLinkCallback>:
{
 802550c:	b430      	push	{r4, r5}
  p = (tRxBuf *)(buff - offsetof(tRxBuf, data));
 802550e:	f1a2 0420 	sub.w	r4, r2, #32
  p->next = NULL;
 8025512:	2500      	movs	r5, #0
 8025514:	f842 5c20 	str.w	r5, [r2, #-32]
  p->total_length = 0;
 8025518:	f822 5c1a 	strh.w	r5, [r2, #-26]
  p->length = length;
 802551c:	f822 3c1c 	strh.w	r3, [r2, #-28]
  if (!*ppStart)
 8025520:	6805      	ldr	r5, [r0, #0]
 8025522:	b125      	cbz	r5, 802552e <HAL_ETH_RxLinkCallback+0x22>
    (*ppEnd)->next = p;
 8025524:	680d      	ldr	r5, [r1, #0]
 8025526:	602c      	str	r4, [r5, #0]
  *ppEnd = p;
 8025528:	600c      	str	r4, [r1, #0]
  for (p = *ppStart; p != NULL; p = p->next)
 802552a:	6801      	ldr	r1, [r0, #0]
 802552c:	e005      	b.n	802553a <HAL_ETH_RxLinkCallback+0x2e>
    *ppStart = p;
 802552e:	6004      	str	r4, [r0, #0]
 8025530:	e7fa      	b.n	8025528 <HAL_ETH_RxLinkCallback+0x1c>
    p->total_length += length;
 8025532:	88c8      	ldrh	r0, [r1, #6]
 8025534:	4418      	add	r0, r3
 8025536:	80c8      	strh	r0, [r1, #6]
  for (p = *ppStart; p != NULL; p = p->next)
 8025538:	6809      	ldr	r1, [r1, #0]
 802553a:	2900      	cmp	r1, #0
 802553c:	d1f9      	bne.n	8025532 <HAL_ETH_RxLinkCallback+0x26>
  if ((SCB->CCR & SCB_CCR_DC_Msk) != 0U)
 802553e:	490c      	ldr	r1, [pc, #48]	@ (8025570 <HAL_ETH_RxLinkCallback+0x64>)
 8025540:	6949      	ldr	r1, [r1, #20]
 8025542:	f411 3f80 	tst.w	r1, #65536	@ 0x10000
 8025546:	d011      	beq.n	802556c <HAL_ETH_RxLinkCallback+0x60>
  \param[in]   dsize   size of memory block (in number of bytes)
*/
__STATIC_FORCEINLINE void SCB_InvalidateDCache_by_Addr (volatile void *addr, int32_t dsize)
{
  #if defined (__DCACHE_PRESENT) && (__DCACHE_PRESENT == 1U)
    if ( dsize > 0 ) {
 8025548:	b183      	cbz	r3, 802556c <HAL_ETH_RxLinkCallback+0x60>
       int32_t op_size = dsize + (((uint32_t)addr) & (__SCB_DCACHE_LINE_SIZE - 1U));
 802554a:	4611      	mov	r1, r2
 802554c:	f002 021f 	and.w	r2, r2, #31
 8025550:	4413      	add	r3, r2
 8025552:	f3bf 8f4f 	dsb	sy
      uint32_t op_addr = (uint32_t)addr /* & ~(__SCB_DCACHE_LINE_SIZE - 1U) */;

      __DSB();

      do {
        SCB->DCIMVAC = op_addr;             /* register accepts only 32byte aligned values, only bits 31..5 are valid */
 8025556:	4a06      	ldr	r2, [pc, #24]	@ (8025570 <HAL_ETH_RxLinkCallback+0x64>)
 8025558:	f8c2 125c 	str.w	r1, [r2, #604]	@ 0x25c
        op_addr += __SCB_DCACHE_LINE_SIZE;
 802555c:	3120      	adds	r1, #32
        op_size -= __SCB_DCACHE_LINE_SIZE;
 802555e:	3b20      	subs	r3, #32
      } while ( op_size > 0 );
 8025560:	2b00      	cmp	r3, #0
 8025562:	dcf8      	bgt.n	8025556 <HAL_ETH_RxLinkCallback+0x4a>
 8025564:	f3bf 8f4f 	dsb	sy
  __ASM volatile ("isb 0xF":::"memory");
 8025568:	f3bf 8f6f 	isb	sy
} /*** end of HAL_ETH_RxLinkCallback ***/
 802556c:	bc30      	pop	{r4, r5}
 802556e:	4770      	bx	lr
 8025570:	e000ed00 	.word	0xe000ed00

08025574 <add_msg_type>:

/*---------------------------------------------------------------------------*/
static u8_t *
add_msg_type(u8_t *optptr, u8_t type)
{
  *optptr++ = DHCP_OPTION_MSG_TYPE;
 8025574:	2335      	movs	r3, #53	@ 0x35
 8025576:	7003      	strb	r3, [r0, #0]
  *optptr++ = 1;
 8025578:	2301      	movs	r3, #1
 802557a:	7043      	strb	r3, [r0, #1]
  *optptr++ = type;
 802557c:	7081      	strb	r1, [r0, #2]
  return optptr;
}
 802557e:	3003      	adds	r0, #3
 8025580:	4770      	bx	lr
	...

08025584 <add_server_id>:
/*---------------------------------------------------------------------------*/
static u8_t *
add_server_id(u8_t *optptr)
{
  *optptr++ = DHCP_OPTION_SERVER_ID;
 8025584:	2336      	movs	r3, #54	@ 0x36
 8025586:	7003      	strb	r3, [r0, #0]
  *optptr++ = 4;
 8025588:	2304      	movs	r3, #4
 802558a:	7043      	strb	r3, [r0, #1]
  memcpy(optptr, s.serverid, 4);
 802558c:	4b02      	ldr	r3, [pc, #8]	@ (8025598 <add_server_id+0x14>)
 802558e:	69db      	ldr	r3, [r3, #28]
 8025590:	f8c0 3002 	str.w	r3, [r0, #2]
  return optptr + 4;
}
 8025594:	3006      	adds	r0, #6
 8025596:	4770      	bx	lr
 8025598:	2400021c 	.word	0x2400021c

0802559c <add_req_ipaddr>:
/*---------------------------------------------------------------------------*/
static u8_t *
add_req_ipaddr(u8_t *optptr)
{
  *optptr++ = DHCP_OPTION_REQ_IPADDR;
 802559c:	2332      	movs	r3, #50	@ 0x32
 802559e:	7003      	strb	r3, [r0, #0]
  *optptr++ = 4;
 80255a0:	2304      	movs	r3, #4
 80255a2:	7043      	strb	r3, [r0, #1]
  memcpy(optptr, s.ipaddr, 4);
 80255a4:	4b02      	ldr	r3, [pc, #8]	@ (80255b0 <add_req_ipaddr+0x14>)
 80255a6:	6a5b      	ldr	r3, [r3, #36]	@ 0x24
 80255a8:	f8c0 3002 	str.w	r3, [r0, #2]
  return optptr + 4;
}
 80255ac:	3006      	adds	r0, #6
 80255ae:	4770      	bx	lr
 80255b0:	2400021c 	.word	0x2400021c

080255b4 <add_req_options>:
/*---------------------------------------------------------------------------*/
static u8_t *
add_req_options(u8_t *optptr)
{
  *optptr++ = DHCP_OPTION_REQ_LIST;
 80255b4:	2337      	movs	r3, #55	@ 0x37
 80255b6:	7003      	strb	r3, [r0, #0]
  *optptr++ = 3;
 80255b8:	2303      	movs	r3, #3
 80255ba:	7043      	strb	r3, [r0, #1]
  *optptr++ = DHCP_OPTION_SUBNET_MASK;
 80255bc:	2201      	movs	r2, #1
 80255be:	7082      	strb	r2, [r0, #2]
  *optptr++ = DHCP_OPTION_ROUTER;
 80255c0:	70c3      	strb	r3, [r0, #3]
  *optptr++ = DHCP_OPTION_DNS_SERVER;
 80255c2:	2306      	movs	r3, #6
 80255c4:	7103      	strb	r3, [r0, #4]
  return optptr;
}
 80255c6:	3005      	adds	r0, #5
 80255c8:	4770      	bx	lr

080255ca <add_end>:
/*---------------------------------------------------------------------------*/
static u8_t *
add_end(u8_t *optptr)
{
  *optptr++ = DHCP_OPTION_END;
 80255ca:	23ff      	movs	r3, #255	@ 0xff
 80255cc:	f800 3b01 	strb.w	r3, [r0], #1
  return optptr;
}
 80255d0:	4770      	bx	lr
	...

080255d4 <parse_options>:
  uip_send(uip_appdata, end - (u8_t *)uip_appdata);
}
/*---------------------------------------------------------------------------*/
static u8_t
parse_options(u8_t *optptr, int len)
{
 80255d4:	4603      	mov	r3, r0
  u8_t *end = optptr + len;
 80255d6:	4401      	add	r1, r0
  u8_t type = 0;
 80255d8:	2000      	movs	r0, #0

  while (optptr < end)
 80255da:	428b      	cmp	r3, r1
 80255dc:	d233      	bcs.n	8025646 <parse_options+0x72>
{
 80255de:	b410      	push	{r4}
 80255e0:	e010      	b.n	8025604 <parse_options+0x30>
  {
    switch (*optptr)
 80255e2:	2a36      	cmp	r2, #54	@ 0x36
 80255e4:	d022      	beq.n	802562c <parse_options+0x58>
 80255e6:	2aff      	cmp	r2, #255	@ 0xff
 80255e8:	d02a      	beq.n	8025640 <parse_options+0x6c>
 80255ea:	2a35      	cmp	r2, #53	@ 0x35
 80255ec:	d105      	bne.n	80255fa <parse_options+0x26>
        break;
      case DHCP_OPTION_DNS_SERVER:
        memcpy(s.dnsaddr, optptr + 2, 4);
        break;
      case DHCP_OPTION_MSG_TYPE:
        type = *(optptr + 2);
 80255ee:	7898      	ldrb	r0, [r3, #2]
        break;
 80255f0:	e003      	b.n	80255fa <parse_options+0x26>
        memcpy(s.default_router, optptr + 2, 4);
 80255f2:	f8d3 4002 	ldr.w	r4, [r3, #2]
 80255f6:	4a14      	ldr	r2, [pc, #80]	@ (8025648 <parse_options+0x74>)
 80255f8:	6314      	str	r4, [r2, #48]	@ 0x30
        break;
      case DHCP_OPTION_END:
        return type;
    }

    optptr += optptr[1] + 2;
 80255fa:	785a      	ldrb	r2, [r3, #1]
 80255fc:	3202      	adds	r2, #2
 80255fe:	4413      	add	r3, r2
  while (optptr < end)
 8025600:	428b      	cmp	r3, r1
 8025602:	d21d      	bcs.n	8025640 <parse_options+0x6c>
    switch (*optptr)
 8025604:	781a      	ldrb	r2, [r3, #0]
 8025606:	2a33      	cmp	r2, #51	@ 0x33
 8025608:	d015      	beq.n	8025636 <parse_options+0x62>
 802560a:	d8ea      	bhi.n	80255e2 <parse_options+0xe>
 802560c:	2a03      	cmp	r2, #3
 802560e:	d0f0      	beq.n	80255f2 <parse_options+0x1e>
 8025610:	2a06      	cmp	r2, #6
 8025612:	d006      	beq.n	8025622 <parse_options+0x4e>
 8025614:	2a01      	cmp	r2, #1
 8025616:	d1f0      	bne.n	80255fa <parse_options+0x26>
        memcpy(s.netmask, optptr + 2, 4);
 8025618:	f8d3 4002 	ldr.w	r4, [r3, #2]
 802561c:	4a0a      	ldr	r2, [pc, #40]	@ (8025648 <parse_options+0x74>)
 802561e:	6294      	str	r4, [r2, #40]	@ 0x28
        break;
 8025620:	e7eb      	b.n	80255fa <parse_options+0x26>
        memcpy(s.dnsaddr, optptr + 2, 4);
 8025622:	f8d3 4002 	ldr.w	r4, [r3, #2]
 8025626:	4a08      	ldr	r2, [pc, #32]	@ (8025648 <parse_options+0x74>)
 8025628:	62d4      	str	r4, [r2, #44]	@ 0x2c
        break;
 802562a:	e7e6      	b.n	80255fa <parse_options+0x26>
        memcpy(s.serverid, optptr + 2, 4);
 802562c:	f8d3 4002 	ldr.w	r4, [r3, #2]
 8025630:	4a05      	ldr	r2, [pc, #20]	@ (8025648 <parse_options+0x74>)
 8025632:	61d4      	str	r4, [r2, #28]
        break;
 8025634:	e7e1      	b.n	80255fa <parse_options+0x26>
        memcpy(s.lease_time, optptr + 2, 4);
 8025636:	f8d3 4002 	ldr.w	r4, [r3, #2]
 802563a:	4a03      	ldr	r2, [pc, #12]	@ (8025648 <parse_options+0x74>)
 802563c:	6214      	str	r4, [r2, #32]
        break;
 802563e:	e7dc      	b.n	80255fa <parse_options+0x26>
  }
  return type;
}
 8025640:	f85d 4b04 	ldr.w	r4, [sp], #4
 8025644:	4770      	bx	lr
 8025646:	4770      	bx	lr
 8025648:	2400021c 	.word	0x2400021c

0802564c <dhcpc_configured>:
/*---------------------------------------------------------------------------*/
void
dhcpc_configured(const struct dhcpc_state *s)
{
  /* set the IP address received from the DHCP server. */
  uip_sethostaddr(&s->ipaddr);
 802564c:	4b07      	ldr	r3, [pc, #28]	@ (802566c <dhcpc_configured+0x20>)
 802564e:	8c82      	ldrh	r2, [r0, #36]	@ 0x24
 8025650:	801a      	strh	r2, [r3, #0]
 8025652:	8cc2      	ldrh	r2, [r0, #38]	@ 0x26
 8025654:	805a      	strh	r2, [r3, #2]
  /* set the network mask received from the DHCP server. */
  uip_setnetmask(&s->netmask);
 8025656:	4b06      	ldr	r3, [pc, #24]	@ (8025670 <dhcpc_configured+0x24>)
 8025658:	8d02      	ldrh	r2, [r0, #40]	@ 0x28
 802565a:	801a      	strh	r2, [r3, #0]
 802565c:	8d42      	ldrh	r2, [r0, #42]	@ 0x2a
 802565e:	805a      	strh	r2, [r3, #2]
  /* set the gateway address received from the DHCP server. */
  uip_setdraddr(&s->default_router);
 8025660:	4b04      	ldr	r3, [pc, #16]	@ (8025674 <dhcpc_configured+0x28>)
 8025662:	8e02      	ldrh	r2, [r0, #48]	@ 0x30
 8025664:	801a      	strh	r2, [r3, #0]
 8025666:	8e42      	ldrh	r2, [r0, #50]	@ 0x32
 8025668:	805a      	strh	r2, [r3, #2]
}
 802566a:	4770      	bx	lr
 802566c:	240008e4 	.word	0x240008e4
 8025670:	240008dc 	.word	0x240008dc
 8025674:	240008e0 	.word	0x240008e0

08025678 <create_msg>:
{
 8025678:	b5f8      	push	{r3, r4, r5, r6, r7, lr}
 802567a:	4604      	mov	r4, r0
  m->op = DHCP_REQUEST;
 802567c:	2301      	movs	r3, #1
 802567e:	7003      	strb	r3, [r0, #0]
  m->htype = DHCP_HTYPE_ETHERNET;
 8025680:	7043      	strb	r3, [r0, #1]
  m->hlen = s.mac_len;
 8025682:	4b19      	ldr	r3, [pc, #100]	@ (80256e8 <create_msg+0x70>)
 8025684:	699a      	ldr	r2, [r3, #24]
 8025686:	7082      	strb	r2, [r0, #2]
  m->hops = 0;
 8025688:	2500      	movs	r5, #0
 802568a:	70c5      	strb	r5, [r0, #3]
  memcpy(m->xid, xid, sizeof(m->xid));
 802568c:	4a17      	ldr	r2, [pc, #92]	@ (80256ec <create_msg+0x74>)
 802568e:	6810      	ldr	r0, [r2, #0]
 8025690:	6060      	str	r0, [r4, #4]
  m->secs = 0;
 8025692:	8125      	strh	r5, [r4, #8]
  m->flags = HTONS(BOOTP_BROADCAST); /*  Broadcast bit. */
 8025694:	2780      	movs	r7, #128	@ 0x80
 8025696:	8167      	strh	r7, [r4, #10]
  memcpy(m->ciaddr, uip_hostaddr, sizeof(m->ciaddr));
 8025698:	4a15      	ldr	r2, [pc, #84]	@ (80256f0 <create_msg+0x78>)
 802569a:	6812      	ldr	r2, [r2, #0]
 802569c:	60e2      	str	r2, [r4, #12]
  memset(m->yiaddr, 0, sizeof(m->yiaddr));
 802569e:	6125      	str	r5, [r4, #16]
  memset(m->siaddr, 0, sizeof(m->siaddr));
 80256a0:	6165      	str	r5, [r4, #20]
  memset(m->giaddr, 0, sizeof(m->giaddr));
 80256a2:	61a5      	str	r5, [r4, #24]
  memcpy(m->chaddr, s.mac_addr, s.mac_len);
 80256a4:	699e      	ldr	r6, [r3, #24]
 80256a6:	4632      	mov	r2, r6
 80256a8:	6959      	ldr	r1, [r3, #20]
 80256aa:	f104 001c 	add.w	r0, r4, #28
 80256ae:	f001 fb97 	bl	8026de0 <memcpy>
  memset(&m->chaddr[s.mac_len], 0, sizeof(m->chaddr) - s.mac_len);
 80256b2:	f106 0018 	add.w	r0, r6, #24
 80256b6:	4420      	add	r0, r4
 80256b8:	f1c6 0210 	rsb	r2, r6, #16
 80256bc:	4629      	mov	r1, r5
 80256be:	3004      	adds	r0, #4
 80256c0:	f001 fb61 	bl	8026d86 <memset>
  memset(m->sname, 0, sizeof(m->sname));
 80256c4:	2240      	movs	r2, #64	@ 0x40
 80256c6:	4629      	mov	r1, r5
 80256c8:	f104 002c 	add.w	r0, r4, #44	@ 0x2c
 80256cc:	f001 fb5b 	bl	8026d86 <memset>
  memset(m->file, 0, sizeof(m->file));
 80256d0:	463a      	mov	r2, r7
 80256d2:	4629      	mov	r1, r5
 80256d4:	f104 006c 	add.w	r0, r4, #108	@ 0x6c
 80256d8:	f001 fb55 	bl	8026d86 <memset>
  memcpy(m->options, magic_cookie, sizeof(magic_cookie));
 80256dc:	4b05      	ldr	r3, [pc, #20]	@ (80256f4 <create_msg+0x7c>)
 80256de:	6818      	ldr	r0, [r3, #0]
 80256e0:	f8c4 00ec 	str.w	r0, [r4, #236]	@ 0xec
}
 80256e4:	bdf8      	pop	{r3, r4, r5, r6, r7, pc}
 80256e6:	bf00      	nop
 80256e8:	2400021c 	.word	0x2400021c
 80256ec:	08026e80 	.word	0x08026e80
 80256f0:	240008e4 	.word	0x240008e4
 80256f4:	08026e88 	.word	0x08026e88

080256f8 <send_discover>:
{
 80256f8:	b538      	push	{r3, r4, r5, lr}
  struct dhcp_msg *m = (struct dhcp_msg *)uip_appdata;
 80256fa:	4c0a      	ldr	r4, [pc, #40]	@ (8025724 <send_discover+0x2c>)
 80256fc:	6825      	ldr	r5, [r4, #0]
  create_msg(m);
 80256fe:	4628      	mov	r0, r5
 8025700:	f7ff ffba 	bl	8025678 <create_msg>
  end = add_msg_type(&m->options[4], DHCPDISCOVER);
 8025704:	2101      	movs	r1, #1
 8025706:	f105 00f0 	add.w	r0, r5, #240	@ 0xf0
 802570a:	f7ff ff33 	bl	8025574 <add_msg_type>
  end = add_req_options(end);
 802570e:	f7ff ff51 	bl	80255b4 <add_req_options>
  end = add_end(end);
 8025712:	f7ff ff5a 	bl	80255ca <add_end>
  uip_send(uip_appdata, end - (u8_t *)uip_appdata);
 8025716:	6823      	ldr	r3, [r4, #0]
 8025718:	1ac1      	subs	r1, r0, r3
 802571a:	4618      	mov	r0, r3
 802571c:	f001 f92a 	bl	8026974 <uip_send>
}
 8025720:	bd38      	pop	{r3, r4, r5, pc}
 8025722:	bf00      	nop
 8025724:	240002dc 	.word	0x240002dc

08025728 <send_request>:
{
 8025728:	b538      	push	{r3, r4, r5, lr}
  struct dhcp_msg *m = (struct dhcp_msg *)uip_appdata;
 802572a:	4c0b      	ldr	r4, [pc, #44]	@ (8025758 <send_request+0x30>)
 802572c:	6825      	ldr	r5, [r4, #0]
  create_msg(m);
 802572e:	4628      	mov	r0, r5
 8025730:	f7ff ffa2 	bl	8025678 <create_msg>
  end = add_msg_type(&m->options[4], DHCPREQUEST);
 8025734:	2103      	movs	r1, #3
 8025736:	f105 00f0 	add.w	r0, r5, #240	@ 0xf0
 802573a:	f7ff ff1b 	bl	8025574 <add_msg_type>
  end = add_server_id(end);
 802573e:	f7ff ff21 	bl	8025584 <add_server_id>
  end = add_req_ipaddr(end);
 8025742:	f7ff ff2b 	bl	802559c <add_req_ipaddr>
  end = add_end(end);
 8025746:	f7ff ff40 	bl	80255ca <add_end>
  uip_send(uip_appdata, end - (u8_t *)uip_appdata);
 802574a:	6823      	ldr	r3, [r4, #0]
 802574c:	1ac1      	subs	r1, r0, r3
 802574e:	4618      	mov	r0, r3
 8025750:	f001 f910 	bl	8026974 <uip_send>
}
 8025754:	bd38      	pop	{r3, r4, r5, pc}
 8025756:	bf00      	nop
 8025758:	240002dc 	.word	0x240002dc

0802575c <parse_msg>:
{
 802575c:	b510      	push	{r4, lr}
  struct dhcp_msg *m = (struct dhcp_msg *)uip_appdata;
 802575e:	4b11      	ldr	r3, [pc, #68]	@ (80257a4 <parse_msg+0x48>)
 8025760:	681c      	ldr	r4, [r3, #0]
  if (m->op == DHCP_REPLY &&
 8025762:	7823      	ldrb	r3, [r4, #0]
 8025764:	2b02      	cmp	r3, #2
 8025766:	d001      	beq.n	802576c <parse_msg+0x10>
  return 0;
 8025768:	2000      	movs	r0, #0
}
 802576a:	bd10      	pop	{r4, pc}
      memcmp(m->xid, xid, sizeof(xid)) == 0 &&
 802576c:	2204      	movs	r2, #4
 802576e:	490e      	ldr	r1, [pc, #56]	@ (80257a8 <parse_msg+0x4c>)
 8025770:	18a0      	adds	r0, r4, r2
 8025772:	f001 faf8 	bl	8026d66 <memcmp>
  if (m->op == DHCP_REPLY &&
 8025776:	b998      	cbnz	r0, 80257a0 <parse_msg+0x44>
      memcmp(m->chaddr, s.mac_addr, s.mac_len) == 0)
 8025778:	4b0c      	ldr	r3, [pc, #48]	@ (80257ac <parse_msg+0x50>)
 802577a:	699a      	ldr	r2, [r3, #24]
 802577c:	6959      	ldr	r1, [r3, #20]
 802577e:	f104 001c 	add.w	r0, r4, #28
 8025782:	f001 faf0 	bl	8026d66 <memcmp>
      memcmp(m->xid, xid, sizeof(xid)) == 0 &&
 8025786:	b108      	cbz	r0, 802578c <parse_msg+0x30>
  return 0;
 8025788:	2000      	movs	r0, #0
 802578a:	e7ee      	b.n	802576a <parse_msg+0xe>
    memcpy(s.ipaddr, m->yiaddr, 4);
 802578c:	6922      	ldr	r2, [r4, #16]
 802578e:	4b07      	ldr	r3, [pc, #28]	@ (80257ac <parse_msg+0x50>)
 8025790:	625a      	str	r2, [r3, #36]	@ 0x24
    return parse_options(&m->options[4], uip_datalen());
 8025792:	4b07      	ldr	r3, [pc, #28]	@ (80257b0 <parse_msg+0x54>)
 8025794:	8819      	ldrh	r1, [r3, #0]
 8025796:	f104 00f0 	add.w	r0, r4, #240	@ 0xf0
 802579a:	f7ff ff1b 	bl	80255d4 <parse_options>
 802579e:	e7e4      	b.n	802576a <parse_msg+0xe>
  return 0;
 80257a0:	2000      	movs	r0, #0
 80257a2:	e7e2      	b.n	802576a <parse_msg+0xe>
 80257a4:	240002dc 	.word	0x240002dc
 80257a8:	08026e98 	.word	0x08026e98
 80257ac:	2400021c 	.word	0x2400021c
 80257b0:	240002d4 	.word	0x240002d4

080257b4 <dhcpc_init>:
{
 80257b4:	b510      	push	{r4, lr}
 80257b6:	b082      	sub	sp, #8
  s.mac_addr = mac_addr;
 80257b8:	4c0c      	ldr	r4, [pc, #48]	@ (80257ec <dhcpc_init+0x38>)
 80257ba:	6160      	str	r0, [r4, #20]
  s.mac_len  = mac_len;
 80257bc:	61a1      	str	r1, [r4, #24]
  s.state = STATE_INITIAL;
 80257be:	2300      	movs	r3, #0
 80257c0:	70a3      	strb	r3, [r4, #2]
  uip_ipaddr(addr, 255,255,255,255);
 80257c2:	f64f 73ff 	movw	r3, #65535	@ 0xffff
 80257c6:	f8ad 3004 	strh.w	r3, [sp, #4]
 80257ca:	f8ad 3006 	strh.w	r3, [sp, #6]
  s.conn = uip_udp_new(&addr, HTONS(DHCPC_SERVER_PORT));
 80257ce:	f44f 4186 	mov.w	r1, #17152	@ 0x4300
 80257d2:	a801      	add	r0, sp, #4
 80257d4:	f001 f87e 	bl	80268d4 <uip_udp_new>
 80257d8:	6060      	str	r0, [r4, #4]
  if (s.conn != NULL)
 80257da:	b110      	cbz	r0, 80257e2 <dhcpc_init+0x2e>
    uip_udp_bind(s.conn, HTONS(DHCPC_CLIENT_PORT));
 80257dc:	f44f 4388 	mov.w	r3, #17408	@ 0x4400
 80257e0:	8083      	strh	r3, [r0, #4]
  PT_INIT(&s.pt);
 80257e2:	4b02      	ldr	r3, [pc, #8]	@ (80257ec <dhcpc_init+0x38>)
 80257e4:	2200      	movs	r2, #0
 80257e6:	801a      	strh	r2, [r3, #0]
}
 80257e8:	b002      	add	sp, #8
 80257ea:	bd10      	pop	{r4, pc}
 80257ec:	2400021c 	.word	0x2400021c

080257f0 <dhcpc_request>:
{
 80257f0:	b082      	sub	sp, #8
  uip_ipaddr(ipaddr, 0,0,0,0);
 80257f2:	2300      	movs	r3, #0
 80257f4:	f8ad 3004 	strh.w	r3, [sp, #4]
 80257f8:	f8ad 3006 	strh.w	r3, [sp, #6]
  uip_sethostaddr(ipaddr);
 80257fc:	4a02      	ldr	r2, [pc, #8]	@ (8025808 <dhcpc_request+0x18>)
 80257fe:	8013      	strh	r3, [r2, #0]
 8025800:	8053      	strh	r3, [r2, #2]
}
 8025802:	b002      	add	sp, #8
 8025804:	4770      	bx	lr
 8025806:	bf00      	nop
 8025808:	240008e4 	.word	0x240008e4

0802580c <handle_dhcp>:
{
 802580c:	b538      	push	{r3, r4, r5, lr}
  PT_BEGIN(&s.pt);
 802580e:	4b9d      	ldr	r3, [pc, #628]	@ (8025a84 <handle_dhcp+0x278>)
 8025810:	881b      	ldrh	r3, [r3, #0]
 8025812:	f5b3 7f93 	cmp.w	r3, #294	@ 0x126
 8025816:	d837      	bhi.n	8025888 <handle_dhcp+0x7c>
 8025818:	f5b3 7f87 	cmp.w	r3, #270	@ 0x10e
 802581c:	d91e      	bls.n	802585c <handle_dhcp+0x50>
 802581e:	f2a3 130f 	subw	r3, r3, #271	@ 0x10f
 8025822:	2b17      	cmp	r3, #23
 8025824:	f200 8138 	bhi.w	8025a98 <handle_dhcp+0x28c>
 8025828:	e8df f013 	tbh	[pc, r3, lsl #1]
 802582c:	00580054 	.word	0x00580054
 8025830:	01360136 	.word	0x01360136
 8025834:	01360136 	.word	0x01360136
 8025838:	01360136 	.word	0x01360136
 802583c:	01360136 	.word	0x01360136
 8025840:	01360136 	.word	0x01360136
 8025844:	01360136 	.word	0x01360136
 8025848:	01360136 	.word	0x01360136
 802584c:	01360136 	.word	0x01360136
 8025850:	01360136 	.word	0x01360136
 8025854:	01360136 	.word	0x01360136
 8025858:	00860082 	.word	0x00860082
 802585c:	2b00      	cmp	r3, #0
 802585e:	f040 811b 	bne.w	8025a98 <handle_dhcp+0x28c>
  s.state = STATE_SENDING;
 8025862:	4b88      	ldr	r3, [pc, #544]	@ (8025a84 <handle_dhcp+0x278>)
 8025864:	2201      	movs	r2, #1
 8025866:	709a      	strb	r2, [r3, #2]
  s.ticks = CLOCK_SECOND;
 8025868:	f44f 727a 	mov.w	r2, #1000	@ 0x3e8
 802586c:	611a      	str	r2, [r3, #16]
    send_discover();
 802586e:	f7ff ff43 	bl	80256f8 <send_discover>
    timer_set(&s.timer, s.ticks);
 8025872:	4c84      	ldr	r4, [pc, #528]	@ (8025a84 <handle_dhcp+0x278>)
 8025874:	6921      	ldr	r1, [r4, #16]
 8025876:	f104 0008 	add.w	r0, r4, #8
 802587a:	f001 fa61 	bl	8026d40 <timer_set>
    PT_YIELD(&s.pt);
 802587e:	f240 130f 	movw	r3, #271	@ 0x10f
 8025882:	8023      	strh	r3, [r4, #0]
 8025884:	2403      	movs	r4, #3
 8025886:	e10b      	b.n	8025aa0 <handle_dhcp+0x294>
  PT_BEGIN(&s.pt);
 8025888:	f5b3 7fb6 	cmp.w	r3, #364	@ 0x16c
 802588c:	f080 8104 	bcs.w	8025a98 <handle_dhcp+0x28c>
 8025890:	f5b3 7faa 	cmp.w	r3, #340	@ 0x154
 8025894:	f240 8100 	bls.w	8025a98 <handle_dhcp+0x28c>
 8025898:	f2a3 1355 	subw	r3, r3, #341	@ 0x155
 802589c:	2b16      	cmp	r3, #22
 802589e:	f200 80fb 	bhi.w	8025a98 <handle_dhcp+0x28c>
 80258a2:	e8df f013 	tbh	[pc, r3, lsl #1]
 80258a6:	0087      	.short	0x0087
 80258a8:	00f9008b 	.word	0x00f9008b
 80258ac:	00f900f9 	.word	0x00f900f9
 80258b0:	00f900f9 	.word	0x00f900f9
 80258b4:	00f900f9 	.word	0x00f900f9
 80258b8:	00f900f9 	.word	0x00f900f9
 80258bc:	00f900f9 	.word	0x00f900f9
 80258c0:	00f900f9 	.word	0x00f900f9
 80258c4:	00f900f9 	.word	0x00f900f9
 80258c8:	00f900f9 	.word	0x00f900f9
 80258cc:	00f900f9 	.word	0x00f900f9
 80258d0:	009e009a 	.word	0x009e009a
    PT_WAIT_UNTIL(&s.pt, uip_newdata() || timer_expired(&s.timer));
 80258d4:	4b6b      	ldr	r3, [pc, #428]	@ (8025a84 <handle_dhcp+0x278>)
 80258d6:	f44f 7288 	mov.w	r2, #272	@ 0x110
 80258da:	801a      	strh	r2, [r3, #0]
 80258dc:	4b6a      	ldr	r3, [pc, #424]	@ (8025a88 <handle_dhcp+0x27c>)
 80258de:	781c      	ldrb	r4, [r3, #0]
 80258e0:	f014 0402 	ands.w	r4, r4, #2
 80258e4:	d016      	beq.n	8025914 <handle_dhcp+0x108>
    if (uip_newdata() && parse_msg() == DHCPOFFER)
 80258e6:	4b68      	ldr	r3, [pc, #416]	@ (8025a88 <handle_dhcp+0x27c>)
 80258e8:	781b      	ldrb	r3, [r3, #0]
 80258ea:	f013 0f02 	tst.w	r3, #2
 80258ee:	d117      	bne.n	8025920 <handle_dhcp+0x114>
    if (s.ticks < CLOCK_SECOND * 60)
 80258f0:	4b64      	ldr	r3, [pc, #400]	@ (8025a84 <handle_dhcp+0x278>)
 80258f2:	691b      	ldr	r3, [r3, #16]
 80258f4:	f64e 225f 	movw	r2, #59999	@ 0xea5f
 80258f8:	4293      	cmp	r3, r2
 80258fa:	dc02      	bgt.n	8025902 <handle_dhcp+0xf6>
      s.ticks *= 2;
 80258fc:	005b      	lsls	r3, r3, #1
 80258fe:	4a61      	ldr	r2, [pc, #388]	@ (8025a84 <handle_dhcp+0x278>)
 8025900:	6113      	str	r3, [r2, #16]
  while (s.state != STATE_OFFER_RECEIVED);
 8025902:	4b60      	ldr	r3, [pc, #384]	@ (8025a84 <handle_dhcp+0x278>)
 8025904:	789b      	ldrb	r3, [r3, #2]
 8025906:	2b02      	cmp	r3, #2
 8025908:	d1b1      	bne.n	802586e <handle_dhcp+0x62>
  s.ticks = CLOCK_SECOND;
 802590a:	4b5e      	ldr	r3, [pc, #376]	@ (8025a84 <handle_dhcp+0x278>)
 802590c:	f44f 727a 	mov.w	r2, #1000	@ 0x3e8
 8025910:	611a      	str	r2, [r3, #16]
 8025912:	e028      	b.n	8025966 <handle_dhcp+0x15a>
    PT_WAIT_UNTIL(&s.pt, uip_newdata() || timer_expired(&s.timer));
 8025914:	485d      	ldr	r0, [pc, #372]	@ (8025a8c <handle_dhcp+0x280>)
 8025916:	f001 fa1a 	bl	8026d4e <timer_expired>
 802591a:	2800      	cmp	r0, #0
 802591c:	d1e3      	bne.n	80258e6 <handle_dhcp+0xda>
 802591e:	e0bf      	b.n	8025aa0 <handle_dhcp+0x294>
    if (uip_newdata() && parse_msg() == DHCPOFFER)
 8025920:	f7ff ff1c 	bl	802575c <parse_msg>
 8025924:	2802      	cmp	r0, #2
 8025926:	d1e3      	bne.n	80258f0 <handle_dhcp+0xe4>
      s.state = STATE_OFFER_RECEIVED;
 8025928:	4b56      	ldr	r3, [pc, #344]	@ (8025a84 <handle_dhcp+0x278>)
 802592a:	2202      	movs	r2, #2
 802592c:	709a      	strb	r2, [r3, #2]
      break;
 802592e:	e7ec      	b.n	802590a <handle_dhcp+0xfe>
    PT_WAIT_UNTIL(&s.pt, uip_newdata() || timer_expired(&s.timer));
 8025930:	4b54      	ldr	r3, [pc, #336]	@ (8025a84 <handle_dhcp+0x278>)
 8025932:	f44f 7293 	mov.w	r2, #294	@ 0x126
 8025936:	801a      	strh	r2, [r3, #0]
 8025938:	4b53      	ldr	r3, [pc, #332]	@ (8025a88 <handle_dhcp+0x27c>)
 802593a:	781c      	ldrb	r4, [r3, #0]
 802593c:	f014 0402 	ands.w	r4, r4, #2
 8025940:	d01e      	beq.n	8025980 <handle_dhcp+0x174>
    if (uip_newdata() && parse_msg() == DHCPACK)
 8025942:	4b51      	ldr	r3, [pc, #324]	@ (8025a88 <handle_dhcp+0x27c>)
 8025944:	781b      	ldrb	r3, [r3, #0]
 8025946:	f013 0f02 	tst.w	r3, #2
 802594a:	d11f      	bne.n	802598c <handle_dhcp+0x180>
    if (s.ticks <= CLOCK_SECOND * 10)
 802594c:	4b4d      	ldr	r3, [pc, #308]	@ (8025a84 <handle_dhcp+0x278>)
 802594e:	691b      	ldr	r3, [r3, #16]
 8025950:	f242 7210 	movw	r2, #10000	@ 0x2710
 8025954:	4293      	cmp	r3, r2
 8025956:	dc24      	bgt.n	80259a2 <handle_dhcp+0x196>
      s.ticks += CLOCK_SECOND;
 8025958:	4a4a      	ldr	r2, [pc, #296]	@ (8025a84 <handle_dhcp+0x278>)
 802595a:	f503 737a 	add.w	r3, r3, #1000	@ 0x3e8
 802595e:	6113      	str	r3, [r2, #16]
  while (s.state != STATE_CONFIG_RECEIVED);
 8025960:	7893      	ldrb	r3, [r2, #2]
 8025962:	2b03      	cmp	r3, #3
 8025964:	d019      	beq.n	802599a <handle_dhcp+0x18e>
    send_request();
 8025966:	f7ff fedf 	bl	8025728 <send_request>
    timer_set(&s.timer, s.ticks);
 802596a:	4c46      	ldr	r4, [pc, #280]	@ (8025a84 <handle_dhcp+0x278>)
 802596c:	6921      	ldr	r1, [r4, #16]
 802596e:	f104 0008 	add.w	r0, r4, #8
 8025972:	f001 f9e5 	bl	8026d40 <timer_set>
    PT_YIELD(&s.pt);
 8025976:	f240 1325 	movw	r3, #293	@ 0x125
 802597a:	8023      	strh	r3, [r4, #0]
 802597c:	2403      	movs	r4, #3
 802597e:	e08f      	b.n	8025aa0 <handle_dhcp+0x294>
    PT_WAIT_UNTIL(&s.pt, uip_newdata() || timer_expired(&s.timer));
 8025980:	4842      	ldr	r0, [pc, #264]	@ (8025a8c <handle_dhcp+0x280>)
 8025982:	f001 f9e4 	bl	8026d4e <timer_expired>
 8025986:	2800      	cmp	r0, #0
 8025988:	d1db      	bne.n	8025942 <handle_dhcp+0x136>
 802598a:	e089      	b.n	8025aa0 <handle_dhcp+0x294>
    if (uip_newdata() && parse_msg() == DHCPACK)
 802598c:	f7ff fee6 	bl	802575c <parse_msg>
 8025990:	2805      	cmp	r0, #5
 8025992:	d1db      	bne.n	802594c <handle_dhcp+0x140>
      s.state = STATE_CONFIG_RECEIVED;
 8025994:	4b3b      	ldr	r3, [pc, #236]	@ (8025a84 <handle_dhcp+0x278>)
 8025996:	2203      	movs	r2, #3
 8025998:	709a      	strb	r2, [r3, #2]
  dhcpc_configured(&s);
 802599a:	483a      	ldr	r0, [pc, #232]	@ (8025a84 <handle_dhcp+0x278>)
 802599c:	f7ff fe56 	bl	802564c <dhcpc_configured>
 80259a0:	e053      	b.n	8025a4a <handle_dhcp+0x23e>
      PT_RESTART(&s.pt);
 80259a2:	2400      	movs	r4, #0
 80259a4:	4b37      	ldr	r3, [pc, #220]	@ (8025a84 <handle_dhcp+0x278>)
 80259a6:	801c      	strh	r4, [r3, #0]
 80259a8:	e07a      	b.n	8025aa0 <handle_dhcp+0x294>
      s.ticks = INT_MAX;
 80259aa:	4b36      	ldr	r3, [pc, #216]	@ (8025a84 <handle_dhcp+0x278>)
 80259ac:	f06f 4200 	mvn.w	r2, #2147483648	@ 0x80000000
 80259b0:	611a      	str	r2, [r3, #16]
 80259b2:	e05c      	b.n	8025a6e <handle_dhcp+0x262>
    PT_WAIT_UNTIL(&s.pt, timer_expired(&s.timer));
 80259b4:	4b33      	ldr	r3, [pc, #204]	@ (8025a84 <handle_dhcp+0x278>)
 80259b6:	f44f 72ab 	mov.w	r2, #342	@ 0x156
 80259ba:	801a      	strh	r2, [r3, #0]
 80259bc:	4833      	ldr	r0, [pc, #204]	@ (8025a8c <handle_dhcp+0x280>)
 80259be:	f001 f9c6 	bl	8026d4e <timer_expired>
 80259c2:	b908      	cbnz	r0, 80259c8 <handle_dhcp+0x1bc>
 80259c4:	2400      	movs	r4, #0
 80259c6:	e06b      	b.n	8025aa0 <handle_dhcp+0x294>
    s.state = STATE_OFFER_RECEIVED;
 80259c8:	4b2e      	ldr	r3, [pc, #184]	@ (8025a84 <handle_dhcp+0x278>)
 80259ca:	2202      	movs	r2, #2
 80259cc:	709a      	strb	r2, [r3, #2]
    s.ticks = CLOCK_SECOND;
 80259ce:	f44f 727a 	mov.w	r2, #1000	@ 0x3e8
 80259d2:	611a      	str	r2, [r3, #16]
    dhcpc_request();
 80259d4:	f7ff ff0c 	bl	80257f0 <dhcpc_request>
    dhcpc_unconfigured();
 80259d8:	e01a      	b.n	8025a10 <handle_dhcp+0x204>
      PT_WAIT_UNTIL(&s.pt, uip_newdata() || timer_expired(&s.timer));
 80259da:	4b2a      	ldr	r3, [pc, #168]	@ (8025a84 <handle_dhcp+0x278>)
 80259dc:	f240 126b 	movw	r2, #363	@ 0x16b
 80259e0:	801a      	strh	r2, [r3, #0]
 80259e2:	4b29      	ldr	r3, [pc, #164]	@ (8025a88 <handle_dhcp+0x27c>)
 80259e4:	781c      	ldrb	r4, [r3, #0]
 80259e6:	f014 0402 	ands.w	r4, r4, #2
 80259ea:	d01e      	beq.n	8025a2a <handle_dhcp+0x21e>
      if (uip_newdata() && parse_msg() == DHCPACK)
 80259ec:	4b26      	ldr	r3, [pc, #152]	@ (8025a88 <handle_dhcp+0x27c>)
 80259ee:	781b      	ldrb	r3, [r3, #0]
 80259f0:	f013 0f02 	tst.w	r3, #2
 80259f4:	d11f      	bne.n	8025a36 <handle_dhcp+0x22a>
      if (s.ticks <= CLOCK_SECOND * 10)
 80259f6:	4b23      	ldr	r3, [pc, #140]	@ (8025a84 <handle_dhcp+0x278>)
 80259f8:	691b      	ldr	r3, [r3, #16]
 80259fa:	f242 7210 	movw	r2, #10000	@ 0x2710
 80259fe:	4293      	cmp	r3, r2
 8025a00:	dc46      	bgt.n	8025a90 <handle_dhcp+0x284>
        s.ticks += CLOCK_SECOND;
 8025a02:	4a20      	ldr	r2, [pc, #128]	@ (8025a84 <handle_dhcp+0x278>)
 8025a04:	f503 737a 	add.w	r3, r3, #1000	@ 0x3e8
 8025a08:	6113      	str	r3, [r2, #16]
    while (s.state != STATE_CONFIG_RECEIVED);
 8025a0a:	7893      	ldrb	r3, [r2, #2]
 8025a0c:	2b03      	cmp	r3, #3
 8025a0e:	d019      	beq.n	8025a44 <handle_dhcp+0x238>
      send_request();
 8025a10:	f7ff fe8a 	bl	8025728 <send_request>
      timer_set(&s.timer, s.ticks);
 8025a14:	4c1b      	ldr	r4, [pc, #108]	@ (8025a84 <handle_dhcp+0x278>)
 8025a16:	6921      	ldr	r1, [r4, #16]
 8025a18:	f104 0008 	add.w	r0, r4, #8
 8025a1c:	f001 f990 	bl	8026d40 <timer_set>
      PT_YIELD(&s.pt);
 8025a20:	f44f 73b5 	mov.w	r3, #362	@ 0x16a
 8025a24:	8023      	strh	r3, [r4, #0]
 8025a26:	2403      	movs	r4, #3
 8025a28:	e03a      	b.n	8025aa0 <handle_dhcp+0x294>
      PT_WAIT_UNTIL(&s.pt, uip_newdata() || timer_expired(&s.timer));
 8025a2a:	4818      	ldr	r0, [pc, #96]	@ (8025a8c <handle_dhcp+0x280>)
 8025a2c:	f001 f98f 	bl	8026d4e <timer_expired>
 8025a30:	2800      	cmp	r0, #0
 8025a32:	d1db      	bne.n	80259ec <handle_dhcp+0x1e0>
 8025a34:	e034      	b.n	8025aa0 <handle_dhcp+0x294>
      if (uip_newdata() && parse_msg() == DHCPACK)
 8025a36:	f7ff fe91 	bl	802575c <parse_msg>
 8025a3a:	2805      	cmp	r0, #5
 8025a3c:	d1db      	bne.n	80259f6 <handle_dhcp+0x1ea>
        s.state = STATE_CONFIG_RECEIVED;
 8025a3e:	4b11      	ldr	r3, [pc, #68]	@ (8025a84 <handle_dhcp+0x278>)
 8025a40:	2203      	movs	r2, #3
 8025a42:	709a      	strb	r2, [r3, #2]
    dhcpc_configured(&s);
 8025a44:	480f      	ldr	r0, [pc, #60]	@ (8025a84 <handle_dhcp+0x278>)
 8025a46:	f7ff fe01 	bl	802564c <dhcpc_configured>
    lease_renew_time  = ((unsigned long)(ntohs(s.lease_time[0])) << 16u);
 8025a4a:	4d0e      	ldr	r5, [pc, #56]	@ (8025a84 <handle_dhcp+0x278>)
 8025a4c:	8c28      	ldrh	r0, [r5, #32]
 8025a4e:	f000 f8f1 	bl	8025c34 <htons>
 8025a52:	0404      	lsls	r4, r0, #16
    lease_renew_time |= (ntohs(s.lease_time[1]));
 8025a54:	8c68      	ldrh	r0, [r5, #34]	@ 0x22
 8025a56:	f000 f8ed 	bl	8025c34 <htons>
 8025a5a:	ea40 0304 	orr.w	r3, r0, r4
    lease_renew_time /= 2;
 8025a5e:	085b      	lsrs	r3, r3, #1
    if ((lease_renew_time * CLOCK_SECOND) <= INT_MAX)
 8025a60:	f44f 727a 	mov.w	r2, #1000	@ 0x3e8
 8025a64:	fb02 f303 	mul.w	r3, r2, r3
 8025a68:	2b00      	cmp	r3, #0
 8025a6a:	db9e      	blt.n	80259aa <handle_dhcp+0x19e>
      s.ticks = lease_renew_time * CLOCK_SECOND;
 8025a6c:	612b      	str	r3, [r5, #16]
    timer_set(&s.timer, s.ticks);
 8025a6e:	4c05      	ldr	r4, [pc, #20]	@ (8025a84 <handle_dhcp+0x278>)
 8025a70:	6921      	ldr	r1, [r4, #16]
 8025a72:	f104 0008 	add.w	r0, r4, #8
 8025a76:	f001 f963 	bl	8026d40 <timer_set>
    PT_YIELD(&s.pt);
 8025a7a:	f240 1355 	movw	r3, #341	@ 0x155
 8025a7e:	8023      	strh	r3, [r4, #0]
 8025a80:	2403      	movs	r4, #3
 8025a82:	e00d      	b.n	8025aa0 <handle_dhcp+0x294>
 8025a84:	2400021c 	.word	0x2400021c
 8025a88:	240002d0 	.word	0x240002d0
 8025a8c:	24000224 	.word	0x24000224
        PT_RESTART(&s.pt);
 8025a90:	2400      	movs	r4, #0
 8025a92:	4b04      	ldr	r3, [pc, #16]	@ (8025aa4 <handle_dhcp+0x298>)
 8025a94:	801c      	strh	r4, [r3, #0]
 8025a96:	e003      	b.n	8025aa0 <handle_dhcp+0x294>
  PT_END(&s.pt);
 8025a98:	4b02      	ldr	r3, [pc, #8]	@ (8025aa4 <handle_dhcp+0x298>)
 8025a9a:	2200      	movs	r2, #0
 8025a9c:	801a      	strh	r2, [r3, #0]
 8025a9e:	2402      	movs	r4, #2
}
 8025aa0:	4620      	mov	r0, r4
 8025aa2:	bd38      	pop	{r3, r4, r5, pc}
 8025aa4:	2400021c 	.word	0x2400021c

08025aa8 <dhcpc_appcall>:
{
 8025aa8:	b508      	push	{r3, lr}
  handle_dhcp();
 8025aaa:	f7ff feaf 	bl	802580c <handle_dhcp>
}
 8025aae:	bd08      	pop	{r3, pc}

08025ab0 <chksum>:
  u16_t t;
  const u8_t *dataptr;
  const u8_t *last_byte;

  dataptr = data;
  last_byte = data + len - 1;
 8025ab0:	3a01      	subs	r2, #1
 8025ab2:	440a      	add	r2, r1

  while (dataptr < last_byte)  	/* At least two more bytes */
 8025ab4:	e000      	b.n	8025ab8 <chksum+0x8>
    sum += t;
    if (sum < t)
    {
      sum++;		/* carry */
    }
    dataptr += 2;
 8025ab6:	3102      	adds	r1, #2
  while (dataptr < last_byte)  	/* At least two more bytes */
 8025ab8:	4291      	cmp	r1, r2
 8025aba:	d20c      	bcs.n	8025ad6 <chksum+0x26>
    t = (dataptr[0] << 8) + dataptr[1];
 8025abc:	f891 c000 	ldrb.w	ip, [r1]
 8025ac0:	784b      	ldrb	r3, [r1, #1]
 8025ac2:	eb03 230c 	add.w	r3, r3, ip, lsl #8
 8025ac6:	b29b      	uxth	r3, r3
    sum += t;
 8025ac8:	4418      	add	r0, r3
 8025aca:	b280      	uxth	r0, r0
    if (sum < t)
 8025acc:	4283      	cmp	r3, r0
 8025ace:	d9f2      	bls.n	8025ab6 <chksum+0x6>
      sum++;		/* carry */
 8025ad0:	3001      	adds	r0, #1
 8025ad2:	b280      	uxth	r0, r0
 8025ad4:	e7ef      	b.n	8025ab6 <chksum+0x6>
  }

  if (dataptr == last_byte)
 8025ad6:	d000      	beq.n	8025ada <chksum+0x2a>
    }
  }

  /* Return sum in host byte order. */
  return sum;
}
 8025ad8:	4770      	bx	lr
    t = (dataptr[0] << 8) + 0;
 8025ada:	780b      	ldrb	r3, [r1, #0]
    sum += t;
 8025adc:	eb00 2003 	add.w	r0, r0, r3, lsl #8
 8025ae0:	b280      	uxth	r0, r0
    if (sum < t)
 8025ae2:	ebb0 2f03 	cmp.w	r0, r3, lsl #8
 8025ae6:	d2f7      	bcs.n	8025ad8 <chksum+0x28>
      sum++;		/* carry */
 8025ae8:	3001      	adds	r0, #1
 8025aea:	b280      	uxth	r0, r0
 8025aec:	e7f4      	b.n	8025ad8 <chksum+0x28>
	...

08025af0 <uip_add32>:
{
 8025af0:	b510      	push	{r4, lr}
  uip_acc32[3] = op32[3] + (op16 & 0xff);
 8025af2:	78c2      	ldrb	r2, [r0, #3]
 8025af4:	440a      	add	r2, r1
 8025af6:	b2d2      	uxtb	r2, r2
 8025af8:	4c16      	ldr	r4, [pc, #88]	@ (8025b54 <uip_add32+0x64>)
 8025afa:	70e2      	strb	r2, [r4, #3]
  uip_acc32[2] = op32[2] + (op16 >> 8);
 8025afc:	7883      	ldrb	r3, [r0, #2]
 8025afe:	eb03 2311 	add.w	r3, r3, r1, lsr #8
 8025b02:	b2db      	uxtb	r3, r3
 8025b04:	70a3      	strb	r3, [r4, #2]
  uip_acc32[1] = op32[1];
 8025b06:	f890 c001 	ldrb.w	ip, [r0, #1]
 8025b0a:	f884 c001 	strb.w	ip, [r4, #1]
  uip_acc32[0] = op32[0];
 8025b0e:	f890 e000 	ldrb.w	lr, [r0]
 8025b12:	f884 e000 	strb.w	lr, [r4]
  if (uip_acc32[2] < (op16 >> 8))
 8025b16:	ebb3 2f11 	cmp.w	r3, r1, lsr #8
 8025b1a:	d209      	bcs.n	8025b30 <uip_add32+0x40>
    ++uip_acc32[1];
 8025b1c:	f10c 0c01 	add.w	ip, ip, #1
 8025b20:	fa5f f08c 	uxtb.w	r0, ip
 8025b24:	7060      	strb	r0, [r4, #1]
    if (uip_acc32[1] == 0)
 8025b26:	b918      	cbnz	r0, 8025b30 <uip_add32+0x40>
      ++uip_acc32[0];
 8025b28:	f10e 0e01 	add.w	lr, lr, #1
 8025b2c:	f884 e000 	strb.w	lr, [r4]
  if (uip_acc32[3] < (op16 & 0xff))
 8025b30:	b2c9      	uxtb	r1, r1
 8025b32:	428a      	cmp	r2, r1
 8025b34:	da0c      	bge.n	8025b50 <uip_add32+0x60>
    ++uip_acc32[2];
 8025b36:	3301      	adds	r3, #1
 8025b38:	b2db      	uxtb	r3, r3
 8025b3a:	4a06      	ldr	r2, [pc, #24]	@ (8025b54 <uip_add32+0x64>)
 8025b3c:	7093      	strb	r3, [r2, #2]
    if (uip_acc32[2] == 0)
 8025b3e:	b93b      	cbnz	r3, 8025b50 <uip_add32+0x60>
      ++uip_acc32[1];
 8025b40:	7853      	ldrb	r3, [r2, #1]
 8025b42:	3301      	adds	r3, #1
 8025b44:	b2db      	uxtb	r3, r3
 8025b46:	7053      	strb	r3, [r2, #1]
      if (uip_acc32[1] == 0)
 8025b48:	b913      	cbnz	r3, 8025b50 <uip_add32+0x60>
        ++uip_acc32[0];
 8025b4a:	7813      	ldrb	r3, [r2, #0]
 8025b4c:	3301      	adds	r3, #1
 8025b4e:	7013      	strb	r3, [r2, #0]
}
 8025b50:	bd10      	pop	{r4, pc}
 8025b52:	bf00      	nop
 8025b54:	24000254 	.word	0x24000254

08025b58 <uip_add_rcv_nxt>:
#endif /* UIP_REASSEMBLY */
/*---------------------------------------------------------------------------*/
#if UIP_TCP
static void
uip_add_rcv_nxt(u16_t n)
{
 8025b58:	b510      	push	{r4, lr}
 8025b5a:	4601      	mov	r1, r0
  uip_add32(uip_conn->rcv_nxt, n);
 8025b5c:	4c07      	ldr	r4, [pc, #28]	@ (8025b7c <uip_add_rcv_nxt+0x24>)
 8025b5e:	6820      	ldr	r0, [r4, #0]
 8025b60:	3008      	adds	r0, #8
 8025b62:	f7ff ffc5 	bl	8025af0 <uip_add32>
  uip_conn->rcv_nxt[0] = uip_acc32[0];
 8025b66:	6823      	ldr	r3, [r4, #0]
 8025b68:	4a05      	ldr	r2, [pc, #20]	@ (8025b80 <uip_add_rcv_nxt+0x28>)
 8025b6a:	7811      	ldrb	r1, [r2, #0]
 8025b6c:	7219      	strb	r1, [r3, #8]
  uip_conn->rcv_nxt[1] = uip_acc32[1];
 8025b6e:	7851      	ldrb	r1, [r2, #1]
 8025b70:	7259      	strb	r1, [r3, #9]
  uip_conn->rcv_nxt[2] = uip_acc32[2];
 8025b72:	7891      	ldrb	r1, [r2, #2]
 8025b74:	7299      	strb	r1, [r3, #10]
  uip_conn->rcv_nxt[3] = uip_acc32[3];
 8025b76:	78d2      	ldrb	r2, [r2, #3]
 8025b78:	72da      	strb	r2, [r3, #11]
}
 8025b7a:	bd10      	pop	{r4, pc}
 8025b7c:	240002cc 	.word	0x240002cc
 8025b80:	24000254 	.word	0x24000254

08025b84 <uip_init>:
  for (c = 0; c < UIP_LISTENPORTS; ++c)
 8025b84:	4b1a      	ldr	r3, [pc, #104]	@ (8025bf0 <uip_init+0x6c>)
 8025b86:	2200      	movs	r2, #0
 8025b88:	701a      	strb	r2, [r3, #0]
 8025b8a:	e006      	b.n	8025b9a <uip_init+0x16>
    uip_listenports[c] = 0;
 8025b8c:	4a19      	ldr	r2, [pc, #100]	@ (8025bf4 <uip_init+0x70>)
 8025b8e:	2100      	movs	r1, #0
 8025b90:	f822 1013 	strh.w	r1, [r2, r3, lsl #1]
  for (c = 0; c < UIP_LISTENPORTS; ++c)
 8025b94:	3301      	adds	r3, #1
 8025b96:	4a16      	ldr	r2, [pc, #88]	@ (8025bf0 <uip_init+0x6c>)
 8025b98:	7013      	strb	r3, [r2, #0]
 8025b9a:	4b15      	ldr	r3, [pc, #84]	@ (8025bf0 <uip_init+0x6c>)
 8025b9c:	781b      	ldrb	r3, [r3, #0]
 8025b9e:	2b00      	cmp	r3, #0
 8025ba0:	d0f4      	beq.n	8025b8c <uip_init+0x8>
  for (c = 0; c < UIP_CONNS; ++c)
 8025ba2:	4b13      	ldr	r3, [pc, #76]	@ (8025bf0 <uip_init+0x6c>)
 8025ba4:	2200      	movs	r2, #0
 8025ba6:	701a      	strb	r2, [r3, #0]
 8025ba8:	e009      	b.n	8025bbe <uip_init+0x3a>
    uip_conns[c].tcpstateflags = UIP_CLOSED;
 8025baa:	ebc3 1203 	rsb	r2, r3, r3, lsl #4
 8025bae:	0051      	lsls	r1, r2, #1
 8025bb0:	4a11      	ldr	r2, [pc, #68]	@ (8025bf8 <uip_init+0x74>)
 8025bb2:	440a      	add	r2, r1
 8025bb4:	2100      	movs	r1, #0
 8025bb6:	7651      	strb	r1, [r2, #25]
  for (c = 0; c < UIP_CONNS; ++c)
 8025bb8:	3301      	adds	r3, #1
 8025bba:	4a0d      	ldr	r2, [pc, #52]	@ (8025bf0 <uip_init+0x6c>)
 8025bbc:	7013      	strb	r3, [r2, #0]
 8025bbe:	4b0c      	ldr	r3, [pc, #48]	@ (8025bf0 <uip_init+0x6c>)
 8025bc0:	781b      	ldrb	r3, [r3, #0]
 8025bc2:	2b00      	cmp	r3, #0
 8025bc4:	d0f1      	beq.n	8025baa <uip_init+0x26>
  lastport = 1024;
 8025bc6:	4b0d      	ldr	r3, [pc, #52]	@ (8025bfc <uip_init+0x78>)
 8025bc8:	f44f 6280 	mov.w	r2, #1024	@ 0x400
 8025bcc:	801a      	strh	r2, [r3, #0]
  for (c = 0; c < UIP_UDP_CONNS; ++c)
 8025bce:	4b08      	ldr	r3, [pc, #32]	@ (8025bf0 <uip_init+0x6c>)
 8025bd0:	2200      	movs	r2, #0
 8025bd2:	701a      	strb	r2, [r3, #0]
 8025bd4:	e007      	b.n	8025be6 <uip_init+0x62>
    uip_udp_conns[c].lport = 0;
 8025bd6:	4a0a      	ldr	r2, [pc, #40]	@ (8025c00 <uip_init+0x7c>)
 8025bd8:	eb02 1283 	add.w	r2, r2, r3, lsl #6
 8025bdc:	2100      	movs	r1, #0
 8025bde:	8091      	strh	r1, [r2, #4]
  for (c = 0; c < UIP_UDP_CONNS; ++c)
 8025be0:	3301      	adds	r3, #1
 8025be2:	4a03      	ldr	r2, [pc, #12]	@ (8025bf0 <uip_init+0x6c>)
 8025be4:	7013      	strb	r3, [r2, #0]
 8025be6:	4b02      	ldr	r3, [pc, #8]	@ (8025bf0 <uip_init+0x6c>)
 8025be8:	781b      	ldrb	r3, [r3, #0]
 8025bea:	2b00      	cmp	r3, #0
 8025bec:	d0f3      	beq.n	8025bd6 <uip_init+0x52>
}
 8025bee:	4770      	bx	lr
 8025bf0:	24000253 	.word	0x24000253
 8025bf4:	240002a8 	.word	0x240002a8
 8025bf8:	240002ac 	.word	0x240002ac
 8025bfc:	24000258 	.word	0x24000258
 8025c00:	24000264 	.word	0x24000264

08025c04 <uip_listen>:
  for (c = 0; c < UIP_LISTENPORTS; ++c)
 8025c04:	4b09      	ldr	r3, [pc, #36]	@ (8025c2c <uip_listen+0x28>)
 8025c06:	2200      	movs	r2, #0
 8025c08:	701a      	strb	r2, [r3, #0]
 8025c0a:	e002      	b.n	8025c12 <uip_listen+0xe>
 8025c0c:	3301      	adds	r3, #1
 8025c0e:	4a07      	ldr	r2, [pc, #28]	@ (8025c2c <uip_listen+0x28>)
 8025c10:	7013      	strb	r3, [r2, #0]
 8025c12:	4b06      	ldr	r3, [pc, #24]	@ (8025c2c <uip_listen+0x28>)
 8025c14:	781b      	ldrb	r3, [r3, #0]
 8025c16:	b943      	cbnz	r3, 8025c2a <uip_listen+0x26>
    if (uip_listenports[c] == 0)
 8025c18:	4a05      	ldr	r2, [pc, #20]	@ (8025c30 <uip_listen+0x2c>)
 8025c1a:	f832 2013 	ldrh.w	r2, [r2, r3, lsl #1]
 8025c1e:	2a00      	cmp	r2, #0
 8025c20:	d1f4      	bne.n	8025c0c <uip_listen+0x8>
      uip_listenports[c] = port;
 8025c22:	4a03      	ldr	r2, [pc, #12]	@ (8025c30 <uip_listen+0x2c>)
 8025c24:	f822 0013 	strh.w	r0, [r2, r3, lsl #1]
      return;
 8025c28:	4770      	bx	lr
}
 8025c2a:	4770      	bx	lr
 8025c2c:	24000253 	.word	0x24000253
 8025c30:	240002a8 	.word	0x240002a8

08025c34 <htons>:
}
/*---------------------------------------------------------------------------*/
u16_t
htons(u16_t val)
{
  return HTONS(val);
 8025c34:	0203      	lsls	r3, r0, #8
 8025c36:	ea43 2010 	orr.w	r0, r3, r0, lsr #8
}
 8025c3a:	b280      	uxth	r0, r0
 8025c3c:	4770      	bx	lr
	...

08025c40 <uip_ipchksum>:
{
 8025c40:	b508      	push	{r3, lr}
  sum = chksum(0, &uip_buf[UIP_LLH_LEN], UIP_IPH_LEN);
 8025c42:	2214      	movs	r2, #20
 8025c44:	4905      	ldr	r1, [pc, #20]	@ (8025c5c <uip_ipchksum+0x1c>)
 8025c46:	2000      	movs	r0, #0
 8025c48:	f7ff ff32 	bl	8025ab0 <chksum>
  return (sum == 0) ? 0xffff : htons(sum);
 8025c4c:	b110      	cbz	r0, 8025c54 <uip_ipchksum+0x14>
 8025c4e:	f7ff fff1 	bl	8025c34 <htons>
}
 8025c52:	bd08      	pop	{r3, pc}
  return (sum == 0) ? 0xffff : htons(sum);
 8025c54:	f64f 70ff 	movw	r0, #65535	@ 0xffff
 8025c58:	e7fb      	b.n	8025c52 <uip_ipchksum+0x12>
 8025c5a:	bf00      	nop
 8025c5c:	240002ee 	.word	0x240002ee

08025c60 <upper_layer_chksum>:
{
 8025c60:	b538      	push	{r3, r4, r5, lr}
  upper_layer_len = (((u16_t)(BUF->len[0]) << 8) + BUF->len[1]) - UIP_IPH_LEN;
 8025c62:	4d0d      	ldr	r5, [pc, #52]	@ (8025c98 <upper_layer_chksum+0x38>)
 8025c64:	7c2b      	ldrb	r3, [r5, #16]
 8025c66:	7c6c      	ldrb	r4, [r5, #17]
 8025c68:	eb04 2403 	add.w	r4, r4, r3, lsl #8
 8025c6c:	b2a4      	uxth	r4, r4
 8025c6e:	3c14      	subs	r4, #20
 8025c70:	b2a4      	uxth	r4, r4
  sum = upper_layer_len + proto;
 8025c72:	4420      	add	r0, r4
  sum = chksum(sum, (u8_t *)&BUF->srcipaddr[0], 2 * sizeof(uip_ipaddr_t));
 8025c74:	2208      	movs	r2, #8
 8025c76:	f105 011a 	add.w	r1, r5, #26
 8025c7a:	b280      	uxth	r0, r0
 8025c7c:	f7ff ff18 	bl	8025ab0 <chksum>
  sum = chksum(sum, &uip_buf[UIP_IPH_LEN + UIP_LLH_LEN],
 8025c80:	4622      	mov	r2, r4
 8025c82:	f105 0122 	add.w	r1, r5, #34	@ 0x22
 8025c86:	f7ff ff13 	bl	8025ab0 <chksum>
  return (sum == 0) ? 0xffff : htons(sum);
 8025c8a:	b110      	cbz	r0, 8025c92 <upper_layer_chksum+0x32>
 8025c8c:	f7ff ffd2 	bl	8025c34 <htons>
}
 8025c90:	bd38      	pop	{r3, r4, r5, pc}
  return (sum == 0) ? 0xffff : htons(sum);
 8025c92:	f64f 70ff 	movw	r0, #65535	@ 0xffff
 8025c96:	e7fb      	b.n	8025c90 <upper_layer_chksum+0x30>
 8025c98:	240002e0 	.word	0x240002e0

08025c9c <uip_tcpchksum>:
{
 8025c9c:	b508      	push	{r3, lr}
  return upper_layer_chksum(UIP_PROTO_TCP);
 8025c9e:	2006      	movs	r0, #6
 8025ca0:	f7ff ffde 	bl	8025c60 <upper_layer_chksum>
}
 8025ca4:	bd08      	pop	{r3, pc}
	...

08025ca8 <uip_process>:
{
 8025ca8:	b538      	push	{r3, r4, r5, lr}
  register struct uip_conn *uip_connr = uip_conn;
 8025caa:	4b98      	ldr	r3, [pc, #608]	@ (8025f0c <uip_process+0x264>)
 8025cac:	681c      	ldr	r4, [r3, #0]
  if (flag == UIP_UDP_SEND_CONN)
 8025cae:	2804      	cmp	r0, #4
 8025cb0:	f000 8157 	beq.w	8025f62 <uip_process+0x2ba>
  uip_sappdata = uip_appdata = &uip_buf[UIP_IPTCPH_LEN + UIP_LLH_LEN];
 8025cb4:	4b96      	ldr	r3, [pc, #600]	@ (8025f10 <uip_process+0x268>)
 8025cb6:	4a97      	ldr	r2, [pc, #604]	@ (8025f14 <uip_process+0x26c>)
 8025cb8:	6013      	str	r3, [r2, #0]
 8025cba:	4a97      	ldr	r2, [pc, #604]	@ (8025f18 <uip_process+0x270>)
 8025cbc:	6013      	str	r3, [r2, #0]
  if (flag == UIP_POLL_REQUEST)
 8025cbe:	2803      	cmp	r0, #3
 8025cc0:	d059      	beq.n	8025d76 <uip_process+0xce>
  else if (flag == UIP_TIMER)
 8025cc2:	2802      	cmp	r0, #2
 8025cc4:	f000 80a2 	beq.w	8025e0c <uip_process+0x164>
  if (flag == UIP_UDP_TIMER)
 8025cc8:	2805      	cmp	r0, #5
 8025cca:	f000 8133 	beq.w	8025f34 <uip_process+0x28c>
  if (BUF->vhl != 0x45)   /* IP version and header length. */
 8025cce:	4b93      	ldr	r3, [pc, #588]	@ (8025f1c <uip_process+0x274>)
 8025cd0:	7b9b      	ldrb	r3, [r3, #14]
 8025cd2:	2b45      	cmp	r3, #69	@ 0x45
 8025cd4:	d156      	bne.n	8025d84 <uip_process+0xdc>
  if ((BUF->len[0] << 8) + BUF->len[1] <= uip_len)
 8025cd6:	4b91      	ldr	r3, [pc, #580]	@ (8025f1c <uip_process+0x274>)
 8025cd8:	7c1a      	ldrb	r2, [r3, #16]
 8025cda:	7c5b      	ldrb	r3, [r3, #17]
 8025cdc:	eb03 2002 	add.w	r0, r3, r2, lsl #8
 8025ce0:	498f      	ldr	r1, [pc, #572]	@ (8025f20 <uip_process+0x278>)
 8025ce2:	8809      	ldrh	r1, [r1, #0]
 8025ce4:	4288      	cmp	r0, r1
 8025ce6:	dc4d      	bgt.n	8025d84 <uip_process+0xdc>
    uip_len = (BUF->len[0] << 8) + BUF->len[1];
 8025ce8:	b285      	uxth	r5, r0
 8025cea:	4b8d      	ldr	r3, [pc, #564]	@ (8025f20 <uip_process+0x278>)
 8025cec:	801d      	strh	r5, [r3, #0]
  if ((BUF->ipoffset[0] & 0x3f) != 0 ||
 8025cee:	4b8b      	ldr	r3, [pc, #556]	@ (8025f1c <uip_process+0x274>)
 8025cf0:	7d1b      	ldrb	r3, [r3, #20]
 8025cf2:	f013 0f3f 	tst.w	r3, #63	@ 0x3f
 8025cf6:	d145      	bne.n	8025d84 <uip_process+0xdc>
      BUF->ipoffset[1] != 0)
 8025cf8:	4b88      	ldr	r3, [pc, #544]	@ (8025f1c <uip_process+0x274>)
 8025cfa:	7d5b      	ldrb	r3, [r3, #21]
  if ((BUF->ipoffset[0] & 0x3f) != 0 ||
 8025cfc:	2b00      	cmp	r3, #0
 8025cfe:	d141      	bne.n	8025d84 <uip_process+0xdc>
  if (uip_ipaddr_cmp(uip_hostaddr, all_zeroes_addr))
 8025d00:	4b88      	ldr	r3, [pc, #544]	@ (8025f24 <uip_process+0x27c>)
 8025d02:	881c      	ldrh	r4, [r3, #0]
 8025d04:	b90c      	cbnz	r4, 8025d0a <uip_process+0x62>
 8025d06:	885b      	ldrh	r3, [r3, #2]
 8025d08:	b14b      	cbz	r3, 8025d1e <uip_process+0x76>
    if (!uip_ipaddr_cmp(BUF->destipaddr, uip_hostaddr))
 8025d0a:	4b84      	ldr	r3, [pc, #528]	@ (8025f1c <uip_process+0x274>)
 8025d0c:	8bdb      	ldrh	r3, [r3, #30]
 8025d0e:	429c      	cmp	r4, r3
 8025d10:	d138      	bne.n	8025d84 <uip_process+0xdc>
 8025d12:	4b82      	ldr	r3, [pc, #520]	@ (8025f1c <uip_process+0x274>)
 8025d14:	8c1a      	ldrh	r2, [r3, #32]
 8025d16:	4b83      	ldr	r3, [pc, #524]	@ (8025f24 <uip_process+0x27c>)
 8025d18:	885b      	ldrh	r3, [r3, #2]
 8025d1a:	429a      	cmp	r2, r3
 8025d1c:	d132      	bne.n	8025d84 <uip_process+0xdc>
  if (uip_ipchksum() != 0xffff)
 8025d1e:	f7ff ff8f 	bl	8025c40 <uip_ipchksum>
 8025d22:	f64f 73ff 	movw	r3, #65535	@ 0xffff
 8025d26:	4298      	cmp	r0, r3
 8025d28:	d12c      	bne.n	8025d84 <uip_process+0xdc>
  if (BUF->proto == UIP_PROTO_TCP)
 8025d2a:	4b7c      	ldr	r3, [pc, #496]	@ (8025f1c <uip_process+0x274>)
 8025d2c:	7ddb      	ldrb	r3, [r3, #23]
 8025d2e:	2b06      	cmp	r3, #6
 8025d30:	f000 815c 	beq.w	8025fec <uip_process+0x344>
  if (BUF->proto == UIP_PROTO_UDP)
 8025d34:	2b11      	cmp	r3, #17
 8025d36:	f000 8182 	beq.w	802603e <uip_process+0x396>
  if (BUF->proto != UIP_PROTO_ICMP)
 8025d3a:	2b01      	cmp	r3, #1
 8025d3c:	d122      	bne.n	8025d84 <uip_process+0xdc>
  if (ICMPBUF->type != ICMP_ECHO)
 8025d3e:	4b77      	ldr	r3, [pc, #476]	@ (8025f1c <uip_process+0x274>)
 8025d40:	f893 3022 	ldrb.w	r3, [r3, #34]	@ 0x22
 8025d44:	2b08      	cmp	r3, #8
 8025d46:	d11d      	bne.n	8025d84 <uip_process+0xdc>
  ICMPBUF->type = ICMP_ECHO_REPLY;
 8025d48:	4b74      	ldr	r3, [pc, #464]	@ (8025f1c <uip_process+0x274>)
 8025d4a:	2200      	movs	r2, #0
 8025d4c:	f883 2022 	strb.w	r2, [r3, #34]	@ 0x22
  if (ICMPBUF->icmpchksum >= HTONS(0xffff - (ICMP_ECHO << 8)))
 8025d50:	8c9b      	ldrh	r3, [r3, #36]	@ 0x24
 8025d52:	f64f 72f6 	movw	r2, #65526	@ 0xfff6
 8025d56:	4293      	cmp	r3, r2
 8025d58:	f240 8178 	bls.w	802604c <uip_process+0x3a4>
    ICMPBUF->icmpchksum += HTONS(ICMP_ECHO << 8) + 1;
 8025d5c:	3309      	adds	r3, #9
 8025d5e:	4a6f      	ldr	r2, [pc, #444]	@ (8025f1c <uip_process+0x274>)
 8025d60:	8493      	strh	r3, [r2, #36]	@ 0x24
  uip_ipaddr_copy(BUF->destipaddr, BUF->srcipaddr);
 8025d62:	4b6e      	ldr	r3, [pc, #440]	@ (8025f1c <uip_process+0x274>)
 8025d64:	8b5a      	ldrh	r2, [r3, #26]
 8025d66:	83da      	strh	r2, [r3, #30]
 8025d68:	8b9a      	ldrh	r2, [r3, #28]
 8025d6a:	841a      	strh	r2, [r3, #32]
  uip_ipaddr_copy(BUF->srcipaddr, uip_hostaddr);
 8025d6c:	835c      	strh	r4, [r3, #26]
 8025d6e:	4a6d      	ldr	r2, [pc, #436]	@ (8025f24 <uip_process+0x27c>)
 8025d70:	8852      	ldrh	r2, [r2, #2]
 8025d72:	839a      	strh	r2, [r3, #28]
  goto send;
 8025d74:	e136      	b.n	8025fe4 <uip_process+0x33c>
    if ((uip_connr->tcpstateflags & UIP_TS_MASK) == UIP_ESTABLISHED &&
 8025d76:	7e63      	ldrb	r3, [r4, #25]
 8025d78:	f003 030f 	and.w	r3, r3, #15
 8025d7c:	2b03      	cmp	r3, #3
 8025d7e:	d101      	bne.n	8025d84 <uip_process+0xdc>
        !uip_outstanding(uip_connr))
 8025d80:	8a23      	ldrh	r3, [r4, #16]
    if ((uip_connr->tcpstateflags & UIP_TS_MASK) == UIP_ESTABLISHED &&
 8025d82:	b12b      	cbz	r3, 8025d90 <uip_process+0xe8>
  uip_len = 0;
 8025d84:	2300      	movs	r3, #0
 8025d86:	4a66      	ldr	r2, [pc, #408]	@ (8025f20 <uip_process+0x278>)
 8025d88:	8013      	strh	r3, [r2, #0]
  uip_flags = 0;
 8025d8a:	4a67      	ldr	r2, [pc, #412]	@ (8025f28 <uip_process+0x280>)
 8025d8c:	7013      	strb	r3, [r2, #0]
}
 8025d8e:	bd38      	pop	{r3, r4, r5, pc}
      uip_flags = UIP_POLL;
 8025d90:	4b65      	ldr	r3, [pc, #404]	@ (8025f28 <uip_process+0x280>)
 8025d92:	2208      	movs	r2, #8
 8025d94:	701a      	strb	r2, [r3, #0]
      UIP_APPCALL();
 8025d96:	f7fa fc73 	bl	8020680 <NetApp>
        if (uip_flags & UIP_ABORT)
 8025d9a:	4b63      	ldr	r3, [pc, #396]	@ (8025f28 <uip_process+0x280>)
 8025d9c:	781b      	ldrb	r3, [r3, #0]
 8025d9e:	f013 0f20 	tst.w	r3, #32
 8025da2:	f040 84a7 	bne.w	80266f4 <uip_process+0xa4c>
        if (uip_flags & UIP_CLOSE)
 8025da6:	f013 0f10 	tst.w	r3, #16
 8025daa:	f040 84f8 	bne.w	802679e <uip_process+0xaf6>
        if (uip_slen > 0)
 8025dae:	4a5f      	ldr	r2, [pc, #380]	@ (8025f2c <uip_process+0x284>)
 8025db0:	8812      	ldrh	r2, [r2, #0]
 8025db2:	b182      	cbz	r2, 8025dd6 <uip_process+0x12e>
          if ((uip_flags & UIP_ACKDATA) != 0)
 8025db4:	f013 0f01 	tst.w	r3, #1
 8025db8:	d001      	beq.n	8025dbe <uip_process+0x116>
            uip_connr->len = 0;
 8025dba:	2300      	movs	r3, #0
 8025dbc:	8223      	strh	r3, [r4, #16]
          if (uip_connr->len == 0)
 8025dbe:	8a23      	ldrh	r3, [r4, #16]
 8025dc0:	2b00      	cmp	r3, #0
 8025dc2:	f040 84f9 	bne.w	80267b8 <uip_process+0xb10>
            if (uip_slen > uip_connr->mss)
 8025dc6:	8a63      	ldrh	r3, [r4, #18]
 8025dc8:	429a      	cmp	r2, r3
 8025dca:	d901      	bls.n	8025dd0 <uip_process+0x128>
              uip_slen = uip_connr->mss;
 8025dcc:	4a57      	ldr	r2, [pc, #348]	@ (8025f2c <uip_process+0x284>)
 8025dce:	8013      	strh	r3, [r2, #0]
            uip_connr->len = uip_slen;
 8025dd0:	4b56      	ldr	r3, [pc, #344]	@ (8025f2c <uip_process+0x284>)
 8025dd2:	881b      	ldrh	r3, [r3, #0]
 8025dd4:	8223      	strh	r3, [r4, #16]
        uip_connr->nrtx = 0;
 8025dd6:	2300      	movs	r3, #0
 8025dd8:	76e3      	strb	r3, [r4, #27]
        uip_appdata = uip_sappdata;
 8025dda:	4b4f      	ldr	r3, [pc, #316]	@ (8025f18 <uip_process+0x270>)
 8025ddc:	681a      	ldr	r2, [r3, #0]
 8025dde:	4b4d      	ldr	r3, [pc, #308]	@ (8025f14 <uip_process+0x26c>)
 8025de0:	601a      	str	r2, [r3, #0]
        if (uip_slen > 0 && uip_connr->len > 0)
 8025de2:	4b52      	ldr	r3, [pc, #328]	@ (8025f2c <uip_process+0x284>)
 8025de4:	881b      	ldrh	r3, [r3, #0]
 8025de6:	b11b      	cbz	r3, 8025df0 <uip_process+0x148>
 8025de8:	8a23      	ldrh	r3, [r4, #16]
 8025dea:	2b00      	cmp	r3, #0
 8025dec:	f040 84e8 	bne.w	80267c0 <uip_process+0xb18>
        if (uip_flags & UIP_NEWDATA)
 8025df0:	4b4d      	ldr	r3, [pc, #308]	@ (8025f28 <uip_process+0x280>)
 8025df2:	781b      	ldrb	r3, [r3, #0]
 8025df4:	f013 0f02 	tst.w	r3, #2
 8025df8:	d0c4      	beq.n	8025d84 <uip_process+0xdc>
          uip_len = UIP_TCPIP_HLEN;
 8025dfa:	4b49      	ldr	r3, [pc, #292]	@ (8025f20 <uip_process+0x278>)
 8025dfc:	2228      	movs	r2, #40	@ 0x28
 8025dfe:	801a      	strh	r2, [r3, #0]
          BUF->flags = TCP_ACK;
 8025e00:	4b46      	ldr	r3, [pc, #280]	@ (8025f1c <uip_process+0x274>)
 8025e02:	2210      	movs	r2, #16
 8025e04:	f883 202f 	strb.w	r2, [r3, #47]	@ 0x2f
          goto tcp_send_noopts;
 8025e08:	f000 bc7f 	b.w	802670a <uip_process+0xa62>
    if (++iss[3] == 0)
 8025e0c:	4a48      	ldr	r2, [pc, #288]	@ (8025f30 <uip_process+0x288>)
 8025e0e:	78d3      	ldrb	r3, [r2, #3]
 8025e10:	3301      	adds	r3, #1
 8025e12:	b2db      	uxtb	r3, r3
 8025e14:	70d3      	strb	r3, [r2, #3]
 8025e16:	b963      	cbnz	r3, 8025e32 <uip_process+0x18a>
      if (++iss[2] == 0)
 8025e18:	7893      	ldrb	r3, [r2, #2]
 8025e1a:	3301      	adds	r3, #1
 8025e1c:	b2db      	uxtb	r3, r3
 8025e1e:	7093      	strb	r3, [r2, #2]
 8025e20:	b93b      	cbnz	r3, 8025e32 <uip_process+0x18a>
        if (++iss[1] == 0)
 8025e22:	7853      	ldrb	r3, [r2, #1]
 8025e24:	3301      	adds	r3, #1
 8025e26:	b2db      	uxtb	r3, r3
 8025e28:	7053      	strb	r3, [r2, #1]
 8025e2a:	b913      	cbnz	r3, 8025e32 <uip_process+0x18a>
          ++iss[0];
 8025e2c:	7813      	ldrb	r3, [r2, #0]
 8025e2e:	3301      	adds	r3, #1
 8025e30:	7013      	strb	r3, [r2, #0]
    uip_len = 0;
 8025e32:	2300      	movs	r3, #0
 8025e34:	4a3a      	ldr	r2, [pc, #232]	@ (8025f20 <uip_process+0x278>)
 8025e36:	8013      	strh	r3, [r2, #0]
    uip_slen = 0;
 8025e38:	4a3c      	ldr	r2, [pc, #240]	@ (8025f2c <uip_process+0x284>)
 8025e3a:	8013      	strh	r3, [r2, #0]
    if (uip_connr->tcpstateflags == UIP_TIME_WAIT ||
 8025e3c:	7e63      	ldrb	r3, [r4, #25]
 8025e3e:	2b05      	cmp	r3, #5
 8025e40:	bf18      	it	ne
 8025e42:	2b07      	cmpne	r3, #7
 8025e44:	d032      	beq.n	8025eac <uip_process+0x204>
    else if (uip_connr->tcpstateflags != UIP_CLOSED)
 8025e46:	2b00      	cmp	r3, #0
 8025e48:	d09c      	beq.n	8025d84 <uip_process+0xdc>
      if (uip_outstanding(uip_connr))
 8025e4a:	8a22      	ldrh	r2, [r4, #16]
 8025e4c:	2a00      	cmp	r2, #0
 8025e4e:	d051      	beq.n	8025ef4 <uip_process+0x24c>
        if (uip_connr->timer-- == 0)
 8025e50:	7ea2      	ldrb	r2, [r4, #26]
 8025e52:	1e51      	subs	r1, r2, #1
 8025e54:	76a1      	strb	r1, [r4, #26]
 8025e56:	2a00      	cmp	r2, #0
 8025e58:	d194      	bne.n	8025d84 <uip_process+0xdc>
          if (uip_connr->nrtx == UIP_MAXRTX ||
 8025e5a:	7ee2      	ldrb	r2, [r4, #27]
 8025e5c:	2a08      	cmp	r2, #8
 8025e5e:	d031      	beq.n	8025ec4 <uip_process+0x21c>
              ((uip_connr->tcpstateflags == UIP_SYN_SENT ||
 8025e60:	1e59      	subs	r1, r3, #1
 8025e62:	b2c9      	uxtb	r1, r1
          if (uip_connr->nrtx == UIP_MAXRTX ||
 8025e64:	2901      	cmp	r1, #1
 8025e66:	d92b      	bls.n	8025ec0 <uip_process+0x218>
                                         4:
 8025e68:	4610      	mov	r0, r2
 8025e6a:	2a04      	cmp	r2, #4
 8025e6c:	bf28      	it	cs
 8025e6e:	2004      	movcs	r0, #4
          uip_connr->timer = UIP_RTO << (uip_connr->nrtx > 4?
 8025e70:	2103      	movs	r1, #3
 8025e72:	4081      	lsls	r1, r0
 8025e74:	76a1      	strb	r1, [r4, #26]
          ++(uip_connr->nrtx);
 8025e76:	3201      	adds	r2, #1
 8025e78:	76e2      	strb	r2, [r4, #27]
          switch (uip_connr->tcpstateflags & UIP_TS_MASK)
 8025e7a:	f003 030f 	and.w	r3, r3, #15
 8025e7e:	3b01      	subs	r3, #1
 8025e80:	2b07      	cmp	r3, #7
 8025e82:	f63f af7f 	bhi.w	8025d84 <uip_process+0xdc>
 8025e86:	a201      	add	r2, pc, #4	@ (adr r2, 8025e8c <uip_process+0x1e4>)
 8025e88:	f852 f023 	ldr.w	pc, [r2, r3, lsl #2]
 8025e8c:	080262ff 	.word	0x080262ff
 8025e90:	08025edf 	.word	0x08025edf
 8025e94:	08025ee9 	.word	0x08025ee9
 8025e98:	0802663f 	.word	0x0802663f
 8025e9c:	08025d85 	.word	0x08025d85
 8025ea0:	0802663f 	.word	0x0802663f
 8025ea4:	08025d85 	.word	0x08025d85
 8025ea8:	0802663f 	.word	0x0802663f
      ++(uip_connr->timer);
 8025eac:	7ea3      	ldrb	r3, [r4, #26]
 8025eae:	3301      	adds	r3, #1
 8025eb0:	b2db      	uxtb	r3, r3
 8025eb2:	76a3      	strb	r3, [r4, #26]
      if (uip_connr->timer == UIP_TIME_WAIT_TIMEOUT)
 8025eb4:	2b78      	cmp	r3, #120	@ 0x78
 8025eb6:	f47f af65 	bne.w	8025d84 <uip_process+0xdc>
        uip_connr->tcpstateflags = UIP_CLOSED;
 8025eba:	2300      	movs	r3, #0
 8025ebc:	7663      	strb	r3, [r4, #25]
 8025ebe:	e761      	b.n	8025d84 <uip_process+0xdc>
                uip_connr->tcpstateflags == UIP_SYN_RCVD) &&
 8025ec0:	2a05      	cmp	r2, #5
 8025ec2:	d1d1      	bne.n	8025e68 <uip_process+0x1c0>
            uip_connr->tcpstateflags = UIP_CLOSED;
 8025ec4:	2300      	movs	r3, #0
 8025ec6:	7663      	strb	r3, [r4, #25]
            uip_flags = UIP_TIMEDOUT;
 8025ec8:	4b17      	ldr	r3, [pc, #92]	@ (8025f28 <uip_process+0x280>)
 8025eca:	2280      	movs	r2, #128	@ 0x80
 8025ecc:	701a      	strb	r2, [r3, #0]
            UIP_APPCALL();
 8025ece:	f7fa fbd7 	bl	8020680 <NetApp>
            BUF->flags = TCP_RST | TCP_ACK;
 8025ed2:	4b12      	ldr	r3, [pc, #72]	@ (8025f1c <uip_process+0x274>)
 8025ed4:	2214      	movs	r2, #20
 8025ed6:	f883 202f 	strb.w	r2, [r3, #47]	@ 0x2f
            goto tcp_send_nodata;
 8025eda:	f000 bc13 	b.w	8026704 <uip_process+0xa5c>
              BUF->flags = 0;
 8025ede:	4b0f      	ldr	r3, [pc, #60]	@ (8025f1c <uip_process+0x274>)
 8025ee0:	2200      	movs	r2, #0
 8025ee2:	f883 202f 	strb.w	r2, [r3, #47]	@ 0x2f
              goto tcp_send_syn;
 8025ee6:	e20e      	b.n	8026306 <uip_process+0x65e>
              uip_flags = UIP_REXMIT;
 8025ee8:	4b0f      	ldr	r3, [pc, #60]	@ (8025f28 <uip_process+0x280>)
 8025eea:	2204      	movs	r2, #4
 8025eec:	701a      	strb	r2, [r3, #0]
              UIP_APPCALL();
 8025eee:	f7fa fbc7 	bl	8020680 <NetApp>
              goto apprexmit;
 8025ef2:	e772      	b.n	8025dda <uip_process+0x132>
      else if ((uip_connr->tcpstateflags & UIP_TS_MASK) == UIP_ESTABLISHED)
 8025ef4:	f003 030f 	and.w	r3, r3, #15
 8025ef8:	2b03      	cmp	r3, #3
 8025efa:	f47f af43 	bne.w	8025d84 <uip_process+0xdc>
        uip_flags = UIP_POLL;
 8025efe:	4b0a      	ldr	r3, [pc, #40]	@ (8025f28 <uip_process+0x280>)
 8025f00:	2208      	movs	r2, #8
 8025f02:	701a      	strb	r2, [r3, #0]
        UIP_APPCALL();
 8025f04:	f7fa fbbc 	bl	8020680 <NetApp>
        goto appsend;
 8025f08:	e747      	b.n	8025d9a <uip_process+0xf2>
 8025f0a:	bf00      	nop
 8025f0c:	240002cc 	.word	0x240002cc
 8025f10:	24000316 	.word	0x24000316
 8025f14:	240002dc 	.word	0x240002dc
 8025f18:	240002d8 	.word	0x240002d8
 8025f1c:	240002e0 	.word	0x240002e0
 8025f20:	240002d4 	.word	0x240002d4
 8025f24:	240008e4 	.word	0x240008e4
 8025f28:	240002d0 	.word	0x240002d0
 8025f2c:	240002d2 	.word	0x240002d2
 8025f30:	2400025c 	.word	0x2400025c
    if (uip_udp_conn->lport != 0)
 8025f34:	4b96      	ldr	r3, [pc, #600]	@ (8026190 <uip_process+0x4e8>)
 8025f36:	681b      	ldr	r3, [r3, #0]
 8025f38:	889b      	ldrh	r3, [r3, #4]
 8025f3a:	2b00      	cmp	r3, #0
 8025f3c:	f43f af22 	beq.w	8025d84 <uip_process+0xdc>
      uip_conn = NULL;
 8025f40:	2300      	movs	r3, #0
 8025f42:	4a94      	ldr	r2, [pc, #592]	@ (8026194 <uip_process+0x4ec>)
 8025f44:	6013      	str	r3, [r2, #0]
      uip_sappdata = uip_appdata = &uip_buf[UIP_LLH_LEN + UIP_IPUDPH_LEN];
 8025f46:	4a94      	ldr	r2, [pc, #592]	@ (8026198 <uip_process+0x4f0>)
 8025f48:	4994      	ldr	r1, [pc, #592]	@ (802619c <uip_process+0x4f4>)
 8025f4a:	600a      	str	r2, [r1, #0]
 8025f4c:	4994      	ldr	r1, [pc, #592]	@ (80261a0 <uip_process+0x4f8>)
 8025f4e:	600a      	str	r2, [r1, #0]
      uip_len = uip_slen = 0;
 8025f50:	4a94      	ldr	r2, [pc, #592]	@ (80261a4 <uip_process+0x4fc>)
 8025f52:	8013      	strh	r3, [r2, #0]
 8025f54:	4a94      	ldr	r2, [pc, #592]	@ (80261a8 <uip_process+0x500>)
 8025f56:	8013      	strh	r3, [r2, #0]
      uip_flags = UIP_POLL;
 8025f58:	4b94      	ldr	r3, [pc, #592]	@ (80261ac <uip_process+0x504>)
 8025f5a:	2208      	movs	r2, #8
 8025f5c:	701a      	strb	r2, [r3, #0]
      UIP_UDP_APPCALL();
 8025f5e:	f7ff fda3 	bl	8025aa8 <dhcpc_appcall>
  if (uip_slen == 0)
 8025f62:	4b90      	ldr	r3, [pc, #576]	@ (80261a4 <uip_process+0x4fc>)
 8025f64:	881a      	ldrh	r2, [r3, #0]
 8025f66:	2a00      	cmp	r2, #0
 8025f68:	f43f af0c 	beq.w	8025d84 <uip_process+0xdc>
  uip_len = uip_slen + UIP_IPUDPH_LEN;
 8025f6c:	f102 011c 	add.w	r1, r2, #28
 8025f70:	b289      	uxth	r1, r1
 8025f72:	4b8d      	ldr	r3, [pc, #564]	@ (80261a8 <uip_process+0x500>)
 8025f74:	8019      	strh	r1, [r3, #0]
  BUF->len[0] = (uip_len >> 8);
 8025f76:	4b8e      	ldr	r3, [pc, #568]	@ (80261b0 <uip_process+0x508>)
 8025f78:	0a08      	lsrs	r0, r1, #8
 8025f7a:	7418      	strb	r0, [r3, #16]
  BUF->len[1] = (uip_len & 0xff);
 8025f7c:	7459      	strb	r1, [r3, #17]
  BUF->ttl = uip_udp_conn->ttl;
 8025f7e:	4984      	ldr	r1, [pc, #528]	@ (8026190 <uip_process+0x4e8>)
 8025f80:	6809      	ldr	r1, [r1, #0]
 8025f82:	7a08      	ldrb	r0, [r1, #8]
 8025f84:	7598      	strb	r0, [r3, #22]
  BUF->proto = UIP_PROTO_UDP;
 8025f86:	2011      	movs	r0, #17
 8025f88:	75d8      	strb	r0, [r3, #23]
  UDPBUF->udplen = HTONS(uip_slen + UIP_UDPH_LEN);
 8025f8a:	3208      	adds	r2, #8
 8025f8c:	b290      	uxth	r0, r2
 8025f8e:	f3c2 2207 	ubfx	r2, r2, #8, #8
 8025f92:	ea42 2200 	orr.w	r2, r2, r0, lsl #8
 8025f96:	84da      	strh	r2, [r3, #38]	@ 0x26
  UDPBUF->udpchksum = 0;
 8025f98:	2200      	movs	r2, #0
 8025f9a:	851a      	strh	r2, [r3, #40]	@ 0x28
  BUF->srcport  = uip_udp_conn->lport;
 8025f9c:	888a      	ldrh	r2, [r1, #4]
 8025f9e:	845a      	strh	r2, [r3, #34]	@ 0x22
  BUF->destport = uip_udp_conn->rport;
 8025fa0:	88ca      	ldrh	r2, [r1, #6]
 8025fa2:	849a      	strh	r2, [r3, #36]	@ 0x24
  uip_ipaddr_copy(BUF->srcipaddr, uip_hostaddr);
 8025fa4:	4a83      	ldr	r2, [pc, #524]	@ (80261b4 <uip_process+0x50c>)
 8025fa6:	8810      	ldrh	r0, [r2, #0]
 8025fa8:	8358      	strh	r0, [r3, #26]
 8025faa:	8852      	ldrh	r2, [r2, #2]
 8025fac:	839a      	strh	r2, [r3, #28]
  uip_ipaddr_copy(BUF->destipaddr, uip_udp_conn->ripaddr);
 8025fae:	880a      	ldrh	r2, [r1, #0]
 8025fb0:	83da      	strh	r2, [r3, #30]
 8025fb2:	884a      	ldrh	r2, [r1, #2]
 8025fb4:	841a      	strh	r2, [r3, #32]
  uip_appdata = &uip_buf[UIP_LLH_LEN + UIP_IPTCPH_LEN];
 8025fb6:	3336      	adds	r3, #54	@ 0x36
 8025fb8:	4a78      	ldr	r2, [pc, #480]	@ (802619c <uip_process+0x4f4>)
 8025fba:	6013      	str	r3, [r2, #0]
  BUF->vhl = 0x45;
 8025fbc:	4c7c      	ldr	r4, [pc, #496]	@ (80261b0 <uip_process+0x508>)
 8025fbe:	2345      	movs	r3, #69	@ 0x45
 8025fc0:	73a3      	strb	r3, [r4, #14]
  BUF->tos = 0;
 8025fc2:	2200      	movs	r2, #0
 8025fc4:	73e2      	strb	r2, [r4, #15]
  BUF->ipoffset[0] = BUF->ipoffset[1] = 0;
 8025fc6:	7562      	strb	r2, [r4, #21]
 8025fc8:	7522      	strb	r2, [r4, #20]
  ++ipid;
 8025fca:	497b      	ldr	r1, [pc, #492]	@ (80261b8 <uip_process+0x510>)
 8025fcc:	880b      	ldrh	r3, [r1, #0]
 8025fce:	3301      	adds	r3, #1
 8025fd0:	b29b      	uxth	r3, r3
 8025fd2:	800b      	strh	r3, [r1, #0]
  BUF->ipid[0] = ipid >> 8;
 8025fd4:	0a19      	lsrs	r1, r3, #8
 8025fd6:	74a1      	strb	r1, [r4, #18]
  BUF->ipid[1] = ipid & 0xff;
 8025fd8:	74e3      	strb	r3, [r4, #19]
  BUF->ipchksum = 0;
 8025fda:	8322      	strh	r2, [r4, #24]
  BUF->ipchksum = ~(uip_ipchksum());
 8025fdc:	f7ff fe30 	bl	8025c40 <uip_ipchksum>
 8025fe0:	43c0      	mvns	r0, r0
 8025fe2:	8320      	strh	r0, [r4, #24]
  uip_flags = 0;
 8025fe4:	4b71      	ldr	r3, [pc, #452]	@ (80261ac <uip_process+0x504>)
 8025fe6:	2200      	movs	r2, #0
 8025fe8:	701a      	strb	r2, [r3, #0]
  return;
 8025fea:	e6d0      	b.n	8025d8e <uip_process+0xe6>
  if (uip_tcpchksum() != 0xffff)
 8025fec:	f7ff fe56 	bl	8025c9c <uip_tcpchksum>
 8025ff0:	f64f 73ff 	movw	r3, #65535	@ 0xffff
 8025ff4:	4298      	cmp	r0, r3
 8025ff6:	f47f aec5 	bne.w	8025d84 <uip_process+0xdc>
  for (uip_connr = &uip_conns[0]; uip_connr <= &uip_conns[UIP_CONNS - 1];
 8025ffa:	4c70      	ldr	r4, [pc, #448]	@ (80261bc <uip_process+0x514>)
 8025ffc:	4b6f      	ldr	r3, [pc, #444]	@ (80261bc <uip_process+0x514>)
 8025ffe:	429c      	cmp	r4, r3
 8026000:	d968      	bls.n	80260d4 <uip_process+0x42c>
  if ((BUF->flags & TCP_CTL) != TCP_SYN)
 8026002:	4b6b      	ldr	r3, [pc, #428]	@ (80261b0 <uip_process+0x508>)
 8026004:	f893 302f 	ldrb.w	r3, [r3, #47]	@ 0x2f
 8026008:	f003 033f 	and.w	r3, r3, #63	@ 0x3f
 802600c:	2b02      	cmp	r3, #2
 802600e:	f040 8238 	bne.w	8026482 <uip_process+0x7da>
  tmp16 = BUF->destport;
 8026012:	4b67      	ldr	r3, [pc, #412]	@ (80261b0 <uip_process+0x508>)
 8026014:	8c99      	ldrh	r1, [r3, #36]	@ 0x24
 8026016:	4b6a      	ldr	r3, [pc, #424]	@ (80261c0 <uip_process+0x518>)
 8026018:	8019      	strh	r1, [r3, #0]
  for (c = 0; c < UIP_LISTENPORTS; ++c)
 802601a:	4b6a      	ldr	r3, [pc, #424]	@ (80261c4 <uip_process+0x51c>)
 802601c:	2200      	movs	r2, #0
 802601e:	701a      	strb	r2, [r3, #0]
 8026020:	4b68      	ldr	r3, [pc, #416]	@ (80261c4 <uip_process+0x51c>)
 8026022:	781b      	ldrb	r3, [r3, #0]
 8026024:	2b00      	cmp	r3, #0
 8026026:	f040 822c 	bne.w	8026482 <uip_process+0x7da>
    if (tmp16 == uip_listenports[c])
 802602a:	4a67      	ldr	r2, [pc, #412]	@ (80261c8 <uip_process+0x520>)
 802602c:	f832 2013 	ldrh.w	r2, [r2, r3, lsl #1]
 8026030:	4291      	cmp	r1, r2
 8026032:	f000 80cf 	beq.w	80261d4 <uip_process+0x52c>
  for (c = 0; c < UIP_LISTENPORTS; ++c)
 8026036:	3301      	adds	r3, #1
 8026038:	4a62      	ldr	r2, [pc, #392]	@ (80261c4 <uip_process+0x51c>)
 802603a:	7013      	strb	r3, [r2, #0]
 802603c:	e7f0      	b.n	8026020 <uip_process+0x378>
  uip_len = uip_len - UIP_IPUDPH_LEN;
 802603e:	3d1c      	subs	r5, #28
 8026040:	4b59      	ldr	r3, [pc, #356]	@ (80261a8 <uip_process+0x500>)
 8026042:	801d      	strh	r5, [r3, #0]
  for (uip_udp_conn = &uip_udp_conns[0];
 8026044:	4b52      	ldr	r3, [pc, #328]	@ (8026190 <uip_process+0x4e8>)
 8026046:	4a61      	ldr	r2, [pc, #388]	@ (80261cc <uip_process+0x524>)
 8026048:	601a      	str	r2, [r3, #0]
 802604a:	e012      	b.n	8026072 <uip_process+0x3ca>
    ICMPBUF->icmpchksum += HTONS(ICMP_ECHO << 8);
 802604c:	3308      	adds	r3, #8
 802604e:	4a58      	ldr	r2, [pc, #352]	@ (80261b0 <uip_process+0x508>)
 8026050:	8493      	strh	r3, [r2, #36]	@ 0x24
 8026052:	e686      	b.n	8025d62 <uip_process+0xba>
        (uip_ipaddr_cmp(uip_udp_conn->ripaddr, all_zeroes_addr) ||
 8026054:	881a      	ldrh	r2, [r3, #0]
         uip_udp_conn->rport == HTONS(69)) &&
 8026056:	b90a      	cbnz	r2, 802605c <uip_process+0x3b4>
        (uip_ipaddr_cmp(uip_udp_conn->ripaddr, all_zeroes_addr) ||
 8026058:	8859      	ldrh	r1, [r3, #2]
 802605a:	b329      	cbz	r1, 80260a8 <uip_process+0x400>
 802605c:	f64f 71ff 	movw	r1, #65535	@ 0xffff
 8026060:	428a      	cmp	r2, r1
 8026062:	d01e      	beq.n	80260a2 <uip_process+0x3fa>
         uip_ipaddr_cmp(BUF->srcipaddr, uip_udp_conn->ripaddr)))
 8026064:	4952      	ldr	r1, [pc, #328]	@ (80261b0 <uip_process+0x508>)
 8026066:	8b49      	ldrh	r1, [r1, #26]
         uip_ipaddr_cmp(uip_udp_conn->ripaddr, all_ones_addr) ||
 8026068:	428a      	cmp	r2, r1
 802606a:	d02d      	beq.n	80260c8 <uip_process+0x420>
       ++uip_udp_conn)
 802606c:	3340      	adds	r3, #64	@ 0x40
 802606e:	4a48      	ldr	r2, [pc, #288]	@ (8026190 <uip_process+0x4e8>)
 8026070:	6013      	str	r3, [r2, #0]
       uip_udp_conn < &uip_udp_conns[UIP_UDP_CONNS];
 8026072:	4b47      	ldr	r3, [pc, #284]	@ (8026190 <uip_process+0x4e8>)
 8026074:	681b      	ldr	r3, [r3, #0]
 8026076:	4a56      	ldr	r2, [pc, #344]	@ (80261d0 <uip_process+0x528>)
 8026078:	4293      	cmp	r3, r2
 802607a:	f4bf ae83 	bcs.w	8025d84 <uip_process+0xdc>
    if (uip_udp_conn->lport != 0 &&
 802607e:	889a      	ldrh	r2, [r3, #4]
 8026080:	2a00      	cmp	r2, #0
 8026082:	d0f3      	beq.n	802606c <uip_process+0x3c4>
        UDPBUF->destport == uip_udp_conn->lport &&
 8026084:	494a      	ldr	r1, [pc, #296]	@ (80261b0 <uip_process+0x508>)
 8026086:	8c89      	ldrh	r1, [r1, #36]	@ 0x24
    if (uip_udp_conn->lport != 0 &&
 8026088:	428a      	cmp	r2, r1
 802608a:	d1ef      	bne.n	802606c <uip_process+0x3c4>
        (uip_udp_conn->rport == 0 ||
 802608c:	88da      	ldrh	r2, [r3, #6]
        UDPBUF->destport == uip_udp_conn->lport &&
 802608e:	2a00      	cmp	r2, #0
 8026090:	d0e0      	beq.n	8026054 <uip_process+0x3ac>
         UDPBUF->srcport == uip_udp_conn->rport ||
 8026092:	4947      	ldr	r1, [pc, #284]	@ (80261b0 <uip_process+0x508>)
 8026094:	8c49      	ldrh	r1, [r1, #34]	@ 0x22
        (uip_udp_conn->rport == 0 ||
 8026096:	428a      	cmp	r2, r1
 8026098:	d0dc      	beq.n	8026054 <uip_process+0x3ac>
         UDPBUF->srcport == uip_udp_conn->rport ||
 802609a:	f5b2 4f8a 	cmp.w	r2, #17664	@ 0x4500
 802609e:	d1e5      	bne.n	802606c <uip_process+0x3c4>
 80260a0:	e7d8      	b.n	8026054 <uip_process+0x3ac>
         uip_ipaddr_cmp(uip_udp_conn->ripaddr, all_ones_addr) ||
 80260a2:	8858      	ldrh	r0, [r3, #2]
 80260a4:	4288      	cmp	r0, r1
 80260a6:	d1dd      	bne.n	8026064 <uip_process+0x3bc>
  uip_conn = NULL;
 80260a8:	2300      	movs	r3, #0
 80260aa:	4a3a      	ldr	r2, [pc, #232]	@ (8026194 <uip_process+0x4ec>)
 80260ac:	6013      	str	r3, [r2, #0]
  uip_flags = UIP_NEWDATA;
 80260ae:	4a3f      	ldr	r2, [pc, #252]	@ (80261ac <uip_process+0x504>)
 80260b0:	2102      	movs	r1, #2
 80260b2:	7011      	strb	r1, [r2, #0]
  uip_sappdata = uip_appdata = &uip_buf[UIP_LLH_LEN + UIP_IPUDPH_LEN];
 80260b4:	4a38      	ldr	r2, [pc, #224]	@ (8026198 <uip_process+0x4f0>)
 80260b6:	4939      	ldr	r1, [pc, #228]	@ (802619c <uip_process+0x4f4>)
 80260b8:	600a      	str	r2, [r1, #0]
 80260ba:	4939      	ldr	r1, [pc, #228]	@ (80261a0 <uip_process+0x4f8>)
 80260bc:	600a      	str	r2, [r1, #0]
  uip_slen = 0;
 80260be:	4a39      	ldr	r2, [pc, #228]	@ (80261a4 <uip_process+0x4fc>)
 80260c0:	8013      	strh	r3, [r2, #0]
  UIP_UDP_APPCALL();
 80260c2:	f7ff fcf1 	bl	8025aa8 <dhcpc_appcall>
 80260c6:	e74c      	b.n	8025f62 <uip_process+0x2ba>
         uip_ipaddr_cmp(BUF->srcipaddr, uip_udp_conn->ripaddr)))
 80260c8:	4a39      	ldr	r2, [pc, #228]	@ (80261b0 <uip_process+0x508>)
 80260ca:	8b91      	ldrh	r1, [r2, #28]
 80260cc:	885a      	ldrh	r2, [r3, #2]
 80260ce:	4291      	cmp	r1, r2
 80260d0:	d1cc      	bne.n	802606c <uip_process+0x3c4>
 80260d2:	e7e9      	b.n	80260a8 <uip_process+0x400>
    if (uip_connr->tcpstateflags != UIP_CLOSED &&
 80260d4:	7e61      	ldrb	r1, [r4, #25]
 80260d6:	b121      	cbz	r1, 80260e2 <uip_process+0x43a>
        BUF->destport == uip_connr->lport &&
 80260d8:	4b35      	ldr	r3, [pc, #212]	@ (80261b0 <uip_process+0x508>)
 80260da:	8c9a      	ldrh	r2, [r3, #36]	@ 0x24
 80260dc:	88a3      	ldrh	r3, [r4, #4]
    if (uip_connr->tcpstateflags != UIP_CLOSED &&
 80260de:	429a      	cmp	r2, r3
 80260e0:	d001      	beq.n	80260e6 <uip_process+0x43e>
       ++uip_connr)
 80260e2:	341e      	adds	r4, #30
 80260e4:	e78a      	b.n	8025ffc <uip_process+0x354>
        BUF->srcport == uip_connr->rport &&
 80260e6:	4b32      	ldr	r3, [pc, #200]	@ (80261b0 <uip_process+0x508>)
 80260e8:	8c5a      	ldrh	r2, [r3, #34]	@ 0x22
 80260ea:	88e3      	ldrh	r3, [r4, #6]
        BUF->destport == uip_connr->lport &&
 80260ec:	429a      	cmp	r2, r3
 80260ee:	d1f8      	bne.n	80260e2 <uip_process+0x43a>
        uip_ipaddr_cmp(BUF->srcipaddr, uip_connr->ripaddr))
 80260f0:	4b2f      	ldr	r3, [pc, #188]	@ (80261b0 <uip_process+0x508>)
 80260f2:	8b5a      	ldrh	r2, [r3, #26]
 80260f4:	8823      	ldrh	r3, [r4, #0]
        BUF->srcport == uip_connr->rport &&
 80260f6:	429a      	cmp	r2, r3
 80260f8:	d1f3      	bne.n	80260e2 <uip_process+0x43a>
        uip_ipaddr_cmp(BUF->srcipaddr, uip_connr->ripaddr))
 80260fa:	4b2d      	ldr	r3, [pc, #180]	@ (80261b0 <uip_process+0x508>)
 80260fc:	8b9a      	ldrh	r2, [r3, #28]
 80260fe:	8863      	ldrh	r3, [r4, #2]
 8026100:	429a      	cmp	r2, r3
 8026102:	d1ee      	bne.n	80260e2 <uip_process+0x43a>
  uip_conn = uip_connr;
 8026104:	4b23      	ldr	r3, [pc, #140]	@ (8026194 <uip_process+0x4ec>)
 8026106:	601c      	str	r4, [r3, #0]
  uip_flags = 0;
 8026108:	4b28      	ldr	r3, [pc, #160]	@ (80261ac <uip_process+0x504>)
 802610a:	2200      	movs	r2, #0
 802610c:	701a      	strb	r2, [r3, #0]
  if (BUF->flags & TCP_RST)
 802610e:	4b28      	ldr	r3, [pc, #160]	@ (80261b0 <uip_process+0x508>)
 8026110:	f893 202f 	ldrb.w	r2, [r3, #47]	@ 0x2f
 8026114:	f012 0f04 	tst.w	r2, #4
 8026118:	f040 810f 	bne.w	802633a <uip_process+0x692>
  c = (BUF->tcpoffset >> 4) << 2;
 802611c:	4b24      	ldr	r3, [pc, #144]	@ (80261b0 <uip_process+0x508>)
 802611e:	f893 302e 	ldrb.w	r3, [r3, #46]	@ 0x2e
 8026122:	091b      	lsrs	r3, r3, #4
 8026124:	009b      	lsls	r3, r3, #2
 8026126:	4827      	ldr	r0, [pc, #156]	@ (80261c4 <uip_process+0x51c>)
 8026128:	7003      	strb	r3, [r0, #0]
  uip_len = uip_len - c - UIP_IPH_LEN;
 802612a:	1aeb      	subs	r3, r5, r3
 802612c:	b29b      	uxth	r3, r3
 802612e:	3b14      	subs	r3, #20
 8026130:	b29b      	uxth	r3, r3
 8026132:	481d      	ldr	r0, [pc, #116]	@ (80261a8 <uip_process+0x500>)
 8026134:	8003      	strh	r3, [r0, #0]
  if (!(((uip_connr->tcpstateflags & UIP_TS_MASK) == UIP_SYN_SENT) &&
 8026136:	f001 010f 	and.w	r1, r1, #15
 802613a:	2902      	cmp	r1, #2
 802613c:	f000 8105 	beq.w	802634a <uip_process+0x6a2>
    if ((uip_len > 0 || ((BUF->flags & (TCP_SYN | TCP_FIN)) != 0)) &&
 8026140:	b913      	cbnz	r3, 8026148 <uip_process+0x4a0>
 8026142:	f012 0f03 	tst.w	r2, #3
 8026146:	d00b      	beq.n	8026160 <uip_process+0x4b8>
        (BUF->seqno[0] != uip_connr->rcv_nxt[0] ||
 8026148:	4b19      	ldr	r3, [pc, #100]	@ (80261b0 <uip_process+0x508>)
 802614a:	8cd9      	ldrh	r1, [r3, #38]	@ 0x26
 802614c:	8923      	ldrh	r3, [r4, #8]
    if ((uip_len > 0 || ((BUF->flags & (TCP_SYN | TCP_FIN)) != 0)) &&
 802614e:	4299      	cmp	r1, r3
 8026150:	f040 838d 	bne.w	802686e <uip_process+0xbc6>
         BUF->seqno[2] != uip_connr->rcv_nxt[2] ||
 8026154:	4b16      	ldr	r3, [pc, #88]	@ (80261b0 <uip_process+0x508>)
 8026156:	8d19      	ldrh	r1, [r3, #40]	@ 0x28
 8026158:	8963      	ldrh	r3, [r4, #10]
 802615a:	4299      	cmp	r1, r3
 802615c:	f040 8387 	bne.w	802686e <uip_process+0xbc6>
  if ((BUF->flags & TCP_ACK) && uip_outstanding(uip_connr))
 8026160:	f012 0f10 	tst.w	r2, #16
 8026164:	d003      	beq.n	802616e <uip_process+0x4c6>
 8026166:	8a21      	ldrh	r1, [r4, #16]
 8026168:	2900      	cmp	r1, #0
 802616a:	f040 80f4 	bne.w	8026356 <uip_process+0x6ae>
  switch (uip_connr->tcpstateflags & UIP_TS_MASK)
 802616e:	7e62      	ldrb	r2, [r4, #25]
 8026170:	f002 030f 	and.w	r3, r2, #15
 8026174:	3b01      	subs	r3, #1
 8026176:	2b07      	cmp	r3, #7
 8026178:	f63f ae04 	bhi.w	8025d84 <uip_process+0xdc>
 802617c:	e8df f013 	tbh	[pc, r3, lsl #1]
 8026180:	016c013a 	.word	0x016c013a
 8026184:	03370239 	.word	0x03370239
 8026188:	038c0369 	.word	0x038c0369
 802618c:	03280377 	.word	0x03280377
 8026190:	240002a4 	.word	0x240002a4
 8026194:	240002cc 	.word	0x240002cc
 8026198:	2400030a 	.word	0x2400030a
 802619c:	240002dc 	.word	0x240002dc
 80261a0:	240002d8 	.word	0x240002d8
 80261a4:	240002d2 	.word	0x240002d2
 80261a8:	240002d4 	.word	0x240002d4
 80261ac:	240002d0 	.word	0x240002d0
 80261b0:	240002e0 	.word	0x240002e0
 80261b4:	240008e4 	.word	0x240008e4
 80261b8:	24000260 	.word	0x24000260
 80261bc:	240002ac 	.word	0x240002ac
 80261c0:	24000250 	.word	0x24000250
 80261c4:	24000253 	.word	0x24000253
 80261c8:	240002a8 	.word	0x240002a8
 80261cc:	24000264 	.word	0x24000264
 80261d0:	240002a4 	.word	0x240002a4
  for (c = 0; c < UIP_CONNS; ++c)
 80261d4:	2400      	movs	r4, #0
 80261d6:	4b95      	ldr	r3, [pc, #596]	@ (802642c <uip_process+0x784>)
 80261d8:	701c      	strb	r4, [r3, #0]
 80261da:	e041      	b.n	8026260 <uip_process+0x5b8>
      uip_connr = &uip_conns[c];
 80261dc:	221e      	movs	r2, #30
 80261de:	4c94      	ldr	r4, [pc, #592]	@ (8026430 <uip_process+0x788>)
 80261e0:	fb02 4403 	mla	r4, r2, r3, r4
  uip_conn = uip_connr;
 80261e4:	4b93      	ldr	r3, [pc, #588]	@ (8026434 <uip_process+0x78c>)
 80261e6:	601c      	str	r4, [r3, #0]
  uip_connr->rto = uip_connr->timer = UIP_RTO;
 80261e8:	2303      	movs	r3, #3
 80261ea:	76a3      	strb	r3, [r4, #26]
 80261ec:	7623      	strb	r3, [r4, #24]
  uip_connr->sa = 0;
 80261ee:	2300      	movs	r3, #0
 80261f0:	75a3      	strb	r3, [r4, #22]
  uip_connr->sv = 4;
 80261f2:	2204      	movs	r2, #4
 80261f4:	75e2      	strb	r2, [r4, #23]
  uip_connr->nrtx = 0;
 80261f6:	76e3      	strb	r3, [r4, #27]
  uip_connr->lport = BUF->destport;
 80261f8:	4d8f      	ldr	r5, [pc, #572]	@ (8026438 <uip_process+0x790>)
 80261fa:	8cab      	ldrh	r3, [r5, #36]	@ 0x24
 80261fc:	80a3      	strh	r3, [r4, #4]
  uip_connr->rport = BUF->srcport;
 80261fe:	8c6b      	ldrh	r3, [r5, #34]	@ 0x22
 8026200:	80e3      	strh	r3, [r4, #6]
  uip_ipaddr_copy(uip_connr->ripaddr, BUF->srcipaddr);
 8026202:	8b6b      	ldrh	r3, [r5, #26]
 8026204:	8023      	strh	r3, [r4, #0]
 8026206:	8bab      	ldrh	r3, [r5, #28]
 8026208:	8063      	strh	r3, [r4, #2]
  uip_connr->tcpstateflags = UIP_SYN_RCVD;
 802620a:	2001      	movs	r0, #1
 802620c:	7660      	strb	r0, [r4, #25]
  uip_connr->snd_nxt[0] = iss[0];
 802620e:	4b8b      	ldr	r3, [pc, #556]	@ (802643c <uip_process+0x794>)
 8026210:	781a      	ldrb	r2, [r3, #0]
 8026212:	7322      	strb	r2, [r4, #12]
  uip_connr->snd_nxt[1] = iss[1];
 8026214:	785a      	ldrb	r2, [r3, #1]
 8026216:	7362      	strb	r2, [r4, #13]
  uip_connr->snd_nxt[2] = iss[2];
 8026218:	789a      	ldrb	r2, [r3, #2]
 802621a:	73a2      	strb	r2, [r4, #14]
  uip_connr->snd_nxt[3] = iss[3];
 802621c:	78db      	ldrb	r3, [r3, #3]
 802621e:	73e3      	strb	r3, [r4, #15]
  uip_connr->len = 1;
 8026220:	8220      	strh	r0, [r4, #16]
  uip_connr->rcv_nxt[3] = BUF->seqno[3];
 8026222:	f895 3029 	ldrb.w	r3, [r5, #41]	@ 0x29
 8026226:	72e3      	strb	r3, [r4, #11]
  uip_connr->rcv_nxt[2] = BUF->seqno[2];
 8026228:	f895 3028 	ldrb.w	r3, [r5, #40]	@ 0x28
 802622c:	72a3      	strb	r3, [r4, #10]
  uip_connr->rcv_nxt[1] = BUF->seqno[1];
 802622e:	f895 3027 	ldrb.w	r3, [r5, #39]	@ 0x27
 8026232:	7263      	strb	r3, [r4, #9]
  uip_connr->rcv_nxt[0] = BUF->seqno[0];
 8026234:	f895 3026 	ldrb.w	r3, [r5, #38]	@ 0x26
 8026238:	7223      	strb	r3, [r4, #8]
  uip_add_rcv_nxt(1);
 802623a:	f7ff fc8d 	bl	8025b58 <uip_add_rcv_nxt>
  if ((BUF->tcpoffset & 0xf0) > 0x50)
 802623e:	f895 102e 	ldrb.w	r1, [r5, #46]	@ 0x2e
 8026242:	f001 03f0 	and.w	r3, r1, #240	@ 0xf0
 8026246:	2b50      	cmp	r3, #80	@ 0x50
 8026248:	d959      	bls.n	80262fe <uip_process+0x656>
    for (c = 0; c < ((BUF->tcpoffset >> 4) - 5) << 2 ;)
 802624a:	4b78      	ldr	r3, [pc, #480]	@ (802642c <uip_process+0x784>)
 802624c:	2200      	movs	r2, #0
 802624e:	701a      	strb	r2, [r3, #0]
 8026250:	e02d      	b.n	80262ae <uip_process+0x606>
        uip_connr = &uip_conns[c];
 8026252:	221e      	movs	r2, #30
 8026254:	4c76      	ldr	r4, [pc, #472]	@ (8026430 <uip_process+0x788>)
 8026256:	fb02 4403 	mla	r4, r2, r3, r4
  for (c = 0; c < UIP_CONNS; ++c)
 802625a:	3301      	adds	r3, #1
 802625c:	4a73      	ldr	r2, [pc, #460]	@ (802642c <uip_process+0x784>)
 802625e:	7013      	strb	r3, [r2, #0]
 8026260:	4b72      	ldr	r3, [pc, #456]	@ (802642c <uip_process+0x784>)
 8026262:	781b      	ldrb	r3, [r3, #0]
 8026264:	b9a3      	cbnz	r3, 8026290 <uip_process+0x5e8>
    if (uip_conns[c].tcpstateflags == UIP_CLOSED)
 8026266:	ebc3 1103 	rsb	r1, r3, r3, lsl #4
 802626a:	4a71      	ldr	r2, [pc, #452]	@ (8026430 <uip_process+0x788>)
 802626c:	eb02 0241 	add.w	r2, r2, r1, lsl #1
 8026270:	7e52      	ldrb	r2, [r2, #25]
 8026272:	2a00      	cmp	r2, #0
 8026274:	d0b2      	beq.n	80261dc <uip_process+0x534>
    if (uip_conns[c].tcpstateflags == UIP_TIME_WAIT)
 8026276:	2a07      	cmp	r2, #7
 8026278:	d1ef      	bne.n	802625a <uip_process+0x5b2>
      if (uip_connr == 0 ||
 802627a:	2c00      	cmp	r4, #0
 802627c:	d0e9      	beq.n	8026252 <uip_process+0x5aa>
          uip_conns[c].timer > uip_connr->timer)
 802627e:	4a6c      	ldr	r2, [pc, #432]	@ (8026430 <uip_process+0x788>)
 8026280:	211e      	movs	r1, #30
 8026282:	fb01 2203 	mla	r2, r1, r3, r2
 8026286:	7e91      	ldrb	r1, [r2, #26]
 8026288:	7ea2      	ldrb	r2, [r4, #26]
      if (uip_connr == 0 ||
 802628a:	4291      	cmp	r1, r2
 802628c:	d9e5      	bls.n	802625a <uip_process+0x5b2>
 802628e:	e7e0      	b.n	8026252 <uip_process+0x5aa>
  if (uip_connr == 0)
 8026290:	2c00      	cmp	r4, #0
 8026292:	d1a7      	bne.n	80261e4 <uip_process+0x53c>
 8026294:	e576      	b.n	8025d84 <uip_process+0xdc>
        ++c;
 8026296:	3301      	adds	r3, #1
 8026298:	4a64      	ldr	r2, [pc, #400]	@ (802642c <uip_process+0x784>)
 802629a:	7013      	strb	r3, [r2, #0]
 802629c:	e007      	b.n	80262ae <uip_process+0x606>
        if (uip_buf[UIP_TCPIP_HLEN + UIP_LLH_LEN + 1 + c] == 0)
 802629e:	f103 0237 	add.w	r2, r3, #55	@ 0x37
 80262a2:	4865      	ldr	r0, [pc, #404]	@ (8026438 <uip_process+0x790>)
 80262a4:	5c82      	ldrb	r2, [r0, r2]
 80262a6:	b352      	cbz	r2, 80262fe <uip_process+0x656>
        c += uip_buf[UIP_TCPIP_HLEN + UIP_LLH_LEN + 1 + c];
 80262a8:	441a      	add	r2, r3
 80262aa:	4b60      	ldr	r3, [pc, #384]	@ (802642c <uip_process+0x784>)
 80262ac:	701a      	strb	r2, [r3, #0]
    for (c = 0; c < ((BUF->tcpoffset >> 4) - 5) << 2 ;)
 80262ae:	4b5f      	ldr	r3, [pc, #380]	@ (802642c <uip_process+0x784>)
 80262b0:	781b      	ldrb	r3, [r3, #0]
 80262b2:	090a      	lsrs	r2, r1, #4
 80262b4:	3a05      	subs	r2, #5
 80262b6:	ebb3 0f82 	cmp.w	r3, r2, lsl #2
 80262ba:	da20      	bge.n	80262fe <uip_process+0x656>
      opt = uip_buf[UIP_TCPIP_HLEN + UIP_LLH_LEN + c];
 80262bc:	f103 0236 	add.w	r2, r3, #54	@ 0x36
 80262c0:	485d      	ldr	r0, [pc, #372]	@ (8026438 <uip_process+0x790>)
 80262c2:	5c82      	ldrb	r2, [r0, r2]
 80262c4:	485e      	ldr	r0, [pc, #376]	@ (8026440 <uip_process+0x798>)
 80262c6:	7002      	strb	r2, [r0, #0]
      if (opt == TCP_OPT_END)
 80262c8:	b1ca      	cbz	r2, 80262fe <uip_process+0x656>
      else if (opt == TCP_OPT_NOOP)
 80262ca:	2a01      	cmp	r2, #1
 80262cc:	d0e3      	beq.n	8026296 <uip_process+0x5ee>
      else if (opt == TCP_OPT_MSS &&
 80262ce:	2a02      	cmp	r2, #2
 80262d0:	d1e5      	bne.n	802629e <uip_process+0x5f6>
               uip_buf[UIP_TCPIP_HLEN + UIP_LLH_LEN + 1 + c] == TCP_OPT_MSS_LEN)
 80262d2:	f103 0237 	add.w	r2, r3, #55	@ 0x37
 80262d6:	4858      	ldr	r0, [pc, #352]	@ (8026438 <uip_process+0x790>)
 80262d8:	5c82      	ldrb	r2, [r0, r2]
      else if (opt == TCP_OPT_MSS &&
 80262da:	2a04      	cmp	r2, #4
 80262dc:	d1df      	bne.n	802629e <uip_process+0x5f6>
        tmp16 = ((u16_t)uip_buf[UIP_TCPIP_HLEN + UIP_LLH_LEN + 2 + c] << 8) |
 80262de:	f103 0138 	add.w	r1, r3, #56	@ 0x38
 80262e2:	5c41      	ldrb	r1, [r0, r1]
                (u16_t)uip_buf[UIP_IPTCPH_LEN + UIP_LLH_LEN + 3 + c];
 80262e4:	3339      	adds	r3, #57	@ 0x39
 80262e6:	5cc3      	ldrb	r3, [r0, r3]
        tmp16 = ((u16_t)uip_buf[UIP_TCPIP_HLEN + UIP_LLH_LEN + 2 + c] << 8) |
 80262e8:	ea43 2301 	orr.w	r3, r3, r1, lsl #8
 80262ec:	4a55      	ldr	r2, [pc, #340]	@ (8026444 <uip_process+0x79c>)
 80262ee:	8013      	strh	r3, [r2, #0]
                                  tmp16 > UIP_TCP_MSS? UIP_TCP_MSS: tmp16;
 80262f0:	f240 52ba 	movw	r2, #1466	@ 0x5ba
 80262f4:	4293      	cmp	r3, r2
 80262f6:	bf28      	it	cs
 80262f8:	4613      	movcs	r3, r2
        uip_connr->initialmss = uip_connr->mss =
 80262fa:	8263      	strh	r3, [r4, #18]
 80262fc:	82a3      	strh	r3, [r4, #20]
  BUF->flags = TCP_ACK;
 80262fe:	4b4e      	ldr	r3, [pc, #312]	@ (8026438 <uip_process+0x790>)
 8026300:	2210      	movs	r2, #16
 8026302:	f883 202f 	strb.w	r2, [r3, #47]	@ 0x2f
  BUF->flags |= TCP_SYN;
 8026306:	4b4c      	ldr	r3, [pc, #304]	@ (8026438 <uip_process+0x790>)
 8026308:	f893 202f 	ldrb.w	r2, [r3, #47]	@ 0x2f
 802630c:	f042 0202 	orr.w	r2, r2, #2
 8026310:	f883 202f 	strb.w	r2, [r3, #47]	@ 0x2f
  BUF->optdata[0] = TCP_OPT_MSS;
 8026314:	2202      	movs	r2, #2
 8026316:	f883 2036 	strb.w	r2, [r3, #54]	@ 0x36
  BUF->optdata[1] = TCP_OPT_MSS_LEN;
 802631a:	2204      	movs	r2, #4
 802631c:	f883 2037 	strb.w	r2, [r3, #55]	@ 0x37
  BUF->optdata[2] = (UIP_TCP_MSS) / 256;
 8026320:	2205      	movs	r2, #5
 8026322:	f883 2038 	strb.w	r2, [r3, #56]	@ 0x38
  BUF->optdata[3] = (UIP_TCP_MSS) & 255;
 8026326:	22ba      	movs	r2, #186	@ 0xba
 8026328:	f883 2039 	strb.w	r2, [r3, #57]	@ 0x39
  uip_len = UIP_IPTCPH_LEN + TCP_OPT_MSS_LEN;
 802632c:	4a46      	ldr	r2, [pc, #280]	@ (8026448 <uip_process+0x7a0>)
 802632e:	212c      	movs	r1, #44	@ 0x2c
 8026330:	8011      	strh	r1, [r2, #0]
  BUF->tcpoffset = ((UIP_TCPH_LEN + TCP_OPT_MSS_LEN) / 4) << 4;
 8026332:	2260      	movs	r2, #96	@ 0x60
 8026334:	f883 202e 	strb.w	r2, [r3, #46]	@ 0x2e
  goto tcp_send;
 8026338:	e1eb      	b.n	8026712 <uip_process+0xa6a>
    uip_connr->tcpstateflags = UIP_CLOSED;
 802633a:	2300      	movs	r3, #0
 802633c:	7663      	strb	r3, [r4, #25]
    uip_flags = UIP_ABORT;
 802633e:	4b43      	ldr	r3, [pc, #268]	@ (802644c <uip_process+0x7a4>)
 8026340:	2220      	movs	r2, #32
 8026342:	701a      	strb	r2, [r3, #0]
    UIP_APPCALL();
 8026344:	f7fa f99c 	bl	8020680 <NetApp>
    goto drop;
 8026348:	e51c      	b.n	8025d84 <uip_process+0xdc>
  if (!(((uip_connr->tcpstateflags & UIP_TS_MASK) == UIP_SYN_SENT) &&
 802634a:	f002 013f 	and.w	r1, r2, #63	@ 0x3f
 802634e:	2912      	cmp	r1, #18
 8026350:	f47f aef6 	bne.w	8026140 <uip_process+0x498>
 8026354:	e704      	b.n	8026160 <uip_process+0x4b8>
    uip_add32(uip_connr->snd_nxt, uip_connr->len);
 8026356:	f104 000c 	add.w	r0, r4, #12
 802635a:	f7ff fbc9 	bl	8025af0 <uip_add32>
    if (BUF->ackno[0] == uip_acc32[0] &&
 802635e:	4b36      	ldr	r3, [pc, #216]	@ (8026438 <uip_process+0x790>)
 8026360:	f893 302a 	ldrb.w	r3, [r3, #42]	@ 0x2a
 8026364:	4a3a      	ldr	r2, [pc, #232]	@ (8026450 <uip_process+0x7a8>)
 8026366:	7810      	ldrb	r0, [r2, #0]
 8026368:	4283      	cmp	r3, r0
 802636a:	f47f af00 	bne.w	802616e <uip_process+0x4c6>
        BUF->ackno[1] == uip_acc32[1] &&
 802636e:	4b32      	ldr	r3, [pc, #200]	@ (8026438 <uip_process+0x790>)
 8026370:	f893 302b 	ldrb.w	r3, [r3, #43]	@ 0x2b
 8026374:	7851      	ldrb	r1, [r2, #1]
    if (BUF->ackno[0] == uip_acc32[0] &&
 8026376:	428b      	cmp	r3, r1
 8026378:	f47f aef9 	bne.w	802616e <uip_process+0x4c6>
        BUF->ackno[2] == uip_acc32[2] &&
 802637c:	4b2e      	ldr	r3, [pc, #184]	@ (8026438 <uip_process+0x790>)
 802637e:	f893 302c 	ldrb.w	r3, [r3, #44]	@ 0x2c
 8026382:	7892      	ldrb	r2, [r2, #2]
        BUF->ackno[1] == uip_acc32[1] &&
 8026384:	4293      	cmp	r3, r2
 8026386:	f47f aef2 	bne.w	802616e <uip_process+0x4c6>
        BUF->ackno[3] == uip_acc32[3])
 802638a:	4b2b      	ldr	r3, [pc, #172]	@ (8026438 <uip_process+0x790>)
 802638c:	f893 502d 	ldrb.w	r5, [r3, #45]	@ 0x2d
 8026390:	4b2f      	ldr	r3, [pc, #188]	@ (8026450 <uip_process+0x7a8>)
 8026392:	78db      	ldrb	r3, [r3, #3]
        BUF->ackno[2] == uip_acc32[2] &&
 8026394:	429d      	cmp	r5, r3
 8026396:	f47f aeea 	bne.w	802616e <uip_process+0x4c6>
      uip_connr->snd_nxt[0] = uip_acc32[0];
 802639a:	7320      	strb	r0, [r4, #12]
      uip_connr->snd_nxt[1] = uip_acc32[1];
 802639c:	7361      	strb	r1, [r4, #13]
      uip_connr->snd_nxt[2] = uip_acc32[2];
 802639e:	73a2      	strb	r2, [r4, #14]
      uip_connr->snd_nxt[3] = uip_acc32[3];
 80263a0:	73e3      	strb	r3, [r4, #15]
      if (uip_connr->nrtx == 0)
 80263a2:	7ee3      	ldrb	r3, [r4, #27]
 80263a4:	b9f3      	cbnz	r3, 80263e4 <uip_process+0x73c>
        m = uip_connr->rto - uip_connr->timer;
 80263a6:	f894 c018 	ldrb.w	ip, [r4, #24]
 80263aa:	7ea1      	ldrb	r1, [r4, #26]
 80263ac:	ebac 0201 	sub.w	r2, ip, r1
 80263b0:	b2d2      	uxtb	r2, r2
        m = m - (uip_connr->sa >> 3);
 80263b2:	7da5      	ldrb	r5, [r4, #22]
 80263b4:	08e8      	lsrs	r0, r5, #3
 80263b6:	eba2 02d5 	sub.w	r2, r2, r5, lsr #3
 80263ba:	b253      	sxtb	r3, r2
        uip_connr->sa += m;
 80263bc:	fa55 f282 	uxtab	r2, r5, r2
 80263c0:	b2d2      	uxtb	r2, r2
 80263c2:	75a2      	strb	r2, [r4, #22]
        if (m < 0)
 80263c4:	2b00      	cmp	r3, #0
 80263c6:	da03      	bge.n	80263d0 <uip_process+0x728>
          m = -m;
 80263c8:	eba1 010c 	sub.w	r1, r1, ip
 80263cc:	1843      	adds	r3, r0, r1
 80263ce:	b25b      	sxtb	r3, r3
        m = m - (uip_connr->sv >> 2);
 80263d0:	7de1      	ldrb	r1, [r4, #23]
 80263d2:	eba3 0391 	sub.w	r3, r3, r1, lsr #2
        uip_connr->sv += m;
 80263d6:	fa51 f383 	uxtab	r3, r1, r3
 80263da:	b2db      	uxtb	r3, r3
 80263dc:	75e3      	strb	r3, [r4, #23]
        uip_connr->rto = (uip_connr->sa >> 3) + uip_connr->sv;
 80263de:	eb03 03d2 	add.w	r3, r3, r2, lsr #3
 80263e2:	7623      	strb	r3, [r4, #24]
      uip_flags = UIP_ACKDATA;
 80263e4:	4b19      	ldr	r3, [pc, #100]	@ (802644c <uip_process+0x7a4>)
 80263e6:	2201      	movs	r2, #1
 80263e8:	701a      	strb	r2, [r3, #0]
      uip_connr->timer = uip_connr->rto;
 80263ea:	7e23      	ldrb	r3, [r4, #24]
 80263ec:	76a3      	strb	r3, [r4, #26]
      uip_connr->len = 0;
 80263ee:	2300      	movs	r3, #0
 80263f0:	8223      	strh	r3, [r4, #16]
 80263f2:	e6bc      	b.n	802616e <uip_process+0x4c6>
      if (uip_flags & UIP_ACKDATA)
 80263f4:	4b15      	ldr	r3, [pc, #84]	@ (802644c <uip_process+0x7a4>)
 80263f6:	781b      	ldrb	r3, [r3, #0]
 80263f8:	f013 0f01 	tst.w	r3, #1
 80263fc:	f43f acc2 	beq.w	8025d84 <uip_process+0xdc>
        uip_connr->tcpstateflags = UIP_ESTABLISHED;
 8026400:	2303      	movs	r3, #3
 8026402:	7663      	strb	r3, [r4, #25]
        uip_flags = UIP_CONNECTED;
 8026404:	4b11      	ldr	r3, [pc, #68]	@ (802644c <uip_process+0x7a4>)
 8026406:	2240      	movs	r2, #64	@ 0x40
 8026408:	701a      	strb	r2, [r3, #0]
        uip_connr->len = 0;
 802640a:	2300      	movs	r3, #0
 802640c:	8223      	strh	r3, [r4, #16]
        if (uip_len > 0)
 802640e:	4b0e      	ldr	r3, [pc, #56]	@ (8026448 <uip_process+0x7a0>)
 8026410:	8818      	ldrh	r0, [r3, #0]
 8026412:	b928      	cbnz	r0, 8026420 <uip_process+0x778>
        uip_slen = 0;
 8026414:	4b0f      	ldr	r3, [pc, #60]	@ (8026454 <uip_process+0x7ac>)
 8026416:	2200      	movs	r2, #0
 8026418:	801a      	strh	r2, [r3, #0]
        UIP_APPCALL();
 802641a:	f7fa f931 	bl	8020680 <NetApp>
        goto appsend;
 802641e:	e4bc      	b.n	8025d9a <uip_process+0xf2>
          uip_flags |= UIP_NEWDATA;
 8026420:	4b0a      	ldr	r3, [pc, #40]	@ (802644c <uip_process+0x7a4>)
 8026422:	2242      	movs	r2, #66	@ 0x42
 8026424:	701a      	strb	r2, [r3, #0]
          uip_add_rcv_nxt(uip_len);
 8026426:	f7ff fb97 	bl	8025b58 <uip_add_rcv_nxt>
 802642a:	e7f3      	b.n	8026414 <uip_process+0x76c>
 802642c:	24000253 	.word	0x24000253
 8026430:	240002ac 	.word	0x240002ac
 8026434:	240002cc 	.word	0x240002cc
 8026438:	240002e0 	.word	0x240002e0
 802643c:	2400025c 	.word	0x2400025c
 8026440:	24000252 	.word	0x24000252
 8026444:	24000250 	.word	0x24000250
 8026448:	240002d4 	.word	0x240002d4
 802644c:	240002d0 	.word	0x240002d0
 8026450:	24000254 	.word	0x24000254
 8026454:	240002d2 	.word	0x240002d2
      if ((uip_flags & UIP_ACKDATA) &&
 8026458:	4b9c      	ldr	r3, [pc, #624]	@ (80266cc <uip_process+0xa24>)
 802645a:	781b      	ldrb	r3, [r3, #0]
 802645c:	f013 0f01 	tst.w	r3, #1
 8026460:	d006      	beq.n	8026470 <uip_process+0x7c8>
          (BUF->flags & TCP_CTL) == (TCP_SYN | TCP_ACK))
 8026462:	4b9b      	ldr	r3, [pc, #620]	@ (80266d0 <uip_process+0xa28>)
 8026464:	f893 302f 	ldrb.w	r3, [r3, #47]	@ 0x2f
      if ((uip_flags & UIP_ACKDATA) &&
 8026468:	f003 033f 	and.w	r3, r3, #63	@ 0x3f
 802646c:	2b12      	cmp	r3, #18
 802646e:	d062      	beq.n	8026536 <uip_process+0x88e>
      uip_flags = UIP_ABORT;
 8026470:	4b96      	ldr	r3, [pc, #600]	@ (80266cc <uip_process+0xa24>)
 8026472:	2220      	movs	r2, #32
 8026474:	701a      	strb	r2, [r3, #0]
      UIP_APPCALL();
 8026476:	f7fa f903 	bl	8020680 <NetApp>
      uip_conn->tcpstateflags = UIP_CLOSED;
 802647a:	4b96      	ldr	r3, [pc, #600]	@ (80266d4 <uip_process+0xa2c>)
 802647c:	681b      	ldr	r3, [r3, #0]
 802647e:	2200      	movs	r2, #0
 8026480:	765a      	strb	r2, [r3, #25]
  if (BUF->flags & TCP_RST)
 8026482:	4b93      	ldr	r3, [pc, #588]	@ (80266d0 <uip_process+0xa28>)
 8026484:	f893 302f 	ldrb.w	r3, [r3, #47]	@ 0x2f
 8026488:	f013 0f04 	tst.w	r3, #4
 802648c:	f47f ac7a 	bne.w	8025d84 <uip_process+0xdc>
  BUF->flags = TCP_RST | TCP_ACK;
 8026490:	4b8f      	ldr	r3, [pc, #572]	@ (80266d0 <uip_process+0xa28>)
 8026492:	2214      	movs	r2, #20
 8026494:	f883 202f 	strb.w	r2, [r3, #47]	@ 0x2f
  uip_len = UIP_IPTCPH_LEN;
 8026498:	4a8f      	ldr	r2, [pc, #572]	@ (80266d8 <uip_process+0xa30>)
 802649a:	2128      	movs	r1, #40	@ 0x28
 802649c:	8011      	strh	r1, [r2, #0]
  BUF->tcpoffset = 5 << 4;
 802649e:	2250      	movs	r2, #80	@ 0x50
 80264a0:	f883 202e 	strb.w	r2, [r3, #46]	@ 0x2e
  c = BUF->seqno[3];
 80264a4:	f893 0029 	ldrb.w	r0, [r3, #41]	@ 0x29
 80264a8:	4d8c      	ldr	r5, [pc, #560]	@ (80266dc <uip_process+0xa34>)
 80264aa:	7028      	strb	r0, [r5, #0]
  BUF->seqno[3] = BUF->ackno[3];
 80264ac:	f893 202d 	ldrb.w	r2, [r3, #45]	@ 0x2d
 80264b0:	f883 2029 	strb.w	r2, [r3, #41]	@ 0x29
  BUF->ackno[3] = c;
 80264b4:	f883 002d 	strb.w	r0, [r3, #45]	@ 0x2d
  c = BUF->seqno[2];
 80264b8:	f893 1028 	ldrb.w	r1, [r3, #40]	@ 0x28
 80264bc:	7029      	strb	r1, [r5, #0]
  BUF->seqno[2] = BUF->ackno[2];
 80264be:	f893 202c 	ldrb.w	r2, [r3, #44]	@ 0x2c
 80264c2:	f883 2028 	strb.w	r2, [r3, #40]	@ 0x28
  BUF->ackno[2] = c;
 80264c6:	f883 102c 	strb.w	r1, [r3, #44]	@ 0x2c
  c = BUF->seqno[1];
 80264ca:	f893 2027 	ldrb.w	r2, [r3, #39]	@ 0x27
 80264ce:	702a      	strb	r2, [r5, #0]
  BUF->seqno[1] = BUF->ackno[1];
 80264d0:	f893 402b 	ldrb.w	r4, [r3, #43]	@ 0x2b
 80264d4:	f883 4027 	strb.w	r4, [r3, #39]	@ 0x27
  BUF->ackno[1] = c;
 80264d8:	f883 202b 	strb.w	r2, [r3, #43]	@ 0x2b
  c = BUF->seqno[0];
 80264dc:	f893 4026 	ldrb.w	r4, [r3, #38]	@ 0x26
 80264e0:	702c      	strb	r4, [r5, #0]
  BUF->seqno[0] = BUF->ackno[0];
 80264e2:	f893 502a 	ldrb.w	r5, [r3, #42]	@ 0x2a
 80264e6:	f883 5026 	strb.w	r5, [r3, #38]	@ 0x26
  BUF->ackno[0] = c;
 80264ea:	f883 402a 	strb.w	r4, [r3, #42]	@ 0x2a
  if (++BUF->ackno[3] == 0)
 80264ee:	3001      	adds	r0, #1
 80264f0:	b2c0      	uxtb	r0, r0
 80264f2:	f883 002d 	strb.w	r0, [r3, #45]	@ 0x2d
 80264f6:	b968      	cbnz	r0, 8026514 <uip_process+0x86c>
    if (++BUF->ackno[2] == 0)
 80264f8:	1c4b      	adds	r3, r1, #1
 80264fa:	b2db      	uxtb	r3, r3
 80264fc:	4974      	ldr	r1, [pc, #464]	@ (80266d0 <uip_process+0xa28>)
 80264fe:	f881 302c 	strb.w	r3, [r1, #44]	@ 0x2c
 8026502:	b93b      	cbnz	r3, 8026514 <uip_process+0x86c>
      if (++BUF->ackno[1] == 0)
 8026504:	1c53      	adds	r3, r2, #1
 8026506:	b2db      	uxtb	r3, r3
 8026508:	f881 302b 	strb.w	r3, [r1, #43]	@ 0x2b
 802650c:	b913      	cbnz	r3, 8026514 <uip_process+0x86c>
        ++BUF->ackno[0];
 802650e:	3401      	adds	r4, #1
 8026510:	f881 402a 	strb.w	r4, [r1, #42]	@ 0x2a
  tmp16 = BUF->srcport;
 8026514:	4b6e      	ldr	r3, [pc, #440]	@ (80266d0 <uip_process+0xa28>)
 8026516:	8c5a      	ldrh	r2, [r3, #34]	@ 0x22
 8026518:	4971      	ldr	r1, [pc, #452]	@ (80266e0 <uip_process+0xa38>)
 802651a:	800a      	strh	r2, [r1, #0]
  BUF->srcport = BUF->destport;
 802651c:	8c99      	ldrh	r1, [r3, #36]	@ 0x24
 802651e:	8459      	strh	r1, [r3, #34]	@ 0x22
  BUF->destport = tmp16;
 8026520:	849a      	strh	r2, [r3, #36]	@ 0x24
  uip_ipaddr_copy(BUF->destipaddr, BUF->srcipaddr);
 8026522:	8b5a      	ldrh	r2, [r3, #26]
 8026524:	83da      	strh	r2, [r3, #30]
 8026526:	8b9a      	ldrh	r2, [r3, #28]
 8026528:	841a      	strh	r2, [r3, #32]
  uip_ipaddr_copy(BUF->srcipaddr, uip_hostaddr);
 802652a:	4a6e      	ldr	r2, [pc, #440]	@ (80266e4 <uip_process+0xa3c>)
 802652c:	8811      	ldrh	r1, [r2, #0]
 802652e:	8359      	strh	r1, [r3, #26]
 8026530:	8852      	ldrh	r2, [r2, #2]
 8026532:	839a      	strh	r2, [r3, #28]
  goto tcp_send_noconn;
 8026534:	e120      	b.n	8026778 <uip_process+0xad0>
        if ((BUF->tcpoffset & 0xf0) > 0x50)
 8026536:	4b66      	ldr	r3, [pc, #408]	@ (80266d0 <uip_process+0xa28>)
 8026538:	f893 102e 	ldrb.w	r1, [r3, #46]	@ 0x2e
 802653c:	f001 03f0 	and.w	r3, r1, #240	@ 0xf0
 8026540:	2b50      	cmp	r3, #80	@ 0x50
 8026542:	d937      	bls.n	80265b4 <uip_process+0x90c>
          for (c = 0; c < ((BUF->tcpoffset >> 4) - 5) << 2 ;)
 8026544:	4b65      	ldr	r3, [pc, #404]	@ (80266dc <uip_process+0xa34>)
 8026546:	2200      	movs	r2, #0
 8026548:	701a      	strb	r2, [r3, #0]
 802654a:	e00b      	b.n	8026564 <uip_process+0x8bc>
              ++c;
 802654c:	3301      	adds	r3, #1
 802654e:	4a63      	ldr	r2, [pc, #396]	@ (80266dc <uip_process+0xa34>)
 8026550:	7013      	strb	r3, [r2, #0]
 8026552:	e007      	b.n	8026564 <uip_process+0x8bc>
              if (uip_buf[UIP_TCPIP_HLEN + UIP_LLH_LEN + 1 + c] == 0)
 8026554:	f103 0237 	add.w	r2, r3, #55	@ 0x37
 8026558:	485d      	ldr	r0, [pc, #372]	@ (80266d0 <uip_process+0xa28>)
 802655a:	5c82      	ldrb	r2, [r0, r2]
 802655c:	b352      	cbz	r2, 80265b4 <uip_process+0x90c>
              c += uip_buf[UIP_TCPIP_HLEN + UIP_LLH_LEN + 1 + c];
 802655e:	441a      	add	r2, r3
 8026560:	4b5e      	ldr	r3, [pc, #376]	@ (80266dc <uip_process+0xa34>)
 8026562:	701a      	strb	r2, [r3, #0]
          for (c = 0; c < ((BUF->tcpoffset >> 4) - 5) << 2 ;)
 8026564:	4b5d      	ldr	r3, [pc, #372]	@ (80266dc <uip_process+0xa34>)
 8026566:	781b      	ldrb	r3, [r3, #0]
 8026568:	090a      	lsrs	r2, r1, #4
 802656a:	3a05      	subs	r2, #5
 802656c:	ebb3 0f82 	cmp.w	r3, r2, lsl #2
 8026570:	da20      	bge.n	80265b4 <uip_process+0x90c>
            opt = uip_buf[UIP_IPTCPH_LEN + UIP_LLH_LEN + c];
 8026572:	f103 0236 	add.w	r2, r3, #54	@ 0x36
 8026576:	4856      	ldr	r0, [pc, #344]	@ (80266d0 <uip_process+0xa28>)
 8026578:	5c82      	ldrb	r2, [r0, r2]
 802657a:	485b      	ldr	r0, [pc, #364]	@ (80266e8 <uip_process+0xa40>)
 802657c:	7002      	strb	r2, [r0, #0]
            if (opt == TCP_OPT_END)
 802657e:	b1ca      	cbz	r2, 80265b4 <uip_process+0x90c>
            else if (opt == TCP_OPT_NOOP)
 8026580:	2a01      	cmp	r2, #1
 8026582:	d0e3      	beq.n	802654c <uip_process+0x8a4>
            else if (opt == TCP_OPT_MSS &&
 8026584:	2a02      	cmp	r2, #2
 8026586:	d1e5      	bne.n	8026554 <uip_process+0x8ac>
                     uip_buf[UIP_TCPIP_HLEN + UIP_LLH_LEN + 1 + c] == TCP_OPT_MSS_LEN)
 8026588:	f103 0237 	add.w	r2, r3, #55	@ 0x37
 802658c:	4850      	ldr	r0, [pc, #320]	@ (80266d0 <uip_process+0xa28>)
 802658e:	5c82      	ldrb	r2, [r0, r2]
            else if (opt == TCP_OPT_MSS &&
 8026590:	2a04      	cmp	r2, #4
 8026592:	d1df      	bne.n	8026554 <uip_process+0x8ac>
              tmp16 = (uip_buf[UIP_TCPIP_HLEN + UIP_LLH_LEN + 2 + c] << 8) |
 8026594:	f103 0138 	add.w	r1, r3, #56	@ 0x38
 8026598:	5c41      	ldrb	r1, [r0, r1]
                      uip_buf[UIP_TCPIP_HLEN + UIP_LLH_LEN + 3 + c];
 802659a:	3339      	adds	r3, #57	@ 0x39
 802659c:	5cc3      	ldrb	r3, [r0, r3]
              tmp16 = (uip_buf[UIP_TCPIP_HLEN + UIP_LLH_LEN + 2 + c] << 8) |
 802659e:	ea43 2301 	orr.w	r3, r3, r1, lsl #8
 80265a2:	4a4f      	ldr	r2, [pc, #316]	@ (80266e0 <uip_process+0xa38>)
 80265a4:	8013      	strh	r3, [r2, #0]
                uip_connr->mss = tmp16 > UIP_TCP_MSS? UIP_TCP_MSS: tmp16;
 80265a6:	f240 52ba 	movw	r2, #1466	@ 0x5ba
 80265aa:	4293      	cmp	r3, r2
 80265ac:	bf28      	it	cs
 80265ae:	4613      	movcs	r3, r2
 80265b0:	8263      	strh	r3, [r4, #18]
              uip_connr->initialmss =
 80265b2:	82a3      	strh	r3, [r4, #20]
        uip_connr->tcpstateflags = UIP_ESTABLISHED;
 80265b4:	2303      	movs	r3, #3
 80265b6:	7663      	strb	r3, [r4, #25]
        uip_connr->rcv_nxt[0] = BUF->seqno[0];
 80265b8:	4b45      	ldr	r3, [pc, #276]	@ (80266d0 <uip_process+0xa28>)
 80265ba:	f893 2026 	ldrb.w	r2, [r3, #38]	@ 0x26
 80265be:	7222      	strb	r2, [r4, #8]
        uip_connr->rcv_nxt[1] = BUF->seqno[1];
 80265c0:	f893 2027 	ldrb.w	r2, [r3, #39]	@ 0x27
 80265c4:	7262      	strb	r2, [r4, #9]
        uip_connr->rcv_nxt[2] = BUF->seqno[2];
 80265c6:	f893 2028 	ldrb.w	r2, [r3, #40]	@ 0x28
 80265ca:	72a2      	strb	r2, [r4, #10]
        uip_connr->rcv_nxt[3] = BUF->seqno[3];
 80265cc:	f893 3029 	ldrb.w	r3, [r3, #41]	@ 0x29
 80265d0:	72e3      	strb	r3, [r4, #11]
        uip_add_rcv_nxt(1);
 80265d2:	2001      	movs	r0, #1
 80265d4:	f7ff fac0 	bl	8025b58 <uip_add_rcv_nxt>
        uip_flags = UIP_CONNECTED | UIP_NEWDATA;
 80265d8:	4b3c      	ldr	r3, [pc, #240]	@ (80266cc <uip_process+0xa24>)
 80265da:	2242      	movs	r2, #66	@ 0x42
 80265dc:	701a      	strb	r2, [r3, #0]
        uip_connr->len = 0;
 80265de:	2300      	movs	r3, #0
 80265e0:	8223      	strh	r3, [r4, #16]
        uip_len = 0;
 80265e2:	4a3d      	ldr	r2, [pc, #244]	@ (80266d8 <uip_process+0xa30>)
 80265e4:	8013      	strh	r3, [r2, #0]
        uip_slen = 0;
 80265e6:	4a41      	ldr	r2, [pc, #260]	@ (80266ec <uip_process+0xa44>)
 80265e8:	8013      	strh	r3, [r2, #0]
        UIP_APPCALL();
 80265ea:	f7fa f849 	bl	8020680 <NetApp>
        goto appsend;
 80265ee:	f7ff bbd4 	b.w	8025d9a <uip_process+0xf2>
      if (BUF->flags & TCP_FIN && !(uip_connr->tcpstateflags & UIP_STOPPED))
 80265f2:	4b37      	ldr	r3, [pc, #220]	@ (80266d0 <uip_process+0xa28>)
 80265f4:	f893 302f 	ldrb.w	r3, [r3, #47]	@ 0x2f
 80265f8:	f013 0f01 	tst.w	r3, #1
 80265fc:	d024      	beq.n	8026648 <uip_process+0x9a0>
 80265fe:	f012 0f10 	tst.w	r2, #16
 8026602:	d121      	bne.n	8026648 <uip_process+0x9a0>
        if (uip_outstanding(uip_connr))
 8026604:	8a23      	ldrh	r3, [r4, #16]
 8026606:	2b00      	cmp	r3, #0
 8026608:	f47f abbc 	bne.w	8025d84 <uip_process+0xdc>
        uip_add_rcv_nxt(1 + uip_len);
 802660c:	4d32      	ldr	r5, [pc, #200]	@ (80266d8 <uip_process+0xa30>)
 802660e:	8828      	ldrh	r0, [r5, #0]
 8026610:	3001      	adds	r0, #1
 8026612:	b280      	uxth	r0, r0
 8026614:	f7ff faa0 	bl	8025b58 <uip_add_rcv_nxt>
        uip_flags |= UIP_CLOSE;
 8026618:	4a2c      	ldr	r2, [pc, #176]	@ (80266cc <uip_process+0xa24>)
 802661a:	7813      	ldrb	r3, [r2, #0]
 802661c:	f043 0110 	orr.w	r1, r3, #16
 8026620:	7011      	strb	r1, [r2, #0]
        if (uip_len > 0)
 8026622:	882a      	ldrh	r2, [r5, #0]
 8026624:	b11a      	cbz	r2, 802662e <uip_process+0x986>
          uip_flags |= UIP_NEWDATA;
 8026626:	f043 0312 	orr.w	r3, r3, #18
 802662a:	4a28      	ldr	r2, [pc, #160]	@ (80266cc <uip_process+0xa24>)
 802662c:	7013      	strb	r3, [r2, #0]
        UIP_APPCALL();
 802662e:	f7fa f827 	bl	8020680 <NetApp>
        uip_connr->len = 1;
 8026632:	2301      	movs	r3, #1
 8026634:	8223      	strh	r3, [r4, #16]
        uip_connr->tcpstateflags = UIP_LAST_ACK;
 8026636:	2308      	movs	r3, #8
 8026638:	7663      	strb	r3, [r4, #25]
        uip_connr->nrtx = 0;
 802663a:	2300      	movs	r3, #0
 802663c:	76e3      	strb	r3, [r4, #27]
        BUF->flags = TCP_FIN | TCP_ACK;
 802663e:	4b24      	ldr	r3, [pc, #144]	@ (80266d0 <uip_process+0xa28>)
 8026640:	2211      	movs	r2, #17
 8026642:	f883 202f 	strb.w	r2, [r3, #47]	@ 0x2f
        goto tcp_send_nodata;
 8026646:	e05d      	b.n	8026704 <uip_process+0xa5c>
      if ((BUF->flags & TCP_URG) != 0)
 8026648:	f013 0f20 	tst.w	r3, #32
 802664c:	d00f      	beq.n	802666e <uip_process+0x9c6>
        uip_appdata = ((char *)uip_appdata) + ((BUF->urgp[0] << 8) | BUF->urgp[1]);
 802664e:	4b20      	ldr	r3, [pc, #128]	@ (80266d0 <uip_process+0xa28>)
 8026650:	f893 0034 	ldrb.w	r0, [r3, #52]	@ 0x34
 8026654:	f893 3035 	ldrb.w	r3, [r3, #53]	@ 0x35
 8026658:	ea43 2c00 	orr.w	ip, r3, r0, lsl #8
 802665c:	4d24      	ldr	r5, [pc, #144]	@ (80266f0 <uip_process+0xa48>)
 802665e:	6829      	ldr	r1, [r5, #0]
 8026660:	4461      	add	r1, ip
 8026662:	6029      	str	r1, [r5, #0]
        uip_len -= (BUF->urgp[0] << 8) | BUF->urgp[1];
 8026664:	4663      	mov	r3, ip
 8026666:	481c      	ldr	r0, [pc, #112]	@ (80266d8 <uip_process+0xa30>)
 8026668:	8801      	ldrh	r1, [r0, #0]
 802666a:	1acb      	subs	r3, r1, r3
 802666c:	8003      	strh	r3, [r0, #0]
      if (uip_len > 0 && !(uip_connr->tcpstateflags & UIP_STOPPED))
 802666e:	4b1a      	ldr	r3, [pc, #104]	@ (80266d8 <uip_process+0xa30>)
 8026670:	8818      	ldrh	r0, [r3, #0]
 8026672:	b110      	cbz	r0, 802667a <uip_process+0x9d2>
 8026674:	f012 0f10 	tst.w	r2, #16
 8026678:	d01f      	beq.n	80266ba <uip_process+0xa12>
      tmp16 = ((u16_t)BUF->wnd[0] << 8) + (u16_t)BUF->wnd[1];
 802667a:	4b15      	ldr	r3, [pc, #84]	@ (80266d0 <uip_process+0xa28>)
 802667c:	f893 2030 	ldrb.w	r2, [r3, #48]	@ 0x30
 8026680:	f893 3031 	ldrb.w	r3, [r3, #49]	@ 0x31
 8026684:	eb03 2302 	add.w	r3, r3, r2, lsl #8
 8026688:	b29b      	uxth	r3, r3
 802668a:	4a15      	ldr	r2, [pc, #84]	@ (80266e0 <uip_process+0xa38>)
 802668c:	8013      	strh	r3, [r2, #0]
      if (tmp16 > uip_connr->initialmss ||
 802668e:	8aa2      	ldrh	r2, [r4, #20]
 8026690:	4293      	cmp	r3, r2
 8026692:	d800      	bhi.n	8026696 <uip_process+0x9ee>
 8026694:	b90b      	cbnz	r3, 802669a <uip_process+0x9f2>
        tmp16 = uip_connr->initialmss;
 8026696:	4b12      	ldr	r3, [pc, #72]	@ (80266e0 <uip_process+0xa38>)
 8026698:	801a      	strh	r2, [r3, #0]
      uip_connr->mss = tmp16;
 802669a:	4b11      	ldr	r3, [pc, #68]	@ (80266e0 <uip_process+0xa38>)
 802669c:	881b      	ldrh	r3, [r3, #0]
 802669e:	8263      	strh	r3, [r4, #18]
      if (uip_flags & (UIP_NEWDATA | UIP_ACKDATA))
 80266a0:	4b0a      	ldr	r3, [pc, #40]	@ (80266cc <uip_process+0xa24>)
 80266a2:	781b      	ldrb	r3, [r3, #0]
 80266a4:	f013 0f03 	tst.w	r3, #3
 80266a8:	f43f ab6c 	beq.w	8025d84 <uip_process+0xdc>
        uip_slen = 0;
 80266ac:	4b0f      	ldr	r3, [pc, #60]	@ (80266ec <uip_process+0xa44>)
 80266ae:	2200      	movs	r2, #0
 80266b0:	801a      	strh	r2, [r3, #0]
        UIP_APPCALL();
 80266b2:	f7f9 ffe5 	bl	8020680 <NetApp>
 80266b6:	f7ff bb70 	b.w	8025d9a <uip_process+0xf2>
        uip_flags |= UIP_NEWDATA;
 80266ba:	4a04      	ldr	r2, [pc, #16]	@ (80266cc <uip_process+0xa24>)
 80266bc:	7813      	ldrb	r3, [r2, #0]
 80266be:	f043 0302 	orr.w	r3, r3, #2
 80266c2:	7013      	strb	r3, [r2, #0]
        uip_add_rcv_nxt(uip_len);
 80266c4:	f7ff fa48 	bl	8025b58 <uip_add_rcv_nxt>
 80266c8:	e7d7      	b.n	802667a <uip_process+0x9d2>
 80266ca:	bf00      	nop
 80266cc:	240002d0 	.word	0x240002d0
 80266d0:	240002e0 	.word	0x240002e0
 80266d4:	240002cc 	.word	0x240002cc
 80266d8:	240002d4 	.word	0x240002d4
 80266dc:	24000253 	.word	0x24000253
 80266e0:	24000250 	.word	0x24000250
 80266e4:	240008e4 	.word	0x240008e4
 80266e8:	24000252 	.word	0x24000252
 80266ec:	240002d2 	.word	0x240002d2
 80266f0:	240002dc 	.word	0x240002dc
          uip_slen = 0;
 80266f4:	2300      	movs	r3, #0
 80266f6:	4a72      	ldr	r2, [pc, #456]	@ (80268c0 <uip_process+0xc18>)
 80266f8:	8013      	strh	r3, [r2, #0]
          uip_connr->tcpstateflags = UIP_CLOSED;
 80266fa:	7663      	strb	r3, [r4, #25]
          BUF->flags = TCP_RST | TCP_ACK;
 80266fc:	4b71      	ldr	r3, [pc, #452]	@ (80268c4 <uip_process+0xc1c>)
 80266fe:	2214      	movs	r2, #20
 8026700:	f883 202f 	strb.w	r2, [r3, #47]	@ 0x2f
  uip_len = UIP_IPTCPH_LEN;
 8026704:	4b70      	ldr	r3, [pc, #448]	@ (80268c8 <uip_process+0xc20>)
 8026706:	2228      	movs	r2, #40	@ 0x28
 8026708:	801a      	strh	r2, [r3, #0]
  BUF->tcpoffset = (UIP_TCPH_LEN / 4) << 4;
 802670a:	4b6e      	ldr	r3, [pc, #440]	@ (80268c4 <uip_process+0xc1c>)
 802670c:	2250      	movs	r2, #80	@ 0x50
 802670e:	f883 202e 	strb.w	r2, [r3, #46]	@ 0x2e
  BUF->ackno[0] = uip_connr->rcv_nxt[0];
 8026712:	7a22      	ldrb	r2, [r4, #8]
 8026714:	4b6b      	ldr	r3, [pc, #428]	@ (80268c4 <uip_process+0xc1c>)
 8026716:	f883 202a 	strb.w	r2, [r3, #42]	@ 0x2a
  BUF->ackno[1] = uip_connr->rcv_nxt[1];
 802671a:	7a62      	ldrb	r2, [r4, #9]
 802671c:	f883 202b 	strb.w	r2, [r3, #43]	@ 0x2b
  BUF->ackno[2] = uip_connr->rcv_nxt[2];
 8026720:	7aa2      	ldrb	r2, [r4, #10]
 8026722:	f883 202c 	strb.w	r2, [r3, #44]	@ 0x2c
  BUF->ackno[3] = uip_connr->rcv_nxt[3];
 8026726:	7ae2      	ldrb	r2, [r4, #11]
 8026728:	f883 202d 	strb.w	r2, [r3, #45]	@ 0x2d
  BUF->seqno[0] = uip_connr->snd_nxt[0];
 802672c:	7b22      	ldrb	r2, [r4, #12]
 802672e:	f883 2026 	strb.w	r2, [r3, #38]	@ 0x26
  BUF->seqno[1] = uip_connr->snd_nxt[1];
 8026732:	7b62      	ldrb	r2, [r4, #13]
 8026734:	f883 2027 	strb.w	r2, [r3, #39]	@ 0x27
  BUF->seqno[2] = uip_connr->snd_nxt[2];
 8026738:	7ba2      	ldrb	r2, [r4, #14]
 802673a:	f883 2028 	strb.w	r2, [r3, #40]	@ 0x28
  BUF->seqno[3] = uip_connr->snd_nxt[3];
 802673e:	7be2      	ldrb	r2, [r4, #15]
 8026740:	f883 2029 	strb.w	r2, [r3, #41]	@ 0x29
  BUF->proto = UIP_PROTO_TCP;
 8026744:	2206      	movs	r2, #6
 8026746:	75da      	strb	r2, [r3, #23]
  BUF->srcport  = uip_connr->lport;
 8026748:	88a2      	ldrh	r2, [r4, #4]
 802674a:	845a      	strh	r2, [r3, #34]	@ 0x22
  BUF->destport = uip_connr->rport;
 802674c:	88e2      	ldrh	r2, [r4, #6]
 802674e:	849a      	strh	r2, [r3, #36]	@ 0x24
  uip_ipaddr_copy(BUF->srcipaddr, uip_hostaddr);
 8026750:	4a5e      	ldr	r2, [pc, #376]	@ (80268cc <uip_process+0xc24>)
 8026752:	8811      	ldrh	r1, [r2, #0]
 8026754:	8359      	strh	r1, [r3, #26]
 8026756:	8852      	ldrh	r2, [r2, #2]
 8026758:	839a      	strh	r2, [r3, #28]
  uip_ipaddr_copy(BUF->destipaddr, uip_connr->ripaddr);
 802675a:	8822      	ldrh	r2, [r4, #0]
 802675c:	83da      	strh	r2, [r3, #30]
 802675e:	8862      	ldrh	r2, [r4, #2]
 8026760:	841a      	strh	r2, [r3, #32]
  if (uip_connr->tcpstateflags & UIP_STOPPED)
 8026762:	7e63      	ldrb	r3, [r4, #25]
 8026764:	f013 0f10 	tst.w	r3, #16
 8026768:	f000 80a2 	beq.w	80268b0 <uip_process+0xc08>
    BUF->wnd[0] = BUF->wnd[1] = 0;
 802676c:	4b55      	ldr	r3, [pc, #340]	@ (80268c4 <uip_process+0xc1c>)
 802676e:	2200      	movs	r2, #0
 8026770:	f883 2031 	strb.w	r2, [r3, #49]	@ 0x31
 8026774:	f883 2030 	strb.w	r2, [r3, #48]	@ 0x30
  BUF->ttl = UIP_TTL;
 8026778:	4c52      	ldr	r4, [pc, #328]	@ (80268c4 <uip_process+0xc1c>)
 802677a:	2340      	movs	r3, #64	@ 0x40
 802677c:	75a3      	strb	r3, [r4, #22]
  BUF->len[0] = (uip_len >> 8);
 802677e:	4b52      	ldr	r3, [pc, #328]	@ (80268c8 <uip_process+0xc20>)
 8026780:	881b      	ldrh	r3, [r3, #0]
 8026782:	0a1a      	lsrs	r2, r3, #8
 8026784:	7422      	strb	r2, [r4, #16]
  BUF->len[1] = (uip_len & 0xff);
 8026786:	7463      	strb	r3, [r4, #17]
  BUF->urgp[0] = BUF->urgp[1] = 0;
 8026788:	2300      	movs	r3, #0
 802678a:	f884 3035 	strb.w	r3, [r4, #53]	@ 0x35
 802678e:	f884 3034 	strb.w	r3, [r4, #52]	@ 0x34
  BUF->tcpchksum = 0;
 8026792:	8663      	strh	r3, [r4, #50]	@ 0x32
  BUF->tcpchksum = ~(uip_tcpchksum());
 8026794:	f7ff fa82 	bl	8025c9c <uip_tcpchksum>
 8026798:	43c0      	mvns	r0, r0
 802679a:	8660      	strh	r0, [r4, #50]	@ 0x32
 802679c:	e40e      	b.n	8025fbc <uip_process+0x314>
          uip_slen = 0;
 802679e:	2300      	movs	r3, #0
 80267a0:	4a47      	ldr	r2, [pc, #284]	@ (80268c0 <uip_process+0xc18>)
 80267a2:	8013      	strh	r3, [r2, #0]
          uip_connr->len = 1;
 80267a4:	2201      	movs	r2, #1
 80267a6:	8222      	strh	r2, [r4, #16]
          uip_connr->tcpstateflags = UIP_FIN_WAIT_1;
 80267a8:	2204      	movs	r2, #4
 80267aa:	7662      	strb	r2, [r4, #25]
          uip_connr->nrtx = 0;
 80267ac:	76e3      	strb	r3, [r4, #27]
          BUF->flags = TCP_FIN | TCP_ACK;
 80267ae:	4b45      	ldr	r3, [pc, #276]	@ (80268c4 <uip_process+0xc1c>)
 80267b0:	2211      	movs	r2, #17
 80267b2:	f883 202f 	strb.w	r2, [r3, #47]	@ 0x2f
          goto tcp_send_nodata;
 80267b6:	e7a5      	b.n	8026704 <uip_process+0xa5c>
            uip_slen = uip_connr->len;
 80267b8:	4a41      	ldr	r2, [pc, #260]	@ (80268c0 <uip_process+0xc18>)
 80267ba:	8013      	strh	r3, [r2, #0]
 80267bc:	f7ff bb0b 	b.w	8025dd6 <uip_process+0x12e>
          uip_len = uip_connr->len + UIP_TCPIP_HLEN;
 80267c0:	3328      	adds	r3, #40	@ 0x28
 80267c2:	4a41      	ldr	r2, [pc, #260]	@ (80268c8 <uip_process+0xc20>)
 80267c4:	8013      	strh	r3, [r2, #0]
          BUF->flags = TCP_ACK | TCP_PSH;
 80267c6:	4b3f      	ldr	r3, [pc, #252]	@ (80268c4 <uip_process+0xc1c>)
 80267c8:	2218      	movs	r2, #24
 80267ca:	f883 202f 	strb.w	r2, [r3, #47]	@ 0x2f
          goto tcp_send_noopts;
 80267ce:	e79c      	b.n	802670a <uip_process+0xa62>
      if (uip_flags & UIP_ACKDATA)
 80267d0:	4b3f      	ldr	r3, [pc, #252]	@ (80268d0 <uip_process+0xc28>)
 80267d2:	781b      	ldrb	r3, [r3, #0]
 80267d4:	f013 0f01 	tst.w	r3, #1
 80267d8:	f43f aad4 	beq.w	8025d84 <uip_process+0xdc>
        uip_connr->tcpstateflags = UIP_CLOSED;
 80267dc:	2300      	movs	r3, #0
 80267de:	7663      	strb	r3, [r4, #25]
        uip_flags = UIP_CLOSE;
 80267e0:	4b3b      	ldr	r3, [pc, #236]	@ (80268d0 <uip_process+0xc28>)
 80267e2:	2210      	movs	r2, #16
 80267e4:	701a      	strb	r2, [r3, #0]
        UIP_APPCALL();
 80267e6:	f7f9 ff4b 	bl	8020680 <NetApp>
 80267ea:	f7ff bacb 	b.w	8025d84 <uip_process+0xdc>
      if (uip_len > 0)
 80267ee:	4b36      	ldr	r3, [pc, #216]	@ (80268c8 <uip_process+0xc20>)
 80267f0:	8818      	ldrh	r0, [r3, #0]
 80267f2:	b978      	cbnz	r0, 8026814 <uip_process+0xb6c>
      if (BUF->flags & TCP_FIN)
 80267f4:	4b33      	ldr	r3, [pc, #204]	@ (80268c4 <uip_process+0xc1c>)
 80267f6:	f893 302f 	ldrb.w	r3, [r3, #47]	@ 0x2f
 80267fa:	f013 0f01 	tst.w	r3, #1
 80267fe:	d10c      	bne.n	802681a <uip_process+0xb72>
      else if (uip_flags & UIP_ACKDATA)
 8026800:	4b33      	ldr	r3, [pc, #204]	@ (80268d0 <uip_process+0xc28>)
 8026802:	781b      	ldrb	r3, [r3, #0]
 8026804:	f013 0f01 	tst.w	r3, #1
 8026808:	d11d      	bne.n	8026846 <uip_process+0xb9e>
      if (uip_len > 0)
 802680a:	4b2f      	ldr	r3, [pc, #188]	@ (80268c8 <uip_process+0xc20>)
 802680c:	881b      	ldrh	r3, [r3, #0]
 802680e:	bb73      	cbnz	r3, 802686e <uip_process+0xbc6>
 8026810:	f7ff bab8 	b.w	8025d84 <uip_process+0xdc>
        uip_add_rcv_nxt(uip_len);
 8026814:	f7ff f9a0 	bl	8025b58 <uip_add_rcv_nxt>
 8026818:	e7ec      	b.n	80267f4 <uip_process+0xb4c>
        if (uip_flags & UIP_ACKDATA)
 802681a:	4b2d      	ldr	r3, [pc, #180]	@ (80268d0 <uip_process+0xc28>)
 802681c:	781b      	ldrb	r3, [r3, #0]
 802681e:	f013 0f01 	tst.w	r3, #1
 8026822:	d00d      	beq.n	8026840 <uip_process+0xb98>
          uip_connr->tcpstateflags = UIP_TIME_WAIT;
 8026824:	2307      	movs	r3, #7
 8026826:	7663      	strb	r3, [r4, #25]
          uip_connr->timer = 0;
 8026828:	2300      	movs	r3, #0
 802682a:	76a3      	strb	r3, [r4, #26]
          uip_connr->len = 0;
 802682c:	8223      	strh	r3, [r4, #16]
        uip_add_rcv_nxt(1);
 802682e:	2001      	movs	r0, #1
 8026830:	f7ff f992 	bl	8025b58 <uip_add_rcv_nxt>
        uip_flags = UIP_CLOSE;
 8026834:	4b26      	ldr	r3, [pc, #152]	@ (80268d0 <uip_process+0xc28>)
 8026836:	2210      	movs	r2, #16
 8026838:	701a      	strb	r2, [r3, #0]
        UIP_APPCALL();
 802683a:	f7f9 ff21 	bl	8020680 <NetApp>
        goto tcp_send_ack;
 802683e:	e016      	b.n	802686e <uip_process+0xbc6>
          uip_connr->tcpstateflags = UIP_CLOSING;
 8026840:	2306      	movs	r3, #6
 8026842:	7663      	strb	r3, [r4, #25]
 8026844:	e7f3      	b.n	802682e <uip_process+0xb86>
        uip_connr->tcpstateflags = UIP_FIN_WAIT_2;
 8026846:	2305      	movs	r3, #5
 8026848:	7663      	strb	r3, [r4, #25]
        uip_connr->len = 0;
 802684a:	2300      	movs	r3, #0
 802684c:	8223      	strh	r3, [r4, #16]
        goto drop;
 802684e:	f7ff ba99 	b.w	8025d84 <uip_process+0xdc>
      if (uip_len > 0)
 8026852:	4b1d      	ldr	r3, [pc, #116]	@ (80268c8 <uip_process+0xc20>)
 8026854:	8818      	ldrh	r0, [r3, #0]
 8026856:	b978      	cbnz	r0, 8026878 <uip_process+0xbd0>
      if (BUF->flags & TCP_FIN)
 8026858:	4b1a      	ldr	r3, [pc, #104]	@ (80268c4 <uip_process+0xc1c>)
 802685a:	f893 302f 	ldrb.w	r3, [r3, #47]	@ 0x2f
 802685e:	f013 0f01 	tst.w	r3, #1
 8026862:	d10c      	bne.n	802687e <uip_process+0xbd6>
      if (uip_len > 0)
 8026864:	4b18      	ldr	r3, [pc, #96]	@ (80268c8 <uip_process+0xc20>)
 8026866:	881b      	ldrh	r3, [r3, #0]
 8026868:	2b00      	cmp	r3, #0
 802686a:	f43f aa8b 	beq.w	8025d84 <uip_process+0xdc>
  BUF->flags = TCP_ACK;
 802686e:	4b15      	ldr	r3, [pc, #84]	@ (80268c4 <uip_process+0xc1c>)
 8026870:	2210      	movs	r2, #16
 8026872:	f883 202f 	strb.w	r2, [r3, #47]	@ 0x2f
 8026876:	e745      	b.n	8026704 <uip_process+0xa5c>
        uip_add_rcv_nxt(uip_len);
 8026878:	f7ff f96e 	bl	8025b58 <uip_add_rcv_nxt>
 802687c:	e7ec      	b.n	8026858 <uip_process+0xbb0>
        uip_connr->tcpstateflags = UIP_TIME_WAIT;
 802687e:	2307      	movs	r3, #7
 8026880:	7663      	strb	r3, [r4, #25]
        uip_connr->timer = 0;
 8026882:	2300      	movs	r3, #0
 8026884:	76a3      	strb	r3, [r4, #26]
        uip_add_rcv_nxt(1);
 8026886:	2001      	movs	r0, #1
 8026888:	f7ff f966 	bl	8025b58 <uip_add_rcv_nxt>
        uip_flags = UIP_CLOSE;
 802688c:	4b10      	ldr	r3, [pc, #64]	@ (80268d0 <uip_process+0xc28>)
 802688e:	2210      	movs	r2, #16
 8026890:	701a      	strb	r2, [r3, #0]
        UIP_APPCALL();
 8026892:	f7f9 fef5 	bl	8020680 <NetApp>
        goto tcp_send_ack;
 8026896:	e7ea      	b.n	802686e <uip_process+0xbc6>
      if (uip_flags & UIP_ACKDATA)
 8026898:	4b0d      	ldr	r3, [pc, #52]	@ (80268d0 <uip_process+0xc28>)
 802689a:	781b      	ldrb	r3, [r3, #0]
 802689c:	f013 0f01 	tst.w	r3, #1
 80268a0:	f43f aa70 	beq.w	8025d84 <uip_process+0xdc>
        uip_connr->tcpstateflags = UIP_TIME_WAIT;
 80268a4:	2307      	movs	r3, #7
 80268a6:	7663      	strb	r3, [r4, #25]
        uip_connr->timer = 0;
 80268a8:	2300      	movs	r3, #0
 80268aa:	76a3      	strb	r3, [r4, #26]
  goto drop;
 80268ac:	f7ff ba6a 	b.w	8025d84 <uip_process+0xdc>
    BUF->wnd[0] = ((UIP_RECEIVE_WINDOW) >> 8);
 80268b0:	4b04      	ldr	r3, [pc, #16]	@ (80268c4 <uip_process+0xc1c>)
 80268b2:	2205      	movs	r2, #5
 80268b4:	f883 2030 	strb.w	r2, [r3, #48]	@ 0x30
    BUF->wnd[1] = ((UIP_RECEIVE_WINDOW) & 0xff);
 80268b8:	22ba      	movs	r2, #186	@ 0xba
 80268ba:	f883 2031 	strb.w	r2, [r3, #49]	@ 0x31
 80268be:	e75b      	b.n	8026778 <uip_process+0xad0>
 80268c0:	240002d2 	.word	0x240002d2
 80268c4:	240002e0 	.word	0x240002e0
 80268c8:	240002d4 	.word	0x240002d4
 80268cc:	240008e4 	.word	0x240008e4
 80268d0:	240002d0 	.word	0x240002d0

080268d4 <uip_udp_new>:
{
 80268d4:	b5f8      	push	{r3, r4, r5, r6, r7, lr}
 80268d6:	4605      	mov	r5, r0
 80268d8:	460e      	mov	r6, r1
  ++lastport;
 80268da:	4a23      	ldr	r2, [pc, #140]	@ (8026968 <uip_udp_new+0x94>)
 80268dc:	8813      	ldrh	r3, [r2, #0]
 80268de:	3301      	adds	r3, #1
 80268e0:	b29b      	uxth	r3, r3
 80268e2:	8013      	strh	r3, [r2, #0]
  if (lastport >= 32000)
 80268e4:	f5b3 4ffa 	cmp.w	r3, #32000	@ 0x7d00
 80268e8:	d303      	bcc.n	80268f2 <uip_udp_new+0x1e>
    lastport = 4096;
 80268ea:	4613      	mov	r3, r2
 80268ec:	f44f 5280 	mov.w	r2, #4096	@ 0x1000
 80268f0:	801a      	strh	r2, [r3, #0]
  for (c = 0; c < UIP_UDP_CONNS; ++c)
 80268f2:	4b1e      	ldr	r3, [pc, #120]	@ (802696c <uip_udp_new+0x98>)
 80268f4:	2200      	movs	r2, #0
 80268f6:	701a      	strb	r2, [r3, #0]
 80268f8:	4b1c      	ldr	r3, [pc, #112]	@ (802696c <uip_udp_new+0x98>)
 80268fa:	781c      	ldrb	r4, [r3, #0]
 80268fc:	b96c      	cbnz	r4, 802691a <uip_udp_new+0x46>
    if (uip_udp_conns[c].lport == htons(lastport))
 80268fe:	4b1c      	ldr	r3, [pc, #112]	@ (8026970 <uip_udp_new+0x9c>)
 8026900:	eb03 1384 	add.w	r3, r3, r4, lsl #6
 8026904:	889f      	ldrh	r7, [r3, #4]
 8026906:	4b18      	ldr	r3, [pc, #96]	@ (8026968 <uip_udp_new+0x94>)
 8026908:	8818      	ldrh	r0, [r3, #0]
 802690a:	f7ff f993 	bl	8025c34 <htons>
 802690e:	4287      	cmp	r7, r0
 8026910:	d0e3      	beq.n	80268da <uip_udp_new+0x6>
  for (c = 0; c < UIP_UDP_CONNS; ++c)
 8026912:	3401      	adds	r4, #1
 8026914:	4b15      	ldr	r3, [pc, #84]	@ (802696c <uip_udp_new+0x98>)
 8026916:	701c      	strb	r4, [r3, #0]
 8026918:	e7ee      	b.n	80268f8 <uip_udp_new+0x24>
  for (c = 0; c < UIP_UDP_CONNS; ++c)
 802691a:	2200      	movs	r2, #0
 802691c:	701a      	strb	r2, [r3, #0]
 802691e:	4b13      	ldr	r3, [pc, #76]	@ (802696c <uip_udp_new+0x98>)
 8026920:	781b      	ldrb	r3, [r3, #0]
 8026922:	b9db      	cbnz	r3, 802695c <uip_udp_new+0x88>
    if (uip_udp_conns[c].lport == 0)
 8026924:	4a12      	ldr	r2, [pc, #72]	@ (8026970 <uip_udp_new+0x9c>)
 8026926:	eb02 1283 	add.w	r2, r2, r3, lsl #6
 802692a:	8892      	ldrh	r2, [r2, #4]
 802692c:	b11a      	cbz	r2, 8026936 <uip_udp_new+0x62>
  for (c = 0; c < UIP_UDP_CONNS; ++c)
 802692e:	3301      	adds	r3, #1
 8026930:	4a0e      	ldr	r2, [pc, #56]	@ (802696c <uip_udp_new+0x98>)
 8026932:	7013      	strb	r3, [r2, #0]
 8026934:	e7f3      	b.n	802691e <uip_udp_new+0x4a>
      conn = &uip_udp_conns[c];
 8026936:	019c      	lsls	r4, r3, #6
 8026938:	4a0d      	ldr	r2, [pc, #52]	@ (8026970 <uip_udp_new+0x9c>)
 802693a:	eb02 1083 	add.w	r0, r2, r3, lsl #6
  conn->lport = HTONS(lastport);
 802693e:	4b0a      	ldr	r3, [pc, #40]	@ (8026968 <uip_udp_new+0x94>)
 8026940:	8819      	ldrh	r1, [r3, #0]
 8026942:	020b      	lsls	r3, r1, #8
 8026944:	ea43 2311 	orr.w	r3, r3, r1, lsr #8
 8026948:	8083      	strh	r3, [r0, #4]
  conn->rport = rport;
 802694a:	80c6      	strh	r6, [r0, #6]
  if (ripaddr == NULL)
 802694c:	b145      	cbz	r5, 8026960 <uip_udp_new+0x8c>
    uip_ipaddr_copy(&conn->ripaddr, ripaddr);
 802694e:	882b      	ldrh	r3, [r5, #0]
 8026950:	5313      	strh	r3, [r2, r4]
 8026952:	886b      	ldrh	r3, [r5, #2]
 8026954:	8043      	strh	r3, [r0, #2]
  conn->ttl = UIP_TTL;
 8026956:	2340      	movs	r3, #64	@ 0x40
 8026958:	7203      	strb	r3, [r0, #8]
  return conn;
 802695a:	e000      	b.n	802695e <uip_udp_new+0x8a>
    return 0;
 802695c:	2000      	movs	r0, #0
}
 802695e:	bdf8      	pop	{r3, r4, r5, r6, r7, pc}
    memset(conn->ripaddr, 0, sizeof(uip_ipaddr_t));
 8026960:	2300      	movs	r3, #0
 8026962:	5113      	str	r3, [r2, r4]
 8026964:	e7f7      	b.n	8026956 <uip_udp_new+0x82>
 8026966:	bf00      	nop
 8026968:	24000258 	.word	0x24000258
 802696c:	24000253 	.word	0x24000253
 8026970:	24000264 	.word	0x24000264

08026974 <uip_send>:
/*---------------------------------------------------------------------------*/
void
uip_send(const void *data, int len)
{
  if (len > 0)
 8026974:	2900      	cmp	r1, #0
 8026976:	dd0c      	ble.n	8026992 <uip_send+0x1e>
{
 8026978:	b508      	push	{r3, lr}
  {
    uip_slen = len;
 802697a:	4b06      	ldr	r3, [pc, #24]	@ (8026994 <uip_send+0x20>)
 802697c:	8019      	strh	r1, [r3, #0]
    if (data != uip_sappdata)
 802697e:	4b06      	ldr	r3, [pc, #24]	@ (8026998 <uip_send+0x24>)
 8026980:	681b      	ldr	r3, [r3, #0]
 8026982:	4283      	cmp	r3, r0
 8026984:	d004      	beq.n	8026990 <uip_send+0x1c>
    {
      memcpy(uip_sappdata, (data), uip_slen);
 8026986:	b28a      	uxth	r2, r1
 8026988:	4601      	mov	r1, r0
 802698a:	4618      	mov	r0, r3
 802698c:	f000 fa28 	bl	8026de0 <memcpy>
    }
  }
}
 8026990:	bd08      	pop	{r3, pc}
 8026992:	4770      	bx	lr
 8026994:	240002d2 	.word	0x240002d2
 8026998:	240002d8 	.word	0x240002d8

0802699c <uip_arp_update>:

}
/*-----------------------------------------------------------------------------------*/
static void
uip_arp_update(u16_t *ipaddr, struct uip_eth_addr *ethaddr)
{
 802699c:	b430      	push	{r4, r5}
  register struct arp_entry *tabptr = arp_table;
  /* Walk through the ARP mapping table and try to find an entry to
     update. If none is found, the IP -> MAC address mapping is
     inserted in the ARP table. */
  for (i = 0; i < UIP_ARPTAB_SIZE; ++i)
 802699e:	4b3d      	ldr	r3, [pc, #244]	@ (8026a94 <uip_arp_update+0xf8>)
 80269a0:	2200      	movs	r2, #0
 80269a2:	701a      	strb	r2, [r3, #0]
  register struct arp_entry *tabptr = arp_table;
 80269a4:	4d3c      	ldr	r5, [pc, #240]	@ (8026a98 <uip_arp_update+0xfc>)
  for (i = 0; i < UIP_ARPTAB_SIZE; ++i)
 80269a6:	e002      	b.n	80269ae <uip_arp_update+0x12>
 80269a8:	3301      	adds	r3, #1
 80269aa:	4a3a      	ldr	r2, [pc, #232]	@ (8026a94 <uip_arp_update+0xf8>)
 80269ac:	7013      	strb	r3, [r2, #0]
 80269ae:	4b39      	ldr	r3, [pc, #228]	@ (8026a94 <uip_arp_update+0xf8>)
 80269b0:	781b      	ldrb	r3, [r3, #0]
 80269b2:	2b07      	cmp	r3, #7
 80269b4:	d81a      	bhi.n	80269ec <uip_arp_update+0x50>
  {

    tabptr = &arp_table[i];
 80269b6:	eb03 0243 	add.w	r2, r3, r3, lsl #1
 80269ba:	4c37      	ldr	r4, [pc, #220]	@ (8026a98 <uip_arp_update+0xfc>)
 80269bc:	eb04 0582 	add.w	r5, r4, r2, lsl #2
    /* Only check those entries that are actually in use. */
    if (tabptr->ipaddr[0] != 0 &&
 80269c0:	f834 2022 	ldrh.w	r2, [r4, r2, lsl #2]
 80269c4:	2a00      	cmp	r2, #0
 80269c6:	d0ef      	beq.n	80269a8 <uip_arp_update+0xc>
        tabptr->ipaddr[1] != 0)
 80269c8:	886c      	ldrh	r4, [r5, #2]
    if (tabptr->ipaddr[0] != 0 &&
 80269ca:	2c00      	cmp	r4, #0
 80269cc:	d0ec      	beq.n	80269a8 <uip_arp_update+0xc>
    {

      /* Check if the source IP address of the incoming packet matches
         the IP address in this ARP table entry. */
      if (ipaddr[0] == tabptr->ipaddr[0] &&
 80269ce:	f8b0 c000 	ldrh.w	ip, [r0]
 80269d2:	4562      	cmp	r2, ip
 80269d4:	d1e8      	bne.n	80269a8 <uip_arp_update+0xc>
          ipaddr[1] == tabptr->ipaddr[1])
 80269d6:	8842      	ldrh	r2, [r0, #2]
      if (ipaddr[0] == tabptr->ipaddr[0] &&
 80269d8:	4294      	cmp	r4, r2
 80269da:	d1e5      	bne.n	80269a8 <uip_arp_update+0xc>
      {

        /* An old entry found, update this and return. */
        memcpy(tabptr->ethaddr.addr, ethaddr->addr, 6);
 80269dc:	680c      	ldr	r4, [r1, #0]
 80269de:	606c      	str	r4, [r5, #4]
 80269e0:	8889      	ldrh	r1, [r1, #4]
 80269e2:	8129      	strh	r1, [r5, #8]
        tabptr->time = arptime;
 80269e4:	4b2d      	ldr	r3, [pc, #180]	@ (8026a9c <uip_arp_update+0x100>)
 80269e6:	781b      	ldrb	r3, [r3, #0]
 80269e8:	72ab      	strb	r3, [r5, #10]

        return;
 80269ea:	e023      	b.n	8026a34 <uip_arp_update+0x98>

  /* If we get here, no existing ARP table entry was found, so we
     create one. */

  /* First, we try to find an unused entry in the ARP table. */
  for (i = 0; i < UIP_ARPTAB_SIZE; ++i)
 80269ec:	4b29      	ldr	r3, [pc, #164]	@ (8026a94 <uip_arp_update+0xf8>)
 80269ee:	2200      	movs	r2, #0
 80269f0:	701a      	strb	r2, [r3, #0]
 80269f2:	e002      	b.n	80269fa <uip_arp_update+0x5e>
 80269f4:	3301      	adds	r3, #1
 80269f6:	4a27      	ldr	r2, [pc, #156]	@ (8026a94 <uip_arp_update+0xf8>)
 80269f8:	7013      	strb	r3, [r2, #0]
 80269fa:	4b26      	ldr	r3, [pc, #152]	@ (8026a94 <uip_arp_update+0xf8>)
 80269fc:	781b      	ldrb	r3, [r3, #0]
 80269fe:	2b07      	cmp	r3, #7
 8026a00:	d80b      	bhi.n	8026a1a <uip_arp_update+0x7e>
  {
    tabptr = &arp_table[i];
 8026a02:	eb03 0243 	add.w	r2, r3, r3, lsl #1
 8026a06:	4c24      	ldr	r4, [pc, #144]	@ (8026a98 <uip_arp_update+0xfc>)
 8026a08:	eb04 0582 	add.w	r5, r4, r2, lsl #2
    if (tabptr->ipaddr[0] == 0 &&
 8026a0c:	f834 2022 	ldrh.w	r2, [r4, r2, lsl #2]
 8026a10:	2a00      	cmp	r2, #0
 8026a12:	d1ef      	bne.n	80269f4 <uip_arp_update+0x58>
        tabptr->ipaddr[1] == 0)
 8026a14:	886a      	ldrh	r2, [r5, #2]
    if (tabptr->ipaddr[0] == 0 &&
 8026a16:	2a00      	cmp	r2, #0
 8026a18:	d1ec      	bne.n	80269f4 <uip_arp_update+0x58>
    }
  }

  /* If no unused entry is found, we try to find the oldest entry and
     throw it away. */
  if (i == UIP_ARPTAB_SIZE)
 8026a1a:	2b08      	cmp	r3, #8
 8026a1c:	d00c      	beq.n	8026a38 <uip_arp_update+0x9c>
    tabptr = &arp_table[i];
  }

  /* Now, i is the ARP table entry which we will fill with the new
     information. */
  memcpy(tabptr->ipaddr, ipaddr, 4);
 8026a1e:	6802      	ldr	r2, [r0, #0]
 8026a20:	462b      	mov	r3, r5
 8026a22:	f843 2b04 	str.w	r2, [r3], #4
  memcpy(tabptr->ethaddr.addr, ethaddr->addr, 6);
 8026a26:	680a      	ldr	r2, [r1, #0]
 8026a28:	606a      	str	r2, [r5, #4]
 8026a2a:	888a      	ldrh	r2, [r1, #4]
 8026a2c:	809a      	strh	r2, [r3, #4]
  tabptr->time = arptime;
 8026a2e:	4b1b      	ldr	r3, [pc, #108]	@ (8026a9c <uip_arp_update+0x100>)
 8026a30:	781b      	ldrb	r3, [r3, #0]
 8026a32:	72ab      	strb	r3, [r5, #10]
}
 8026a34:	bc30      	pop	{r4, r5}
 8026a36:	4770      	bx	lr
    tmpage = 0;
 8026a38:	2300      	movs	r3, #0
 8026a3a:	4a19      	ldr	r2, [pc, #100]	@ (8026aa0 <uip_arp_update+0x104>)
 8026a3c:	7013      	strb	r3, [r2, #0]
    c = 0;
 8026a3e:	4a19      	ldr	r2, [pc, #100]	@ (8026aa4 <uip_arp_update+0x108>)
 8026a40:	7013      	strb	r3, [r2, #0]
    for (i = 0; i < UIP_ARPTAB_SIZE; ++i)
 8026a42:	4a14      	ldr	r2, [pc, #80]	@ (8026a94 <uip_arp_update+0xf8>)
 8026a44:	7013      	strb	r3, [r2, #0]
 8026a46:	e002      	b.n	8026a4e <uip_arp_update+0xb2>
 8026a48:	3301      	adds	r3, #1
 8026a4a:	4a12      	ldr	r2, [pc, #72]	@ (8026a94 <uip_arp_update+0xf8>)
 8026a4c:	7013      	strb	r3, [r2, #0]
 8026a4e:	4b11      	ldr	r3, [pc, #68]	@ (8026a94 <uip_arp_update+0xf8>)
 8026a50:	781b      	ldrb	r3, [r3, #0]
 8026a52:	2b07      	cmp	r3, #7
 8026a54:	d813      	bhi.n	8026a7e <uip_arp_update+0xe2>
      if (arptime - tabptr->time > tmpage)
 8026a56:	4a11      	ldr	r2, [pc, #68]	@ (8026a9c <uip_arp_update+0x100>)
 8026a58:	7815      	ldrb	r5, [r2, #0]
 8026a5a:	eb03 0443 	add.w	r4, r3, r3, lsl #1
 8026a5e:	4a0e      	ldr	r2, [pc, #56]	@ (8026a98 <uip_arp_update+0xfc>)
 8026a60:	eb02 0284 	add.w	r2, r2, r4, lsl #2
 8026a64:	7a92      	ldrb	r2, [r2, #10]
 8026a66:	eba5 0c02 	sub.w	ip, r5, r2
 8026a6a:	4c0d      	ldr	r4, [pc, #52]	@ (8026aa0 <uip_arp_update+0x104>)
 8026a6c:	7824      	ldrb	r4, [r4, #0]
 8026a6e:	45a4      	cmp	ip, r4
 8026a70:	ddea      	ble.n	8026a48 <uip_arp_update+0xac>
        tmpage = arptime - tabptr->time;
 8026a72:	4a0b      	ldr	r2, [pc, #44]	@ (8026aa0 <uip_arp_update+0x104>)
 8026a74:	f882 c000 	strb.w	ip, [r2]
        c = i;
 8026a78:	4a0a      	ldr	r2, [pc, #40]	@ (8026aa4 <uip_arp_update+0x108>)
 8026a7a:	7013      	strb	r3, [r2, #0]
 8026a7c:	e7e4      	b.n	8026a48 <uip_arp_update+0xac>
    i = c;
 8026a7e:	4b09      	ldr	r3, [pc, #36]	@ (8026aa4 <uip_arp_update+0x108>)
 8026a80:	781b      	ldrb	r3, [r3, #0]
 8026a82:	4a04      	ldr	r2, [pc, #16]	@ (8026a94 <uip_arp_update+0xf8>)
 8026a84:	7013      	strb	r3, [r2, #0]
    tabptr = &arp_table[i];
 8026a86:	eb03 0343 	add.w	r3, r3, r3, lsl #1
 8026a8a:	4d03      	ldr	r5, [pc, #12]	@ (8026a98 <uip_arp_update+0xfc>)
 8026a8c:	eb05 0583 	add.w	r5, r5, r3, lsl #2
 8026a90:	e7c5      	b.n	8026a1e <uip_arp_update+0x82>
 8026a92:	bf00      	nop
 8026a94:	240008eb 	.word	0x240008eb
 8026a98:	240008f0 	.word	0x240008f0
 8026a9c:	240008e9 	.word	0x240008e9
 8026aa0:	240008e8 	.word	0x240008e8
 8026aa4:	240008ea 	.word	0x240008ea

08026aa8 <uip_arp_timer>:
  ++arptime;
 8026aa8:	4b14      	ldr	r3, [pc, #80]	@ (8026afc <uip_arp_timer+0x54>)
 8026aaa:	f893 c000 	ldrb.w	ip, [r3]
 8026aae:	f10c 0c01 	add.w	ip, ip, #1
 8026ab2:	fa5f fc8c 	uxtb.w	ip, ip
 8026ab6:	f883 c000 	strb.w	ip, [r3]
  for (i = 0; i < UIP_ARPTAB_SIZE; ++i)
 8026aba:	4b11      	ldr	r3, [pc, #68]	@ (8026b00 <uip_arp_timer+0x58>)
 8026abc:	2200      	movs	r2, #0
 8026abe:	701a      	strb	r2, [r3, #0]
 8026ac0:	e002      	b.n	8026ac8 <uip_arp_timer+0x20>
 8026ac2:	3301      	adds	r3, #1
 8026ac4:	4a0e      	ldr	r2, [pc, #56]	@ (8026b00 <uip_arp_timer+0x58>)
 8026ac6:	7013      	strb	r3, [r2, #0]
 8026ac8:	4b0d      	ldr	r3, [pc, #52]	@ (8026b00 <uip_arp_timer+0x58>)
 8026aca:	781b      	ldrb	r3, [r3, #0]
 8026acc:	2b07      	cmp	r3, #7
 8026ace:	d814      	bhi.n	8026afa <uip_arp_timer+0x52>
    if ((tabptr->ipaddr[0] | tabptr->ipaddr[1]) != 0 &&
 8026ad0:	490c      	ldr	r1, [pc, #48]	@ (8026b04 <uip_arp_timer+0x5c>)
 8026ad2:	eb03 0043 	add.w	r0, r3, r3, lsl #1
 8026ad6:	0082      	lsls	r2, r0, #2
 8026ad8:	1888      	adds	r0, r1, r2
 8026ada:	5a8a      	ldrh	r2, [r1, r2]
 8026adc:	8841      	ldrh	r1, [r0, #2]
 8026ade:	430a      	orrs	r2, r1
 8026ae0:	d0ef      	beq.n	8026ac2 <uip_arp_timer+0x1a>
        arptime - tabptr->time >= UIP_ARP_MAXAGE)
 8026ae2:	7a82      	ldrb	r2, [r0, #10]
 8026ae4:	ebac 0202 	sub.w	r2, ip, r2
    if ((tabptr->ipaddr[0] | tabptr->ipaddr[1]) != 0 &&
 8026ae8:	2a77      	cmp	r2, #119	@ 0x77
 8026aea:	ddea      	ble.n	8026ac2 <uip_arp_timer+0x1a>
      memset(tabptr->ipaddr, 0, 4);
 8026aec:	eb03 0143 	add.w	r1, r3, r3, lsl #1
 8026af0:	008a      	lsls	r2, r1, #2
 8026af2:	4904      	ldr	r1, [pc, #16]	@ (8026b04 <uip_arp_timer+0x5c>)
 8026af4:	2000      	movs	r0, #0
 8026af6:	5088      	str	r0, [r1, r2]
 8026af8:	e7e3      	b.n	8026ac2 <uip_arp_timer+0x1a>
}
 8026afa:	4770      	bx	lr
 8026afc:	240008e9 	.word	0x240008e9
 8026b00:	240008eb 	.word	0x240008eb
 8026b04:	240008f0 	.word	0x240008f0

08026b08 <uip_arp_arpin>:
/*-----------------------------------------------------------------------------------*/
void
uip_arp_arpin(void)
{

  if (uip_len < sizeof(struct arp_hdr))
 8026b08:	4b32      	ldr	r3, [pc, #200]	@ (8026bd4 <uip_arp_arpin+0xcc>)
 8026b0a:	881b      	ldrh	r3, [r3, #0]
 8026b0c:	2b29      	cmp	r3, #41	@ 0x29
 8026b0e:	d90c      	bls.n	8026b2a <uip_arp_arpin+0x22>
{
 8026b10:	b510      	push	{r4, lr}
  {
    uip_len = 0;
    return;
  }
  uip_len = 0;
 8026b12:	4b30      	ldr	r3, [pc, #192]	@ (8026bd4 <uip_arp_arpin+0xcc>)
 8026b14:	2200      	movs	r2, #0
 8026b16:	801a      	strh	r2, [r3, #0]

  switch (BUF->opcode)
 8026b18:	4b2f      	ldr	r3, [pc, #188]	@ (8026bd8 <uip_arp_arpin+0xd0>)
 8026b1a:	8a9b      	ldrh	r3, [r3, #20]
 8026b1c:	f5b3 7f80 	cmp.w	r3, #256	@ 0x100
 8026b20:	d007      	beq.n	8026b32 <uip_arp_arpin+0x2a>
 8026b22:	f5b3 7f00 	cmp.w	r3, #512	@ 0x200
 8026b26:	d043      	beq.n	8026bb0 <uip_arp_arpin+0xa8>
      }
      break;
  }

  return;
}
 8026b28:	bd10      	pop	{r4, pc}
    uip_len = 0;
 8026b2a:	4b2a      	ldr	r3, [pc, #168]	@ (8026bd4 <uip_arp_arpin+0xcc>)
 8026b2c:	2200      	movs	r2, #0
 8026b2e:	801a      	strh	r2, [r3, #0]
    return;
 8026b30:	4770      	bx	lr
      if (uip_ipaddr_cmp(BUF->dipaddr, uip_hostaddr))
 8026b32:	4b29      	ldr	r3, [pc, #164]	@ (8026bd8 <uip_arp_arpin+0xd0>)
 8026b34:	8cda      	ldrh	r2, [r3, #38]	@ 0x26
 8026b36:	4b29      	ldr	r3, [pc, #164]	@ (8026bdc <uip_arp_arpin+0xd4>)
 8026b38:	881b      	ldrh	r3, [r3, #0]
 8026b3a:	429a      	cmp	r2, r3
 8026b3c:	d1f4      	bne.n	8026b28 <uip_arp_arpin+0x20>
 8026b3e:	4b26      	ldr	r3, [pc, #152]	@ (8026bd8 <uip_arp_arpin+0xd0>)
 8026b40:	8d1a      	ldrh	r2, [r3, #40]	@ 0x28
 8026b42:	4b26      	ldr	r3, [pc, #152]	@ (8026bdc <uip_arp_arpin+0xd4>)
 8026b44:	885b      	ldrh	r3, [r3, #2]
 8026b46:	429a      	cmp	r2, r3
 8026b48:	d1ee      	bne.n	8026b28 <uip_arp_arpin+0x20>
        uip_arp_update(BUF->sipaddr, &BUF->shwaddr);
 8026b4a:	4c25      	ldr	r4, [pc, #148]	@ (8026be0 <uip_arp_arpin+0xd8>)
 8026b4c:	4621      	mov	r1, r4
 8026b4e:	1da0      	adds	r0, r4, #6
 8026b50:	f7ff ff24 	bl	802699c <uip_arp_update>
        BUF->opcode = HTONS(2);
 8026b54:	2200      	movs	r2, #0
 8026b56:	f804 2c02 	strb.w	r2, [r4, #-2]
 8026b5a:	2202      	movs	r2, #2
 8026b5c:	f804 2c01 	strb.w	r2, [r4, #-1]
        memcpy(BUF->dhwaddr.addr, BUF->shwaddr.addr, 6);
 8026b60:	6822      	ldr	r2, [r4, #0]
 8026b62:	f8c4 200a 	str.w	r2, [r4, #10]
 8026b66:	88a2      	ldrh	r2, [r4, #4]
 8026b68:	81e2      	strh	r2, [r4, #14]
        memcpy(BUF->shwaddr.addr, uip_ethaddr.addr, 6);
 8026b6a:	4a1e      	ldr	r2, [pc, #120]	@ (8026be4 <uip_arp_arpin+0xdc>)
 8026b6c:	6811      	ldr	r1, [r2, #0]
 8026b6e:	6021      	str	r1, [r4, #0]
 8026b70:	8892      	ldrh	r2, [r2, #4]
 8026b72:	80a2      	strh	r2, [r4, #4]
        memcpy(BUF->ethhdr.src.addr, uip_ethaddr.addr, 6);
 8026b74:	f844 1c10 	str.w	r1, [r4, #-16]
 8026b78:	f824 2c0c 	strh.w	r2, [r4, #-12]
        memcpy(BUF->ethhdr.dest.addr, BUF->dhwaddr.addr, 6);
 8026b7c:	f8d4 200a 	ldr.w	r2, [r4, #10]
 8026b80:	f844 2c16 	str.w	r2, [r4, #-22]
 8026b84:	89e2      	ldrh	r2, [r4, #14]
 8026b86:	f824 2c12 	strh.w	r2, [r4, #-18]
        BUF->dipaddr[0] = BUF->sipaddr[0];
 8026b8a:	88e2      	ldrh	r2, [r4, #6]
 8026b8c:	8222      	strh	r2, [r4, #16]
        BUF->dipaddr[1] = BUF->sipaddr[1];
 8026b8e:	8922      	ldrh	r2, [r4, #8]
 8026b90:	8262      	strh	r2, [r4, #18]
        BUF->sipaddr[0] = uip_hostaddr[0];
 8026b92:	4a12      	ldr	r2, [pc, #72]	@ (8026bdc <uip_arp_arpin+0xd4>)
 8026b94:	8811      	ldrh	r1, [r2, #0]
 8026b96:	80e1      	strh	r1, [r4, #6]
        BUF->sipaddr[1] = uip_hostaddr[1];
 8026b98:	8852      	ldrh	r2, [r2, #2]
 8026b9a:	8122      	strh	r2, [r4, #8]
        BUF->ethhdr.type = HTONS(UIP_ETHTYPE_ARP);
 8026b9c:	2208      	movs	r2, #8
 8026b9e:	f804 2c0a 	strb.w	r2, [r4, #-10]
 8026ba2:	2206      	movs	r2, #6
 8026ba4:	f804 2c09 	strb.w	r2, [r4, #-9]
        uip_len = sizeof(struct arp_hdr);
 8026ba8:	4b0a      	ldr	r3, [pc, #40]	@ (8026bd4 <uip_arp_arpin+0xcc>)
 8026baa:	222a      	movs	r2, #42	@ 0x2a
 8026bac:	801a      	strh	r2, [r3, #0]
 8026bae:	e7bb      	b.n	8026b28 <uip_arp_arpin+0x20>
      if (uip_ipaddr_cmp(BUF->dipaddr, uip_hostaddr))
 8026bb0:	4b09      	ldr	r3, [pc, #36]	@ (8026bd8 <uip_arp_arpin+0xd0>)
 8026bb2:	8cda      	ldrh	r2, [r3, #38]	@ 0x26
 8026bb4:	4b09      	ldr	r3, [pc, #36]	@ (8026bdc <uip_arp_arpin+0xd4>)
 8026bb6:	881b      	ldrh	r3, [r3, #0]
 8026bb8:	429a      	cmp	r2, r3
 8026bba:	d1b5      	bne.n	8026b28 <uip_arp_arpin+0x20>
 8026bbc:	4b06      	ldr	r3, [pc, #24]	@ (8026bd8 <uip_arp_arpin+0xd0>)
 8026bbe:	8d1a      	ldrh	r2, [r3, #40]	@ 0x28
 8026bc0:	4b06      	ldr	r3, [pc, #24]	@ (8026bdc <uip_arp_arpin+0xd4>)
 8026bc2:	885b      	ldrh	r3, [r3, #2]
 8026bc4:	429a      	cmp	r2, r3
 8026bc6:	d1af      	bne.n	8026b28 <uip_arp_arpin+0x20>
        uip_arp_update(BUF->sipaddr, &BUF->shwaddr);
 8026bc8:	4905      	ldr	r1, [pc, #20]	@ (8026be0 <uip_arp_arpin+0xd8>)
 8026bca:	1d88      	adds	r0, r1, #6
 8026bcc:	f7ff fee6 	bl	802699c <uip_arp_update>
 8026bd0:	e7aa      	b.n	8026b28 <uip_arp_arpin+0x20>
 8026bd2:	bf00      	nop
 8026bd4:	240002d4 	.word	0x240002d4
 8026bd8:	240002e0 	.word	0x240002e0
 8026bdc:	240008e4 	.word	0x240008e4
 8026be0:	240002f6 	.word	0x240002f6
 8026be4:	240008d4 	.word	0x240008d4

08026be8 <uip_arp_out>:
 * uip_len.
 */
/*-----------------------------------------------------------------------------------*/
void
uip_arp_out(void)
{
 8026be8:	b410      	push	{r4}

     If not ARP table entry is found, we overwrite the original IP
     packet with an ARP request for the IP address. */

  /* First check if destination is a local broadcast. */
  if (uip_ipaddr_cmp(IPBUF->destipaddr, broadcast_ipaddr))
 8026bea:	4b4a      	ldr	r3, [pc, #296]	@ (8026d14 <uip_arp_out+0x12c>)
 8026bec:	8bdb      	ldrh	r3, [r3, #30]
 8026bee:	f64f 72ff 	movw	r2, #65535	@ 0xffff
 8026bf2:	4293      	cmp	r3, r2
 8026bf4:	d01c      	beq.n	8026c30 <uip_arp_out+0x48>
    memcpy(IPBUF->ethhdr.dest.addr, broadcast_ethaddr.addr, 6);
  }
  else
  {
    /* Check if the destination address is on the local network. */
    if (!uip_ipaddr_maskcmp(IPBUF->destipaddr, uip_hostaddr, uip_netmask))
 8026bf6:	4a48      	ldr	r2, [pc, #288]	@ (8026d18 <uip_arp_out+0x130>)
 8026bf8:	f8b2 c000 	ldrh.w	ip, [r2]
 8026bfc:	4a47      	ldr	r2, [pc, #284]	@ (8026d1c <uip_arp_out+0x134>)
 8026bfe:	8811      	ldrh	r1, [r2, #0]
 8026c00:	ea83 020c 	eor.w	r2, r3, ip
 8026c04:	4211      	tst	r1, r2
 8026c06:	d108      	bne.n	8026c1a <uip_arp_out+0x32>
 8026c08:	4a42      	ldr	r2, [pc, #264]	@ (8026d14 <uip_arp_out+0x12c>)
 8026c0a:	8c11      	ldrh	r1, [r2, #32]
 8026c0c:	4a42      	ldr	r2, [pc, #264]	@ (8026d18 <uip_arp_out+0x130>)
 8026c0e:	8852      	ldrh	r2, [r2, #2]
 8026c10:	4842      	ldr	r0, [pc, #264]	@ (8026d1c <uip_arp_out+0x134>)
 8026c12:	8840      	ldrh	r0, [r0, #2]
 8026c14:	404a      	eors	r2, r1
 8026c16:	4210      	tst	r0, r2
 8026c18:	d017      	beq.n	8026c4a <uip_arp_out+0x62>
    {
      /* Destination address was not on the local network, so we need to
      use the default router's IP address instead of the destination
      address when determining the MAC address. */
      uip_ipaddr_copy(ipaddr, uip_draddr);
 8026c1a:	4b41      	ldr	r3, [pc, #260]	@ (8026d20 <uip_arp_out+0x138>)
 8026c1c:	4a41      	ldr	r2, [pc, #260]	@ (8026d24 <uip_arp_out+0x13c>)
 8026c1e:	8811      	ldrh	r1, [r2, #0]
 8026c20:	8019      	strh	r1, [r3, #0]
 8026c22:	8852      	ldrh	r2, [r2, #2]
 8026c24:	805a      	strh	r2, [r3, #2]
    {
      /* Else, we use the destination IP address. */
      uip_ipaddr_copy(ipaddr, IPBUF->destipaddr);
    }

    for (i = 0; i < UIP_ARPTAB_SIZE; ++i)
 8026c26:	4b40      	ldr	r3, [pc, #256]	@ (8026d28 <uip_arp_out+0x140>)
 8026c28:	2200      	movs	r2, #0
 8026c2a:	701a      	strb	r2, [r3, #0]
  struct arp_entry *tabptr = arp_table;
 8026c2c:	4c3f      	ldr	r4, [pc, #252]	@ (8026d2c <uip_arp_out+0x144>)
    for (i = 0; i < UIP_ARPTAB_SIZE; ++i)
 8026c2e:	e013      	b.n	8026c58 <uip_arp_out+0x70>
  if (uip_ipaddr_cmp(IPBUF->destipaddr, broadcast_ipaddr))
 8026c30:	4a38      	ldr	r2, [pc, #224]	@ (8026d14 <uip_arp_out+0x12c>)
 8026c32:	8c11      	ldrh	r1, [r2, #32]
 8026c34:	f64f 72ff 	movw	r2, #65535	@ 0xffff
 8026c38:	4291      	cmp	r1, r2
 8026c3a:	d1dc      	bne.n	8026bf6 <uip_arp_out+0xe>
    memcpy(IPBUF->ethhdr.dest.addr, broadcast_ethaddr.addr, 6);
 8026c3c:	4b35      	ldr	r3, [pc, #212]	@ (8026d14 <uip_arp_out+0x12c>)
 8026c3e:	4a3c      	ldr	r2, [pc, #240]	@ (8026d30 <uip_arp_out+0x148>)
 8026c40:	6810      	ldr	r0, [r2, #0]
 8026c42:	6018      	str	r0, [r3, #0]
 8026c44:	8892      	ldrh	r2, [r2, #4]
 8026c46:	809a      	strh	r2, [r3, #4]
 8026c48:	e020      	b.n	8026c8c <uip_arp_out+0xa4>
      uip_ipaddr_copy(ipaddr, IPBUF->destipaddr);
 8026c4a:	4a35      	ldr	r2, [pc, #212]	@ (8026d20 <uip_arp_out+0x138>)
 8026c4c:	8013      	strh	r3, [r2, #0]
 8026c4e:	8051      	strh	r1, [r2, #2]
 8026c50:	e7e9      	b.n	8026c26 <uip_arp_out+0x3e>
    for (i = 0; i < UIP_ARPTAB_SIZE; ++i)
 8026c52:	3301      	adds	r3, #1
 8026c54:	4a34      	ldr	r2, [pc, #208]	@ (8026d28 <uip_arp_out+0x140>)
 8026c56:	7013      	strb	r3, [r2, #0]
 8026c58:	4b33      	ldr	r3, [pc, #204]	@ (8026d28 <uip_arp_out+0x140>)
 8026c5a:	781b      	ldrb	r3, [r3, #0]
 8026c5c:	2b07      	cmp	r3, #7
 8026c5e:	d80e      	bhi.n	8026c7e <uip_arp_out+0x96>
    {
      tabptr = &arp_table[i];
 8026c60:	eb03 0143 	add.w	r1, r3, r3, lsl #1
 8026c64:	008a      	lsls	r2, r1, #2
 8026c66:	4931      	ldr	r1, [pc, #196]	@ (8026d2c <uip_arp_out+0x144>)
 8026c68:	1854      	adds	r4, r2, r1
      if (uip_ipaddr_cmp(ipaddr, tabptr->ipaddr))
 8026c6a:	482d      	ldr	r0, [pc, #180]	@ (8026d20 <uip_arp_out+0x138>)
 8026c6c:	8800      	ldrh	r0, [r0, #0]
 8026c6e:	5a8a      	ldrh	r2, [r1, r2]
 8026c70:	4290      	cmp	r0, r2
 8026c72:	d1ee      	bne.n	8026c52 <uip_arp_out+0x6a>
 8026c74:	4a2a      	ldr	r2, [pc, #168]	@ (8026d20 <uip_arp_out+0x138>)
 8026c76:	8850      	ldrh	r0, [r2, #2]
 8026c78:	8862      	ldrh	r2, [r4, #2]
 8026c7a:	4290      	cmp	r0, r2
 8026c7c:	d1e9      	bne.n	8026c52 <uip_arp_out+0x6a>
      {
        break;
      }
    }

    if (i == UIP_ARPTAB_SIZE)
 8026c7e:	2b08      	cmp	r3, #8
 8026c80:	d016      	beq.n	8026cb0 <uip_arp_out+0xc8>
      uip_len = sizeof(struct arp_hdr);
      return;
    }

    /* Build an ethernet header. */
    memcpy(IPBUF->ethhdr.dest.addr, tabptr->ethaddr.addr, 6);
 8026c82:	4b24      	ldr	r3, [pc, #144]	@ (8026d14 <uip_arp_out+0x12c>)
 8026c84:	6862      	ldr	r2, [r4, #4]
 8026c86:	601a      	str	r2, [r3, #0]
 8026c88:	8922      	ldrh	r2, [r4, #8]
 8026c8a:	809a      	strh	r2, [r3, #4]
  }
  memcpy(IPBUF->ethhdr.src.addr, uip_ethaddr.addr, 6);
 8026c8c:	4b21      	ldr	r3, [pc, #132]	@ (8026d14 <uip_arp_out+0x12c>)
 8026c8e:	4a29      	ldr	r2, [pc, #164]	@ (8026d34 <uip_arp_out+0x14c>)
 8026c90:	6811      	ldr	r1, [r2, #0]
 8026c92:	f8c3 1006 	str.w	r1, [r3, #6]
 8026c96:	8892      	ldrh	r2, [r2, #4]
 8026c98:	815a      	strh	r2, [r3, #10]

  IPBUF->ethhdr.type = HTONS(UIP_ETHTYPE_IP);
 8026c9a:	2208      	movs	r2, #8
 8026c9c:	731a      	strb	r2, [r3, #12]
 8026c9e:	2200      	movs	r2, #0
 8026ca0:	735a      	strb	r2, [r3, #13]

  uip_len += sizeof(struct uip_eth_hdr);
 8026ca2:	4a25      	ldr	r2, [pc, #148]	@ (8026d38 <uip_arp_out+0x150>)
 8026ca4:	8813      	ldrh	r3, [r2, #0]
 8026ca6:	330e      	adds	r3, #14
 8026ca8:	8013      	strh	r3, [r2, #0]
}
 8026caa:	f85d 4b04 	ldr.w	r4, [sp], #4
 8026cae:	4770      	bx	lr
      memset(BUF->ethhdr.dest.addr, 0xff, 6);
 8026cb0:	4b18      	ldr	r3, [pc, #96]	@ (8026d14 <uip_arp_out+0x12c>)
 8026cb2:	f04f 32ff 	mov.w	r2, #4294967295
 8026cb6:	601a      	str	r2, [r3, #0]
 8026cb8:	809a      	strh	r2, [r3, #4]
      memset(BUF->dhwaddr.addr, 0x00, 6);
 8026cba:	2200      	movs	r2, #0
 8026cbc:	621a      	str	r2, [r3, #32]
 8026cbe:	849a      	strh	r2, [r3, #36]	@ 0x24
      memcpy(BUF->ethhdr.src.addr, uip_ethaddr.addr, 6);
 8026cc0:	491c      	ldr	r1, [pc, #112]	@ (8026d34 <uip_arp_out+0x14c>)
 8026cc2:	6808      	ldr	r0, [r1, #0]
 8026cc4:	f8c3 0006 	str.w	r0, [r3, #6]
 8026cc8:	8889      	ldrh	r1, [r1, #4]
 8026cca:	8159      	strh	r1, [r3, #10]
      memcpy(BUF->shwaddr.addr, uip_ethaddr.addr, 6);
 8026ccc:	f8c3 0016 	str.w	r0, [r3, #22]
 8026cd0:	8359      	strh	r1, [r3, #26]
      uip_ipaddr_copy(BUF->dipaddr, ipaddr);
 8026cd2:	4913      	ldr	r1, [pc, #76]	@ (8026d20 <uip_arp_out+0x138>)
 8026cd4:	8808      	ldrh	r0, [r1, #0]
 8026cd6:	84d8      	strh	r0, [r3, #38]	@ 0x26
 8026cd8:	8849      	ldrh	r1, [r1, #2]
 8026cda:	8519      	strh	r1, [r3, #40]	@ 0x28
      uip_ipaddr_copy(BUF->sipaddr, uip_hostaddr);
 8026cdc:	f8a3 c01c 	strh.w	ip, [r3, #28]
 8026ce0:	490d      	ldr	r1, [pc, #52]	@ (8026d18 <uip_arp_out+0x130>)
 8026ce2:	8849      	ldrh	r1, [r1, #2]
 8026ce4:	83d9      	strh	r1, [r3, #30]
      BUF->opcode = HTONS(ARP_REQUEST); /* ARP request. */
 8026ce6:	751a      	strb	r2, [r3, #20]
 8026ce8:	2101      	movs	r1, #1
 8026cea:	7559      	strb	r1, [r3, #21]
      BUF->hwtype = HTONS(ARP_HWTYPE_ETH);
 8026cec:	739a      	strb	r2, [r3, #14]
 8026cee:	73d9      	strb	r1, [r3, #15]
      BUF->protocol = HTONS(UIP_ETHTYPE_IP);
 8026cf0:	2108      	movs	r1, #8
 8026cf2:	7419      	strb	r1, [r3, #16]
 8026cf4:	745a      	strb	r2, [r3, #17]
      BUF->hwlen = 6;
 8026cf6:	2206      	movs	r2, #6
 8026cf8:	749a      	strb	r2, [r3, #18]
      BUF->protolen = 4;
 8026cfa:	2204      	movs	r2, #4
 8026cfc:	74da      	strb	r2, [r3, #19]
      BUF->ethhdr.type = HTONS(UIP_ETHTYPE_ARP);
 8026cfe:	7319      	strb	r1, [r3, #12]
 8026d00:	2206      	movs	r2, #6
 8026d02:	735a      	strb	r2, [r3, #13]
      uip_appdata = &uip_buf[UIP_TCPIP_HLEN + UIP_LLH_LEN];
 8026d04:	3336      	adds	r3, #54	@ 0x36
 8026d06:	4a0d      	ldr	r2, [pc, #52]	@ (8026d3c <uip_arp_out+0x154>)
 8026d08:	6013      	str	r3, [r2, #0]
      uip_len = sizeof(struct arp_hdr);
 8026d0a:	4b0b      	ldr	r3, [pc, #44]	@ (8026d38 <uip_arp_out+0x150>)
 8026d0c:	222a      	movs	r2, #42	@ 0x2a
 8026d0e:	801a      	strh	r2, [r3, #0]
      return;
 8026d10:	e7cb      	b.n	8026caa <uip_arp_out+0xc2>
 8026d12:	bf00      	nop
 8026d14:	240002e0 	.word	0x240002e0
 8026d18:	240008e4 	.word	0x240008e4
 8026d1c:	240008dc 	.word	0x240008dc
 8026d20:	240008ec 	.word	0x240008ec
 8026d24:	240008e0 	.word	0x240008e0
 8026d28:	240008eb 	.word	0x240008eb
 8026d2c:	240008f0 	.word	0x240008f0
 8026d30:	08026e90 	.word	0x08026e90
 8026d34:	240008d4 	.word	0x240008d4
 8026d38:	240002d4 	.word	0x240002d4
 8026d3c:	240002dc 	.word	0x240002dc

08026d40 <timer_set>:
 * \param interval The interval before the timer expires.
 *
 */
void
timer_set(struct timer *t, clock_time_t interval)
{
 8026d40:	b510      	push	{r4, lr}
 8026d42:	4604      	mov	r4, r0
  t->interval = interval;
 8026d44:	6041      	str	r1, [r0, #4]
  t->start = clock_time();
 8026d46:	f7fe f967 	bl	8025018 <clock_time>
 8026d4a:	6020      	str	r0, [r4, #0]
}
 8026d4c:	bd10      	pop	{r4, pc}

08026d4e <timer_expired>:
 * \return Non-zero if the timer has expired, zero otherwise.
 *
 */
int
timer_expired(struct timer *t)
{
 8026d4e:	b510      	push	{r4, lr}
 8026d50:	4604      	mov	r4, r0
  return (clock_time_t)(clock_time() - t->start) >= (clock_time_t)t->interval;
 8026d52:	f7fe f961 	bl	8025018 <clock_time>
 8026d56:	6823      	ldr	r3, [r4, #0]
 8026d58:	1ac0      	subs	r0, r0, r3
 8026d5a:	6863      	ldr	r3, [r4, #4]
}
 8026d5c:	4298      	cmp	r0, r3
 8026d5e:	bfb4      	ite	lt
 8026d60:	2000      	movlt	r0, #0
 8026d62:	2001      	movge	r0, #1
 8026d64:	bd10      	pop	{r4, pc}

08026d66 <memcmp>:
 8026d66:	b510      	push	{r4, lr}
 8026d68:	3901      	subs	r1, #1
 8026d6a:	4402      	add	r2, r0
 8026d6c:	4290      	cmp	r0, r2
 8026d6e:	d101      	bne.n	8026d74 <memcmp+0xe>
 8026d70:	2000      	movs	r0, #0
 8026d72:	e005      	b.n	8026d80 <memcmp+0x1a>
 8026d74:	7803      	ldrb	r3, [r0, #0]
 8026d76:	f811 4f01 	ldrb.w	r4, [r1, #1]!
 8026d7a:	42a3      	cmp	r3, r4
 8026d7c:	d001      	beq.n	8026d82 <memcmp+0x1c>
 8026d7e:	1b18      	subs	r0, r3, r4
 8026d80:	bd10      	pop	{r4, pc}
 8026d82:	3001      	adds	r0, #1
 8026d84:	e7f2      	b.n	8026d6c <memcmp+0x6>

08026d86 <memset>:
 8026d86:	4402      	add	r2, r0
 8026d88:	4603      	mov	r3, r0
 8026d8a:	4293      	cmp	r3, r2
 8026d8c:	d100      	bne.n	8026d90 <memset+0xa>
 8026d8e:	4770      	bx	lr
 8026d90:	f803 1b01 	strb.w	r1, [r3], #1
 8026d94:	e7f9      	b.n	8026d8a <memset+0x4>
	...

08026d98 <__libc_init_array>:
 8026d98:	b570      	push	{r4, r5, r6, lr}
 8026d9a:	4b0d      	ldr	r3, [pc, #52]	@ (8026dd0 <__libc_init_array+0x38>)
 8026d9c:	4d0d      	ldr	r5, [pc, #52]	@ (8026dd4 <__libc_init_array+0x3c>)
 8026d9e:	1b5b      	subs	r3, r3, r5
 8026da0:	109c      	asrs	r4, r3, #2
 8026da2:	2600      	movs	r6, #0
 8026da4:	42a6      	cmp	r6, r4
 8026da6:	d109      	bne.n	8026dbc <__libc_init_array+0x24>
 8026da8:	f000 f828 	bl	8026dfc <_init>
 8026dac:	4d0a      	ldr	r5, [pc, #40]	@ (8026dd8 <__libc_init_array+0x40>)
 8026dae:	4b0b      	ldr	r3, [pc, #44]	@ (8026ddc <__libc_init_array+0x44>)
 8026db0:	1b5b      	subs	r3, r3, r5
 8026db2:	109c      	asrs	r4, r3, #2
 8026db4:	2600      	movs	r6, #0
 8026db6:	42a6      	cmp	r6, r4
 8026db8:	d105      	bne.n	8026dc6 <__libc_init_array+0x2e>
 8026dba:	bd70      	pop	{r4, r5, r6, pc}
 8026dbc:	f855 3b04 	ldr.w	r3, [r5], #4
 8026dc0:	4798      	blx	r3
 8026dc2:	3601      	adds	r6, #1
 8026dc4:	e7ee      	b.n	8026da4 <__libc_init_array+0xc>
 8026dc6:	f855 3b04 	ldr.w	r3, [r5], #4
 8026dca:	4798      	blx	r3
 8026dcc:	3601      	adds	r6, #1
 8026dce:	e7f2      	b.n	8026db6 <__libc_init_array+0x1e>
 8026dd0:	08026e9c 	.word	0x08026e9c
 8026dd4:	08026e9c 	.word	0x08026e9c
 8026dd8:	08026e9c 	.word	0x08026e9c
 8026ddc:	08026ea0 	.word	0x08026ea0

08026de0 <memcpy>:
 8026de0:	440a      	add	r2, r1
 8026de2:	4291      	cmp	r1, r2
 8026de4:	f100 33ff 	add.w	r3, r0, #4294967295
 8026de8:	d100      	bne.n	8026dec <memcpy+0xc>
 8026dea:	4770      	bx	lr
 8026dec:	b510      	push	{r4, lr}
 8026dee:	f811 4b01 	ldrb.w	r4, [r1], #1
 8026df2:	f803 4f01 	strb.w	r4, [r3, #1]!
 8026df6:	4291      	cmp	r1, r2
 8026df8:	d1f9      	bne.n	8026dee <memcpy+0xe>
 8026dfa:	bd10      	pop	{r4, pc}

08026dfc <_init>:
 8026dfc:	b5f8      	push	{r3, r4, r5, r6, r7, lr}
 8026dfe:	bf00      	nop
 8026e00:	bcf8      	pop	{r3, r4, r5, r6, r7}
 8026e02:	bc08      	pop	{r3}
 8026e04:	469e      	mov	lr, r3
 8026e06:	4770      	bx	lr

08026e08 <_fini>:
 8026e08:	b5f8      	push	{r3, r4, r5, r6, r7, lr}
 8026e0a:	bf00      	nop
 8026e0c:	bcf8      	pop	{r3, r4, r5, r6, r7}
 8026e0e:	bc08      	pop	{r3}
 8026e10:	469e      	mov	lr, r3
 8026e12:	4770      	bx	lr
